***********************************************************************
*
*	CODE GENERATION LISTING FOR: RESTSvcSQL
*	COMPILER VERSION: 3.0.0.0
*
***********************************************************************

***********************************************************************
UNUSED FUNCTION BLOCKS:

	EastronSDM630_v1
	SAModbusCmd
***********************************************************************

**************************************************
	CODE GENERATOR SUBROUTINES
**************************************************

$$MOD:
005BA660  FB90 F3F1		sdiv r3, r0, r1
005BA664  4359     		mul r1, r1, r3
005BA666  EBC1 0000		rsb r0, r1, r0
005BA66A  4770     		bx lr

$$MOD_U:
005BA66C  FBB0 F3F1		udiv r3, r0, r1
005BA670  4359     		mul r1, r1, r3
005BA672  EBC1 0000		rsb r0, r1, r0
005BA676  4770     		bx lr

**************************************************
	List function block: _ModbusMaster
**************************************************

FUNCTION_BLOCK _ModbusMaster

	{ DE:"(eLLabMdbDevsLib_A200), Manages the modbus master communication (Private)" }

        VAR_INPUT
Enable : BOOL;	{ DE:"FB enable" }
SpyOn : BOOL;	{ DE:"Spy active" }
File : UDINT;	{ DE:"Terminal I/O pointer" }
Type : USINT;	{ DE:"Modbus type" }
Node : USINT;	{ DE:"Node number" }
FCode : USINT;	{ DE:"Function code" }
Address : UINT;	{ DE:"Start address" }
Points : UDINT;	{ DE:"Number of points" }
Buffer : @USINT;	{ DE:"Address of data buffer" }
IFTime : UDINT;	{ DE:"Interframe time (uS)" }
Timeout : UINT;	{ DE:"Timeout time (mS)" }
Delay : UINT;	{ DE:"Delay time (mS)" }
	END_VAR

        VAR_OUTPUT
Done : BOOL;	{ DE:"Command done" }
Ok : BOOL := FALSE;	{ DE:"Execution Ok" }
Fault : BOOL;	{ DE:"Command fault" }
Errors : UDINT;	{ DE:"Error counter" }
	END_VAR

        VAR
CaseBack : USINT;	{ DE:"Case back" }
CaseNr : USINT;	{ DE:"Case number" }
Ch : USINT;	{ DE:"Character" }
DFrame : ARRAY[ 0..255 ] OF BYTE;	{ DE:"Data frame" }
GetCRC : SysGetCrc;	{ DE:"Get CRC" }
LclPtr : @USINT;	{ DE:"Local pointer" }
RxDLgt : USINT;	{ DE:"Rx data length" }
TimeBf : ARRAY[ 0..1 ] OF UDINT;	{ DE:"Time buffer" }
TxDLgt : USINT;	{ DE:"Tx data length" }
i : UINT;	{ DE:"Aux counter" }
FFlop : BOOL;	{ DE:"Flip/Flop" }
TrIDf : USINT;	{ DE:"Transaction identifier" }
DFIDx : USINT;	{ DE:"Data frame index" }
	END_VAR

END_FUNCTION_BLOCK

005BA678  E92D 4040		stmdb sp!, { r6, lr }
005BA67C  462E     		mov r6, r5

005BA67E  F8DF 7834		ldr r7, [pc, #+2100] ; 0x130
005BA682  5DF0     		ldrb r0, [r6, +r7]

005BA684  2800     		cmp r0, #0
005BA686  D00D     		beq #26 ; 0x005BA6A4


005BA68A  2000     		mov r0, #0 ; 0

005BA68C  2300     		mov r3, #0 ; 0
005BA68E  2200     		mov r2, #0 ; 0
005BA690  2100     		mov r1, #0 ; 0
005BA692  4600     		mov r0, r0
005BA694  F8DF 4868		ldr r4, [pc, #+2152] ; 0x48FE35
005BA698  F044 0401		orr r4, r4, #1
005BA69C  47A0     		blx r4

005BA69E  F8DF 780C		ldr r7, [pc, #+2060] ; 0x12A
005BA6A2  53F0     		strh r0, [r6, +r7]

005BA6A4  2000     		mov r0, #0 ; 0
005BA6A6  F8DF 7838		ldr r7, [pc, #+2104] ; 0x151
005BA6AA  55F0     		strb r0, [r6, +r7]

005BA6AC  F8DF 7834		ldr r7, [pc, #+2100] ; 0x152
005BA6B0  5DF0     		ldrb r0, [r6, +r7]

005BA6B2  2800     		cmp r0, #0
005BA6B4  D00F     		beq #30 ; 0x005BA6D6


005BA6B8  2000     		mov r0, #0 ; 0
005BA6BA  F8DF 7828		ldr r7, [pc, #+2088] ; 0x152
005BA6BE  55F0     		strb r0, [r6, +r7]

005BA6C0  2001     		mov r0, #1 ; 1
005BA6C2  F8DF 7818		ldr r7, [pc, #+2072] ; 0x150
005BA6C6  55F0     		strb r0, [r6, +r7]

005BA6C8  F8DF 781C		ldr r7, [pc, #+2076] ; 0x154
005BA6CC  59F0     		ldr r0, [r6, +r7]

005BA6CE  1C40     		add r0, r0, #1

005BA6D0  F8DF 7814		ldr r7, [pc, #+2068] ; 0x154
005BA6D4  51F0     		str r0, [r6, +r7]

005BA6D6  F8DF 77D8		ldr r7, [pc, #+2008] ; 0x12F
005BA6DA  5DF0     		ldrb r0, [r6, +r7]

005BA6DC  2800     		cmp r0, #0
005BA6DE  BF08 2001		eqmov r0, #1
005BA6E2  BF18 2000		nemov r0, #0

005BA6E6  2800     		cmp r0, #0
005BA6E8  D00A     		beq #20 ; 0x005BA700


005BA6EC  2000     		mov r0, #0 ; 0
005BA6EE  F8DF 77EC		ldr r7, [pc, #+2028] ; 0x150
005BA6F2  55F0     		strb r0, [r6, +r7]

005BA6F4  2000     		mov r0, #0 ; 0
005BA6F6  F8DF 7788		ldr r7, [pc, #+1928] ; 0x1
005BA6FA  55F0     		strb r0, [r6, +r7]

005BA6FC  F002 BBE0		b #10176 ; 0x005BCEC0


005BA700  F8DF 77D8		ldr r7, [pc, #+2008] ; 0x150
005BA704  5DF0     		ldrb r0, [r6, +r7]

005BA706  2800     		cmp r0, #0
005BA708  D002     		beq #4 ; 0x005BA710


005BA70C  F002 BBD8		b #10160 ; 0x005BCEC0


005BA710  F8DF 77A4		ldr r7, [pc, #+1956] ; 0x134
005BA714  59F0     		ldr r0, [r6, +r7]

005BA716  2700     		mov r7, #0 ; 0
005BA718  42B8     		cmp r0, r7
005BA71A  BF18 2000		nemov r0, #0
005BA71E  BF08 2001		eqmov r0, #1

005BA722  2800     		cmp r0, #0
005BA724  D012     		beq #36 ; 0x005BA74C


005BA728  2001     		mov r0, #1 ; 1
005BA72A  F8DF 77B8		ldr r7, [pc, #+1976] ; 0x152
005BA72E  55F0     		strb r0, [r6, +r7]

005BA730  F8DF 77DC		ldr r7, [pc, #+2012] ; 0x5BA460
005BA734  6838     		ldr r0, [r7]

005BA736  4600     		mov r0, r0
005BA738  F8DF 47CC		ldr r4, [pc, #+1996] ; 0x490561
005BA73C  F044 0401		orr r4, r4, #1
005BA740  47A0     		blx r4

005BA742  F8DF 7768		ldr r7, [pc, #+1896] ; 0x12A
005BA746  53F0     		strh r0, [r6, +r7]

005BA748  F002 BBBA		b #10100 ; 0x005BCEC0


005BA74C  F8DF 776C		ldr r7, [pc, #+1900] ; 0x138
005BA750  5DF0     		ldrb r0, [r6, +r7]

005BA752  2800     		cmp r0, #0
005BA754  BF18 2000		nemov r0, #0
005BA758  BF08 2001		eqmov r0, #1

005BA75C  2800     		cmp r0, #0
005BA75E  D118     		bne #48 ; 0x005BA792


005BA762  F8DF 7758		ldr r7, [pc, #+1880] ; 0x138
005BA766  5DF0     		ldrb r0, [r6, +r7]

005BA768  2801     		cmp r0, #1
005BA76A  BF18 2000		nemov r0, #0
005BA76E  BF08 2001		eqmov r0, #1

005BA772  2800     		cmp r0, #0
005BA774  D10F     		bne #30 ; 0x005BA796


005BA778  F8DF 7740		ldr r7, [pc, #+1856] ; 0x138
005BA77C  5DF0     		ldrb r0, [r6, +r7]

005BA77E  2802     		cmp r0, #2
005BA780  BF18 2000		nemov r0, #0
005BA784  BF08 2001		eqmov r0, #1

005BA788  2800     		cmp r0, #0
005BA78A  D106     		bne #12 ; 0x005BA79A


005BA78E  E006     		b #12 ; 0x005BA79E


005BA792  E016     		b #44 ; 0x005BA7C2


005BA796  E014     		b #40 ; 0x005BA7C2


005BA79A  E012     		b #36 ; 0x005BA7C2


005BA79E  2001     		mov r0, #1 ; 1
005BA7A0  F8DF 7740		ldr r7, [pc, #+1856] ; 0x152
005BA7A4  55F0     		strb r0, [r6, +r7]

005BA7A6  F8DF 776C		ldr r7, [pc, #+1900] ; 0x5BA464
005BA7AA  6838     		ldr r0, [r7]

005BA7AC  4600     		mov r0, r0
005BA7AE  F8DF 4758		ldr r4, [pc, #+1880] ; 0x490561
005BA7B2  F044 0401		orr r4, r4, #1
005BA7B6  47A0     		blx r4

005BA7B8  F8DF 76F0		ldr r7, [pc, #+1776] ; 0x12A
005BA7BC  53F0     		strh r0, [r6, +r7]

005BA7BE  F002 BB7F		b #9982 ; 0x005BCEC0


005BA7C2  F8DF 76BC		ldr r7, [pc, #+1724] ; 0x1
005BA7C6  5DF0     		ldrb r0, [r6, +r7]

005BA7C8  2800     		cmp r0, #0
005BA7CA  BF18 2000		nemov r0, #0
005BA7CE  BF08 2001		eqmov r0, #1

005BA7D2  2800     		cmp r0, #0
005BA7D4  D00A     		beq #20 ; 0x005BA7EC


005BA7D8  2001     		mov r0, #1 ; 1

005BA7DA  4600     		mov r0, r0
005BA7DC  F8DF 4724		ldr r4, [pc, #+1828] ; 0x490519
005BA7E0  F044 0401		orr r4, r4, #1
005BA7E4  47A0     		blx r4

005BA7E6  F8DF 76BC		ldr r7, [pc, #+1724] ; 0x120
005BA7EA  51F0     		str r0, [r6, +r7]

005BA7EC  2001     		mov r0, #1 ; 1

005BA7EE  4600     		mov r0, r0
005BA7F0  F8DF 4710		ldr r4, [pc, #+1808] ; 0x490519
005BA7F4  F044 0401		orr r4, r4, #1
005BA7F8  47A0     		blx r4

005BA7FA  F8DF 76A8		ldr r7, [pc, #+1704] ; 0x120
005BA7FE  59F7     		ldr r7, [r6, +r7]
005BA800  1BC0     		sub r0, r0, r7

005BA802  F8DF 76E8		ldr r7, [pc, #+1768] ; 0x158
005BA806  51F0     		str r0, [r6, +r7]

005BA808  F8DF 76C8		ldr r7, [pc, #+1736] ; 0x14C
005BA80C  5BF0     		ldrh r0, [r6, +r7]

005BA80E  F8DF 76C8		ldr r7, [pc, #+1736] ; 0x14E
005BA812  5BF7     		ldrh r7, [r6, +r7]
005BA814  19C0     		add r0, r0, r7

005BA816  3014     		add r0, r0, #20

005BA818  F8DF 76D4		ldr r7, [pc, #+1748] ; 0x15C
005BA81C  53F0     		strh r0, [r6, +r7]

005BA81E  F8DF 76D0		ldr r7, [pc, #+1744] ; 0x15C
005BA822  5BF0     		ldrh r0, [r6, +r7]

005BA824  F44F 777A		mov r7, #1000 ; 1000
005BA828  4378     		mul r0, r0, r7

005BA82A  F8DF 76C8		ldr r7, [pc, #+1736] ; 0x160
005BA82E  51F0     		str r0, [r6, +r7]

005BA830  F8DF 76B8		ldr r7, [pc, #+1720] ; 0x158
005BA834  59F0     		ldr r0, [r6, +r7]

005BA836  F8DF 76BC		ldr r7, [pc, #+1724] ; 0x160
005BA83A  59F7     		ldr r7, [r6, +r7]
005BA83C  42B8     		cmp r0, r7
005BA83E  BF38 2000		lomov r0, #0
005BA842  BF28 2001		hsmov r0, #1

005BA846  2800     		cmp r0, #0
005BA848  D034     		beq #104 ; 0x005BA8B4


005BA84C  F8DF 7664		ldr r7, [pc, #+1636] ; 0x130
005BA850  5DF0     		ldrb r0, [r6, +r7]

005BA852  2800     		cmp r0, #0
005BA854  D01C     		beq #56 ; 0x005BA890


005BA858  F8DF 06B0		ldr r0, [pc, #+1712] ; 0x5BA0C0

005BA85C  F8DF 7698		ldr r7, [pc, #+1688] ; 0x164
005BA860  51F0     		str r0, [r6, +r7]

005BA862  F8DF 06B4		ldr r0, [pc, #+1716] ; 0x5BA468

005BA866  F8DF 7694		ldr r7, [pc, #+1684] ; 0x168
005BA86A  51F0     		str r0, [r6, +r7]

005BA86C  2001     		mov r0, #1 ; 1

005BA86E  F8DF 768C		ldr r7, [pc, #+1676] ; 0x168
005BA872  59F3     		ldr r3, [r6, +r7]
005BA874  F8DF 7680		ldr r7, [pc, #+1664] ; 0x164
005BA878  59F2     		ldr r2, [r6, +r7]
005BA87A  F04F 4180		mov r1, #1073741824 ; 1073741824
005BA87E  4600     		mov r0, r0
005BA880  F8DF 467C		ldr r4, [pc, #+1660] ; 0x48FE35
005BA884  F044 0401		orr r4, r4, #1
005BA888  47A0     		blx r4

005BA88A  F8DF 7620		ldr r7, [pc, #+1568] ; 0x12A
005BA88E  53F0     		strh r0, [r6, +r7]

005BA890  F8DF 7688		ldr r7, [pc, #+1672] ; 0x5BA478
005BA894  6838     		ldr r0, [r7]

005BA896  4600     		mov r0, r0
005BA898  F8DF 466C		ldr r4, [pc, #+1644] ; 0x490561
005BA89C  F044 0401		orr r4, r4, #1
005BA8A0  47A0     		blx r4

005BA8A2  F8DF 7608		ldr r7, [pc, #+1544] ; 0x12A
005BA8A6  53F0     		strh r0, [r6, +r7]

005BA8A8  2001     		mov r0, #1 ; 1
005BA8AA  F8DF 7638		ldr r7, [pc, #+1592] ; 0x152
005BA8AE  55F0     		strb r0, [r6, +r7]

005BA8B0  F002 BB06		b #9740 ; 0x005BCEC0


005BA8B4  2001     		mov r0, #1 ; 1

005BA8B6  2800     		cmp r0, #0
005BA8B8  F002 8302		beq #9732 ; 0x005BCEC0


005BA8BC  F8DF 75C0		ldr r7, [pc, #+1472] ; 0x1
005BA8C0  5DF0     		ldrb r0, [r6, +r7]

005BA8C2  2800     		cmp r0, #0
005BA8C4  BF18 2000		nemov r0, #0
005BA8C8  BF08 2001		eqmov r0, #1

005BA8CC  2800     		cmp r0, #0
005BA8CE  F040 8146		bne #652 ; 0x005BAB5E


005BA8D2  F8DF 75AC		ldr r7, [pc, #+1452] ; 0x1
005BA8D6  5DF0     		ldrb r0, [r6, +r7]

005BA8D8  280A     		cmp r0, #10
005BA8DA  BF18 2000		nemov r0, #0
005BA8DE  BF08 2001		eqmov r0, #1

005BA8E2  2800     		cmp r0, #0
005BA8E4  F040 822C		bne #1112 ; 0x005BAD40


005BA8E8  F8DF 7594		ldr r7, [pc, #+1428] ; 0x1
005BA8EC  5DF0     		ldrb r0, [r6, +r7]

005BA8EE  280B     		cmp r0, #11
005BA8F0  BF18 2000		nemov r0, #0
005BA8F4  BF08 2001		eqmov r0, #1

005BA8F8  2800     		cmp r0, #0
005BA8FA  F040 826D		bne #1242 ; 0x005BADD8


005BA8FE  F8DF 7580		ldr r7, [pc, #+1408] ; 0x1
005BA902  5DF0     		ldrb r0, [r6, +r7]

005BA904  2832     		cmp r0, #50
005BA906  BF18 2000		nemov r0, #0
005BA90A  BF08 2001		eqmov r0, #1

005BA90E  2800     		cmp r0, #0
005BA910  F040 8322		bne #1604 ; 0x005BAF58


005BA914  F8DF 7568		ldr r7, [pc, #+1384] ; 0x1
005BA918  5DF0     		ldrb r0, [r6, +r7]

005BA91A  2833     		cmp r0, #51
005BA91C  BF18 2000		nemov r0, #0
005BA920  BF08 2001		eqmov r0, #1

005BA924  2800     		cmp r0, #0
005BA926  F040 835A		bne #1716 ; 0x005BAFDE


005BA92A  F8DF 7554		ldr r7, [pc, #+1364] ; 0x1
005BA92E  5DF0     		ldrb r0, [r6, +r7]

005BA930  283C     		cmp r0, #60
005BA932  BF18 2000		nemov r0, #0
005BA936  BF08 2001		eqmov r0, #1

005BA93A  2800     		cmp r0, #0
005BA93C  F040 83AC		bne #1880 ; 0x005BB098


005BA940  F8DF 753C		ldr r7, [pc, #+1340] ; 0x1
005BA944  5DF0     		ldrb r0, [r6, +r7]

005BA946  283D     		cmp r0, #61
005BA948  BF18 2000		nemov r0, #0
005BA94C  BF08 2001		eqmov r0, #1

005BA950  2800     		cmp r0, #0
005BA952  F040 83D5		bne #1962 ; 0x005BB100


005BA956  F8DF 7528		ldr r7, [pc, #+1320] ; 0x1
005BA95A  5DF0     		ldrb r0, [r6, +r7]

005BA95C  2846     		cmp r0, #70
005BA95E  BF18 2000		nemov r0, #0
005BA962  BF08 2001		eqmov r0, #1

005BA966  2800     		cmp r0, #0
005BA968  F040 8448		bne #2192 ; 0x005BB1FC


005BA96C  F8DF 7510		ldr r7, [pc, #+1296] ; 0x1
005BA970  5DF0     		ldrb r0, [r6, +r7]

005BA972  2847     		cmp r0, #71
005BA974  BF18 2000		nemov r0, #0
005BA978  BF08 2001		eqmov r0, #1

005BA97C  2800     		cmp r0, #0
005BA97E  F040 8469		bne #2258 ; 0x005BB254


005BA982  F8DF 74FC		ldr r7, [pc, #+1276] ; 0x1
005BA986  5DF0     		ldrb r0, [r6, +r7]

005BA988  2864     		cmp r0, #100
005BA98A  BF18 2000		nemov r0, #0
005BA98E  BF08 2001		eqmov r0, #1

005BA992  2800     		cmp r0, #0
005BA994  F040 84BD		bne #2426 ; 0x005BB312


005BA998  F8DF 74E4		ldr r7, [pc, #+1252] ; 0x1
005BA99C  5DF0     		ldrb r0, [r6, +r7]

005BA99E  2865     		cmp r0, #101
005BA9A0  BF18 2000		nemov r0, #0
005BA9A4  BF08 2001		eqmov r0, #1

005BA9A8  2800     		cmp r0, #0
005BA9AA  F040 8577		bne #2798 ; 0x005BB49C


005BA9AE  F8DF 74D0		ldr r7, [pc, #+1232] ; 0x1
005BA9B2  5DF0     		ldrb r0, [r6, +r7]

005BA9B4  286E     		cmp r0, #110
005BA9B6  BF18 2000		nemov r0, #0
005BA9BA  BF08 2001		eqmov r0, #1

005BA9BE  2800     		cmp r0, #0
005BA9C0  F040 85B1		bne #2914 ; 0x005BB526


005BA9C4  F8DF 74B8		ldr r7, [pc, #+1208] ; 0x1
005BA9C8  5DF0     		ldrb r0, [r6, +r7]

005BA9CA  286F     		cmp r0, #111
005BA9CC  BF18 2000		nemov r0, #0
005BA9D0  BF08 2001		eqmov r0, #1

005BA9D4  2800     		cmp r0, #0
005BA9D6  F040 8642		bne #3204 ; 0x005BB65E


005BA9DA  F8DF 74A4		ldr r7, [pc, #+1188] ; 0x1
005BA9DE  5DF0     		ldrb r0, [r6, +r7]

005BA9E0  2878     		cmp r0, #120
005BA9E2  BF18 2000		nemov r0, #0
005BA9E6  BF08 2001		eqmov r0, #1

005BA9EA  2800     		cmp r0, #0
005BA9EC  F040 867C		bne #3320 ; 0x005BB6E8


005BA9F0  F8DF 748C		ldr r7, [pc, #+1164] ; 0x1
005BA9F4  5DF0     		ldrb r0, [r6, +r7]

005BA9F6  2879     		cmp r0, #121
005BA9F8  BF18 2000		nemov r0, #0
005BA9FC  BF08 2001		eqmov r0, #1

005BAA00  2800     		cmp r0, #0
005BAA02  F040 86B7		bne #3438 ; 0x005BB774


005BAA06  F8DF 7478		ldr r7, [pc, #+1144] ; 0x1
005BAA0A  5DF0     		ldrb r0, [r6, +r7]

005BAA0C  2882     		cmp r0, #130
005BAA0E  BF18 2000		nemov r0, #0
005BAA12  BF08 2001		eqmov r0, #1

005BAA16  2800     		cmp r0, #0
005BAA18  F040 8701		bne #3586 ; 0x005BB81E


005BAA1C  F8DF 7460		ldr r7, [pc, #+1120] ; 0x1
005BAA20  5DF0     		ldrb r0, [r6, +r7]

005BAA22  2883     		cmp r0, #131
005BAA24  BF18 2000		nemov r0, #0
005BAA28  BF08 2001		eqmov r0, #1

005BAA2C  2800     		cmp r0, #0
005BAA2E  F040 876A		bne #3796 ; 0x005BB906


005BAA32  F8DF 744C		ldr r7, [pc, #+1100] ; 0x1
005BAA36  5DF0     		ldrb r0, [r6, +r7]

005BAA38  28C3     		cmp r0, #195
005BAA3A  BF18 2000		nemov r0, #0
005BAA3E  BF08 2001		eqmov r0, #1

005BAA42  B082     		sub sp, sp, #8
005BAA44  F8CD 0000		str r0, [sp]
005BAA48  F8DF 7434		ldr r7, [pc, #+1076] ; 0x1
005BAA4C  5DF0     		ldrb r0, [r6, +r7]

005BAA4E  28BE     		cmp r0, #190
005BAA50  BF18 2000		nemov r0, #0
005BAA54  BF08 2001		eqmov r0, #1

005BAA58  4607     		mov r7, r0
005BAA5A  F8DD 0000		ldr r0, [sp]
005BAA5E  B002     		add sp, sp, #8
005BAA60  4338     		orr r0, r0, r7

005BAA62  2800     		cmp r0, #0
005BAA64  F040 878D		bne #3866 ; 0x005BB982


005BAA68  F8DF 7414		ldr r7, [pc, #+1044] ; 0x1
005BAA6C  5DF0     		ldrb r0, [r6, +r7]

005BAA6E  28BF     		cmp r0, #191
005BAA70  BF18 2000		nemov r0, #0
005BAA74  BF08 2001		eqmov r0, #1

005BAA78  2800     		cmp r0, #0
005BAA7A  F040 87AC		bne #3928 ; 0x005BB9D6


005BAA7E  F8DF 7400		ldr r7, [pc, #+1024] ; 0x1
005BAA82  5DF0     		ldrb r0, [r6, +r7]

005BAA84  28C4     		cmp r0, #196
005BAA86  BF18 2000		nemov r0, #0
005BAA8A  BF08 2001		eqmov r0, #1

005BAA8E  2800     		cmp r0, #0
005BAA90  F040 87D0		bne #4000 ; 0x005BBA34


005BAA94  F8DF 73E8		ldr r7, [pc, #+1000] ; 0x1
005BAA98  5DF0     		ldrb r0, [r6, +r7]

005BAA9A  28C8     		cmp r0, #200
005BAA9C  BF18 2000		nemov r0, #0
005BAAA0  BF08 2001		eqmov r0, #1

005BAAA4  2800     		cmp r0, #0
005BAAA6  F040 87F4		bne #4072 ; 0x005BBA92


005BAAAA  F8DF 73D4		ldr r7, [pc, #+980] ; 0x1
005BAAAE  5DF0     		ldrb r0, [r6, +r7]

005BAAB0  28C9     		cmp r0, #201
005BAAB2  BF18 2000		nemov r0, #0
005BAAB6  BF08 2001		eqmov r0, #1

005BAABA  2800     		cmp r0, #0
005BAABC  F041 8118		bne #4656 ; 0x005BBCF0


005BAAC0  F8DF 73BC		ldr r7, [pc, #+956] ; 0x1
005BAAC4  5DF0     		ldrb r0, [r6, +r7]

005BAAC6  28CA     		cmp r0, #202
005BAAC8  BF18 2000		nemov r0, #0
005BAACC  BF08 2001		eqmov r0, #1

005BAAD0  2800     		cmp r0, #0
005BAAD2  F041 83B8		bne #6000 ; 0x005BC246


005BAAD6  F8DF 73A8		ldr r7, [pc, #+936] ; 0x1
005BAADA  5DF0     		ldrb r0, [r6, +r7]

005BAADC  28D2     		cmp r0, #210
005BAADE  BF18 2000		nemov r0, #0
005BAAE2  BF08 2001		eqmov r0, #1

005BAAE6  2800     		cmp r0, #0
005BAAE8  F041 83E1		bne #6082 ; 0x005BC2AE


005BAAEC  F8DF 7390		ldr r7, [pc, #+912] ; 0x1
005BAAF0  5DF0     		ldrb r0, [r6, +r7]

005BAAF2  28D3     		cmp r0, #211
005BAAF4  BF18 2000		nemov r0, #0
005BAAF8  BF08 2001		eqmov r0, #1

005BAAFC  2800     		cmp r0, #0
005BAAFE  F041 843A		bne #6260 ; 0x005BC376


005BAB02  F8DF 737C		ldr r7, [pc, #+892] ; 0x1
005BAB06  5DF0     		ldrb r0, [r6, +r7]

005BAB08  28D4     		cmp r0, #212
005BAB0A  BF18 2000		nemov r0, #0
005BAB0E  BF08 2001		eqmov r0, #1

005BAB12  2800     		cmp r0, #0
005BAB14  F041 85DF		bne #7102 ; 0x005BC6D6


005BAB18  F8DF 7364		ldr r7, [pc, #+868] ; 0x1
005BAB1C  5DF0     		ldrb r0, [r6, +r7]

005BAB1E  28F0     		cmp r0, #240
005BAB20  BF18 2000		nemov r0, #0
005BAB24  BF08 2001		eqmov r0, #1

005BAB28  2800     		cmp r0, #0
005BAB2A  F042 8113		bne #8742 ; 0x005BCD54


005BAB2E  F8DF 7350		ldr r7, [pc, #+848] ; 0x1
005BAB32  5DF0     		ldrb r0, [r6, +r7]

005BAB34  28FA     		cmp r0, #250
005BAB36  BF18 2000		nemov r0, #0
005BAB3A  BF08 2001		eqmov r0, #1

005BAB3E  2800     		cmp r0, #0
005BAB40  F042 813E		bne #8828 ; 0x005BCDC0


005BAB44  F8DF 7338		ldr r7, [pc, #+824] ; 0x1
005BAB48  5DF0     		ldrb r0, [r6, +r7]

005BAB4A  28FB     		cmp r0, #251
005BAB4C  BF18 2000		nemov r0, #0
005BAB50  BF08 2001		eqmov r0, #1

005BAB54  2800     		cmp r0, #0
005BAB56  F042 8169		bne #8914 ; 0x005BCE2C


005BAB5A  F002 B99D		b #9018 ; 0x005BCE98


005BAB5E  F8DF 7368		ldr r7, [pc, #+872] ; 0x13C
005BAB62  5BF0     		ldrh r0, [r6, +r7]

005BAB64  1E40     		sub r0, r0, #1

005BAB66  F8DF 7344		ldr r7, [pc, #+836] ; 0x12A
005BAB6A  53F0     		strh r0, [r6, +r7]

005BAB6C  F8DF 7360		ldr r7, [pc, #+864] ; 0x144
005BAB70  59F0     		ldr r0, [r6, +r7]
005BAB72  F8DF 7328		ldr r7, [pc, #+808] ; 0x118
005BAB76  51F0     		str r0, [r6, +r7]

005BAB78  F8DF 7344		ldr r7, [pc, #+836] ; 0x139
005BAB7C  5DF0     		ldrb r0, [r6, +r7]
005BAB7E  F8DF 7304		ldr r7, [pc, #+772] ; 0x3
005BAB82  55F0     		strb r0, [r6, +r7]

005BAB84  F8DF 733C		ldr r7, [pc, #+828] ; 0x13A
005BAB88  5DF0     		ldrb r0, [r6, +r7]
005BAB8A  F8DF 72FC		ldr r7, [pc, #+764] ; 0x4
005BAB8E  55F0     		strb r0, [r6, +r7]

005BAB90  F8DF 7318		ldr r7, [pc, #+792] ; 0x12A
005BAB94  5BF0     		ldrh r0, [r6, +r7]

005BAB96  B082     		sub sp, sp, #8
005BAB98  F8CD 1000		str r1, [sp]
005BAB9C  F44F 7180		mov r1, #256 ; 256
005BABA0  FBB0 F0F1		udiv r0, r0, r1
005BABA4  F8DD 1000		ldr r1, [sp]
005BABA8  B002     		add sp, sp, #8

005BABAA  F8DF 72E0		ldr r7, [pc, #+736] ; 0x5
005BABAE  55F0     		strb r0, [r6, +r7]

005BABB0  F8DF 72F8		ldr r7, [pc, #+760] ; 0x12A
005BABB4  5BF0     		ldrh r0, [r6, +r7]

005BABB6  27FF     		mov r7, #255 ; 255
005BABB8  4038     		and r0, r0, r7

005BABBA  F8DF 72D4		ldr r7, [pc, #+724] ; 0x6
005BABBE  55F0     		strb r0, [r6, +r7]

005BABC0  F8DF 7300		ldr r7, [pc, #+768] ; 0x13A
005BABC4  5DF0     		ldrb r0, [r6, +r7]

005BABC6  2801     		cmp r0, #1
005BABC8  BF18 2000		nemov r0, #0
005BABCC  BF08 2001		eqmov r0, #1

005BABD0  2800     		cmp r0, #0
005BABD2  D165     		bne #202 ; 0x005BACA0


005BABD6  F8DF 72EC		ldr r7, [pc, #+748] ; 0x13A
005BABDA  5DF0     		ldrb r0, [r6, +r7]

005BABDC  2802     		cmp r0, #2
005BABDE  BF18 2000		nemov r0, #0
005BABE2  BF08 2001		eqmov r0, #1

005BABE6  2800     		cmp r0, #0
005BABE8  D160     		bne #192 ; 0x005BACAC


005BABEC  F8DF 72D4		ldr r7, [pc, #+724] ; 0x13A
005BABF0  5DF0     		ldrb r0, [r6, +r7]

005BABF2  2803     		cmp r0, #3
005BABF4  BF18 2000		nemov r0, #0
005BABF8  BF08 2001		eqmov r0, #1

005BABFC  2800     		cmp r0, #0
005BABFE  D15B     		bne #182 ; 0x005BACB8


005BAC02  F8DF 72C0		ldr r7, [pc, #+704] ; 0x13A
005BAC06  5DF0     		ldrb r0, [r6, +r7]

005BAC08  2804     		cmp r0, #4
005BAC0A  BF18 2000		nemov r0, #0
005BAC0E  BF08 2001		eqmov r0, #1

005BAC12  2800     		cmp r0, #0
005BAC14  D156     		bne #172 ; 0x005BACC4


005BAC18  F8DF 72A8		ldr r7, [pc, #+680] ; 0x13A
005BAC1C  5DF0     		ldrb r0, [r6, +r7]

005BAC1E  2805     		cmp r0, #5
005BAC20  BF18 2000		nemov r0, #0
005BAC24  BF08 2001		eqmov r0, #1

005BAC28  2800     		cmp r0, #0
005BAC2A  D151     		bne #162 ; 0x005BACD0


005BAC2E  F8DF 7294		ldr r7, [pc, #+660] ; 0x13A
005BAC32  5DF0     		ldrb r0, [r6, +r7]

005BAC34  2806     		cmp r0, #6
005BAC36  BF18 2000		nemov r0, #0
005BAC3A  BF08 2001		eqmov r0, #1

005BAC3E  2800     		cmp r0, #0
005BAC40  D14C     		bne #152 ; 0x005BACDC


005BAC44  F8DF 727C		ldr r7, [pc, #+636] ; 0x13A
005BAC48  5DF0     		ldrb r0, [r6, +r7]

005BAC4A  280F     		cmp r0, #15
005BAC4C  BF18 2000		nemov r0, #0
005BAC50  BF08 2001		eqmov r0, #1

005BAC54  2800     		cmp r0, #0
005BAC56  D147     		bne #142 ; 0x005BACE8


005BAC5A  F8DF 7268		ldr r7, [pc, #+616] ; 0x13A
005BAC5E  5DF0     		ldrb r0, [r6, +r7]

005BAC60  2810     		cmp r0, #16
005BAC62  BF18 2000		nemov r0, #0
005BAC66  BF08 2001		eqmov r0, #1

005BAC6A  2800     		cmp r0, #0
005BAC6C  D142     		bne #132 ; 0x005BACF4


005BAC70  F8DF 7250		ldr r7, [pc, #+592] ; 0x13A
005BAC74  5DF0     		ldrb r0, [r6, +r7]

005BAC76  2841     		cmp r0, #65
005BAC78  BF18 2000		nemov r0, #0
005BAC7C  BF08 2001		eqmov r0, #1

005BAC80  2800     		cmp r0, #0
005BAC82  D13D     		bne #122 ; 0x005BAD00


005BAC86  F8DF 723C		ldr r7, [pc, #+572] ; 0x13A
005BAC8A  5DF0     		ldrb r0, [r6, +r7]

005BAC8C  2842     		cmp r0, #66
005BAC8E  BF18 2000		nemov r0, #0
005BAC92  BF08 2001		eqmov r0, #1

005BAC96  2800     		cmp r0, #0
005BAC98  D138     		bne #112 ; 0x005BAD0C


005BAC9C  E03C     		b #120 ; 0x005BAD18


005BACA0  200A     		mov r0, #10 ; 10
005BACA2  F8DF 71DC		ldr r7, [pc, #+476] ; 0x1
005BACA6  55F0     		strb r0, [r6, +r7]

005BACA8  E048     		b #144 ; 0x005BAD3C


005BACAC  200A     		mov r0, #10 ; 10
005BACAE  F8DF 71D0		ldr r7, [pc, #+464] ; 0x1
005BACB2  55F0     		strb r0, [r6, +r7]

005BACB4  E042     		b #132 ; 0x005BAD3C


005BACB8  2032     		mov r0, #50 ; 50
005BACBA  F8DF 71C4		ldr r7, [pc, #+452] ; 0x1
005BACBE  55F0     		strb r0, [r6, +r7]

005BACC0  E03C     		b #120 ; 0x005BAD3C


005BACC4  2032     		mov r0, #50 ; 50
005BACC6  F8DF 71B8		ldr r7, [pc, #+440] ; 0x1
005BACCA  55F0     		strb r0, [r6, +r7]

005BACCC  E036     		b #108 ; 0x005BAD3C


005BACD0  203C     		mov r0, #60 ; 60
005BACD2  F8DF 71AC		ldr r7, [pc, #+428] ; 0x1
005BACD6  55F0     		strb r0, [r6, +r7]

005BACD8  E030     		b #96 ; 0x005BAD3C


005BACDC  2046     		mov r0, #70 ; 70
005BACDE  F8DF 71A0		ldr r7, [pc, #+416] ; 0x1
005BACE2  55F0     		strb r0, [r6, +r7]

005BACE4  E02A     		b #84 ; 0x005BAD3C


005BACE8  2064     		mov r0, #100 ; 100
005BACEA  F8DF 7194		ldr r7, [pc, #+404] ; 0x1
005BACEE  55F0     		strb r0, [r6, +r7]

005BACF0  E024     		b #72 ; 0x005BAD3C


005BACF4  206E     		mov r0, #110 ; 110
005BACF6  F8DF 7188		ldr r7, [pc, #+392] ; 0x1
005BACFA  55F0     		strb r0, [r6, +r7]

005BACFC  E01E     		b #60 ; 0x005BAD3C


005BAD00  2078     		mov r0, #120 ; 120
005BAD02  F8DF 717C		ldr r7, [pc, #+380] ; 0x1
005BAD06  55F0     		strb r0, [r6, +r7]

005BAD08  E018     		b #48 ; 0x005BAD3C


005BAD0C  2082     		mov r0, #130 ; 130
005BAD0E  F8DF 7170		ldr r7, [pc, #+368] ; 0x1
005BAD12  55F0     		strb r0, [r6, +r7]

005BAD14  E012     		b #36 ; 0x005BAD3C


005BAD18  F8DF 7204		ldr r7, [pc, #+516] ; 0x5BA47C
005BAD1C  6838     		ldr r0, [r7]

005BAD1E  4600     		mov r0, r0
005BAD20  F8DF 41E4		ldr r4, [pc, #+484] ; 0x490561
005BAD24  F044 0401		orr r4, r4, #1
005BAD28  47A0     		blx r4

005BAD2A  F8DF 7180		ldr r7, [pc, #+384] ; 0x12A
005BAD2E  53F0     		strh r0, [r6, +r7]

005BAD30  20C3     		mov r0, #195 ; 195
005BAD32  F8DF 714C		ldr r7, [pc, #+332] ; 0x1
005BAD36  55F0     		strb r0, [r6, +r7]

005BAD38  F002 B8C2		b #8580 ; 0x005BCEC0


005BAD3C  F002 B8BE		b #8572 ; 0x005BCEBC


005BAD40  F8DF 7188		ldr r7, [pc, #+392] ; 0x140
005BAD44  59F0     		ldr r0, [r6, +r7]

005BAD46  28FA     		cmp r0, #250
005BAD48  BF98 2000		lsmov r0, #0
005BAD4C  BF88 2001		himov r0, #1

005BAD50  B082     		sub sp, sp, #8
005BAD52  F8CD 0000		str r0, [sp]
005BAD56  F8DF 7174		ldr r7, [pc, #+372] ; 0x140
005BAD5A  59F0     		ldr r0, [r6, +r7]

005BAD5C  2800     		cmp r0, #0
005BAD5E  BF18 2000		nemov r0, #0
005BAD62  BF08 2001		eqmov r0, #1

005BAD66  4607     		mov r7, r0
005BAD68  F8DD 0000		ldr r0, [sp]
005BAD6C  B002     		add sp, sp, #8
005BAD6E  4338     		orr r0, r0, r7

005BAD70  2800     		cmp r0, #0
005BAD72  D006     		beq #12 ; 0x005BAD82


005BAD76  20F0     		mov r0, #240 ; 240
005BAD78  F8DF 7104		ldr r7, [pc, #+260] ; 0x1
005BAD7C  55F0     		strb r0, [r6, +r7]

005BAD7E  F002 B89F		b #8510 ; 0x005BCEC0


005BAD82  2000     		mov r0, #0 ; 0
005BAD84  F8DF 710C		ldr r7, [pc, #+268] ; 0x7
005BAD88  55F0     		strb r0, [r6, +r7]

005BAD8A  F8DF 7140		ldr r7, [pc, #+320] ; 0x140
005BAD8E  59F0     		ldr r0, [r6, +r7]

005BAD90  F8DF 7104		ldr r7, [pc, #+260] ; 0x8
005BAD94  55F0     		strb r0, [r6, +r7]

005BAD96  2006     		mov r0, #6 ; 6
005BAD98  F8DF 710C		ldr r7, [pc, #+268] ; 0x128
005BAD9C  55F0     		strb r0, [r6, +r7]

005BAD9E  F8DF 712C		ldr r7, [pc, #+300] ; 0x140
005BADA2  59F0     		ldr r0, [r6, +r7]

005BADA4  1E40     		sub r0, r0, #1

005BADA6  B082     		sub sp, sp, #8
005BADA8  F8CD 1000		str r1, [sp]
005BADAC  2108     		mov r1, #8 ; 8
005BADAE  FBB0 F0F1		udiv r0, r0, r1
005BADB2  F8DD 1000		ldr r1, [sp]
005BADB6  B002     		add sp, sp, #8

005BADB8  1C40     		add r0, r0, #1

005BADBA  1CC0     		add r0, r0, #3

005BADBC  F8DF 70E0		ldr r7, [pc, #+224] ; 0x11C
005BADC0  55F0     		strb r0, [r6, +r7]

005BADC2  F8DF 70BC		ldr r7, [pc, #+188] ; 0x1
005BADC6  5DF0     		ldrb r0, [r6, +r7]

005BADC8  1C40     		add r0, r0, #1

005BADCA  7030     		strb r0, [r6]

005BADCC  20C8     		mov r0, #200 ; 200
005BADCE  F8DF 70B0		ldr r7, [pc, #+176] ; 0x1
005BADD2  55F0     		strb r0, [r6, +r7]

005BADD4  F002 B872		b #8420 ; 0x005BCEBC


005BADD8  2003     		mov r0, #3 ; 3

005BADDA  F8DF 70CC		ldr r7, [pc, #+204] ; 0x128
005BADDE  55F0     		strb r0, [r6, +r7]

005BADE0  F8DF 70C4		ldr r7, [pc, #+196] ; 0x128
005BADE4  5DF0     		ldrb r0, [r6, +r7]

005BADE6  B082     		sub sp, sp, #8
005BADE8  F8CD 0000		str r0, [sp]
005BADEC  F8DF 70B0		ldr r7, [pc, #+176] ; 0x11C
005BADF0  5DF0     		ldrb r0, [r6, +r7]

005BADF2  1E40     		sub r0, r0, #1

005BADF4  4607     		mov r7, r0
005BADF6  F8DD 0000		ldr r0, [sp]
005BADFA  B002     		add sp, sp, #8
005BADFC  42B8     		cmp r0, r7
005BADFE  BFD8 2000		lemov r0, #0
005BAE02  BFC8 2001		gtmov r0, #1

005BAE06  2800     		cmp r0, #0
005BAE08  F040 809C		bne #312 ; 0x005BAF44


005BAE0C  2000     		mov r0, #0 ; 0

005BAE0E  F8DF 709C		ldr r7, [pc, #+156] ; 0x12A
005BAE12  53F0     		strh r0, [r6, +r7]

005BAE14  F8DF 7094		ldr r7, [pc, #+148] ; 0x12A
005BAE18  5BF0     		ldrh r0, [r6, +r7]

005BAE1A  2807     		cmp r0, #7
005BAE1C  BFD8 2000		lemov r0, #0
005BAE20  BFC8 2001		gtmov r0, #1

005BAE24  2800     		cmp r0, #0
005BAE26  F040 8085		bne #266 ; 0x005BAF34


005BAE2A  F8DF 707C		ldr r7, [pc, #+124] ; 0x128
005BAE2E  5DF5     		ldrb r5, [r6, +r7]
005BAE30  F8DF 7050		ldr r7, [pc, #+80] ; 0x3
005BAE34  EB07 0705		add r7, r7, r5, lsl #0
005BAE38  5DF0     		ldrb r0, [r6, +r7]

005BAE3A  2701     		mov r7, #1 ; 1
005BAE3C  4038     		and r0, r0, r7

005BAE3E  F8DF 705C		ldr r7, [pc, #+92] ; 0x118
005BAE42  F856 C007		ldr r12, [r6, +r7]
005BAE46  F88C 0000		strb r0, [r12]

005BAE4A  F8DF 7050		ldr r7, [pc, #+80] ; 0x118
005BAE4E  59F0     		ldr r0, [r6, +r7]

005BAE50  1C40     		add r0, r0, #1

005BAE52  F8DF 7048		ldr r7, [pc, #+72] ; 0x118
005BAE56  51F0     		str r0, [r6, +r7]

005BAE58  F8DF 704C		ldr r7, [pc, #+76] ; 0x128
005BAE5C  5DF5     		ldrb r5, [r6, +r7]
005BAE5E  F8DF 7024		ldr r7, [pc, #+36] ; 0x3
005BAE62  EB07 0705		add r7, r7, r5, lsl #0
005BAE66  5DF0     		ldrb r0, [r6, +r7]

005BAE68  0840     		lsr r0, r0, #1
005BAE6A  F000 00FF		and r0, r0, #0xFF

005BAE6E  F8DF 7038		ldr r7, [pc, #+56] ; 0x128
005BAE72  5DF5     		ldrb r5, [r6, +r7]
005BAE74  F8DF 700C		ldr r7, [pc, #+12] ; 0x3
005BAE78  EB07 0705		add r7, r7, r5, lsl #0
005BAE7C  55F0     		strb r0, [r6, +r7]

005BAE7E  E051     		b #162

005BAE80  00000001		; 0x00000001
005BAE84  00000003		; 0x00000003
005BAE88  00000004		; 0x00000004
005BAE8C  00000005		; 0x00000005
005BAE90  00000006		; 0x00000006
005BAE94  00000007		; 0x00000007
005BAE98  00000008		; 0x00000008
005BAE9C  00000118		; 0x00000118
005BAEA0  0000011C		; 0x0000011C
005BAEA4  00000120		; 0x00000120
005BAEA8  00000128		; 0x00000128
005BAEAC  0000012A		; 0x0000012A
005BAEB0  0000012F		; 0x0000012F
005BAEB4  00000130		; 0x00000130
005BAEB8  00000134		; 0x00000134
005BAEBC  00000138		; 0x00000138
005BAEC0  00000139		; 0x00000139
005BAEC4  0000013A		; 0x0000013A
005BAEC8  0000013C		; 0x0000013C
005BAECC  00000140		; 0x00000140
005BAED0  00000144		; 0x00000144
005BAED4  0000014C		; 0x0000014C
005BAED8  0000014E		; 0x0000014E
005BAEDC  00000150		; 0x00000150
005BAEE0  00000151		; 0x00000151
005BAEE4  00000152		; 0x00000152
005BAEE8  00000154		; 0x00000154
005BAEEC  00000158		; 0x00000158
005BAEF0  0000015C		; 0x0000015C
005BAEF4  00000160		; 0x00000160
005BAEF8  00000164		; 0x00000164
005BAEFC  00000168		; 0x00000168
005BAF00  0048FE35		; 0x0048FE35
005BAF04  00490519		; 0x00490519
005BAF08  00490561		; 0x00490561
005BAF0C  005BA0C0		; 0x005BA0C0
005BAF10  005BA460		; 0x005BA460
005BAF14  005BA464		; 0x005BA464
005BAF18  005BA468		; 0x005BA468
005BAF1C  005BA478		; 0x005BA478
005BAF20  005BA47C		; 0x005BA47C

005BAF24  F85F 707C		ldr r7, [pc, #-124] ; 0x12A
005BAF28  5BF0     		ldrh r0, [r6, +r7]

005BAF2A  1C40     		add r0, r0, #1

005BAF2C  F85F 7084		ldr r7, [pc, #-132] ; 0x12A
005BAF30  53F0     		strh r0, [r6, +r7]

005BAF32  E76F     		b #-290 ; 0x005BAE14

005BAF34  F85F 7090		ldr r7, [pc, #-144] ; 0x128
005BAF38  5DF0     		ldrb r0, [r6, +r7]

005BAF3A  1C40     		add r0, r0, #1

005BAF3C  F85F 7098		ldr r7, [pc, #-152] ; 0x128
005BAF40  55F0     		strb r0, [r6, +r7]

005BAF42  E74D     		b #-358 ; 0x005BADE0

005BAF44  2001     		mov r0, #1 ; 1
005BAF46  F85F 7068		ldr r7, [pc, #-104] ; 0x151
005BAF4A  55F0     		strb r0, [r6, +r7]

005BAF4C  20BE     		mov r0, #190 ; 190
005BAF4E  F85F 70D0		ldr r7, [pc, #-208] ; 0x1
005BAF52  55F0     		strb r0, [r6, +r7]

005BAF54  F001 BFB2		b #8036 ; 0x005BCEBC


005BAF58  F85F 7090		ldr r7, [pc, #-144] ; 0x140
005BAF5C  59F0     		ldr r0, [r6, +r7]

005BAF5E  287D     		cmp r0, #125
005BAF60  BF98 2000		lsmov r0, #0
005BAF64  BF88 2001		himov r0, #1

005BAF68  B082     		sub sp, sp, #8
005BAF6A  F8CD 0000		str r0, [sp]
005BAF6E  F85F 70A4		ldr r7, [pc, #-164] ; 0x140
005BAF72  59F0     		ldr r0, [r6, +r7]

005BAF74  2800     		cmp r0, #0
005BAF76  BF18 2000		nemov r0, #0
005BAF7A  BF08 2001		eqmov r0, #1

005BAF7E  4607     		mov r7, r0
005BAF80  F8DD 0000		ldr r0, [sp]
005BAF84  B002     		add sp, sp, #8
005BAF86  4338     		orr r0, r0, r7

005BAF88  2800     		cmp r0, #0
005BAF8A  D006     		beq #12 ; 0x005BAF9A


005BAF8E  20F0     		mov r0, #240 ; 240
005BAF90  F85F 7114		ldr r7, [pc, #-276] ; 0x1
005BAF94  55F0     		strb r0, [r6, +r7]

005BAF96  F001 BF93		b #7974 ; 0x005BCEC0


005BAF9A  2000     		mov r0, #0 ; 0
005BAF9C  F85F 710C		ldr r7, [pc, #-268] ; 0x7
005BAFA0  55F0     		strb r0, [r6, +r7]

005BAFA2  F85F 70D8		ldr r7, [pc, #-216] ; 0x140
005BAFA6  59F0     		ldr r0, [r6, +r7]

005BAFA8  F85F 7114		ldr r7, [pc, #-276] ; 0x8
005BAFAC  55F0     		strb r0, [r6, +r7]

005BAFAE  2006     		mov r0, #6 ; 6
005BAFB0  F85F 710C		ldr r7, [pc, #-268] ; 0x128
005BAFB4  55F0     		strb r0, [r6, +r7]

005BAFB6  F85F 70EC		ldr r7, [pc, #-236] ; 0x140
005BAFBA  59F0     		ldr r0, [r6, +r7]

005BAFBC  2702     		mov r7, #2 ; 2
005BAFBE  4378     		mul r0, r0, r7

005BAFC0  1CC0     		add r0, r0, #3

005BAFC2  F85F 7124		ldr r7, [pc, #-292] ; 0x11C
005BAFC6  55F0     		strb r0, [r6, +r7]

005BAFC8  F85F 714C		ldr r7, [pc, #-332] ; 0x1
005BAFCC  5DF0     		ldrb r0, [r6, +r7]

005BAFCE  1C40     		add r0, r0, #1

005BAFD0  7030     		strb r0, [r6]

005BAFD2  20C8     		mov r0, #200 ; 200
005BAFD4  F85F 7158		ldr r7, [pc, #-344] ; 0x1
005BAFD8  55F0     		strb r0, [r6, +r7]

005BAFDA  F001 BF6F		b #7902 ; 0x005BCEBC


005BAFDE  2003     		mov r0, #3 ; 3

005BAFE0  F85F 713C		ldr r7, [pc, #-316] ; 0x128
005BAFE4  55F0     		strb r0, [r6, +r7]

005BAFE6  F85F 7140		ldr r7, [pc, #-320] ; 0x128
005BAFEA  5DF0     		ldrb r0, [r6, +r7]

005BAFEC  B082     		sub sp, sp, #8
005BAFEE  F8CD 0000		str r0, [sp]
005BAFF2  F85F 7154		ldr r7, [pc, #-340] ; 0x11C
005BAFF6  5DF0     		ldrb r0, [r6, +r7]

005BAFF8  1E40     		sub r0, r0, #1

005BAFFA  4607     		mov r7, r0
005BAFFC  F8DD 0000		ldr r0, [sp]
005BB000  B002     		add sp, sp, #8
005BB002  42B8     		cmp r0, r7
005BB004  BFD8 2000		lemov r0, #0
005BB008  BFC8 2001		gtmov r0, #1

005BB00C  2800     		cmp r0, #0
005BB00E  D139     		bne #114 ; 0x005BB084


005BB012  F85F 716C		ldr r7, [pc, #-364] ; 0x128
005BB016  5DF0     		ldrb r0, [r6, +r7]

005BB018  1C40     		add r0, r0, #1

005BB01A  F8DF 7714		ldr r7, [pc, #+1812] ; 0x16C
005BB01E  55F0     		strb r0, [r6, +r7]

005BB020  F8DF 770C		ldr r7, [pc, #+1804] ; 0x16C
005BB024  5DF5     		ldrb r5, [r6, +r7]
005BB026  F85F 71A4		ldr r7, [pc, #-420] ; 0x3
005BB02A  EB07 0705		add r7, r7, r5, lsl #0
005BB02E  5DF0     		ldrb r0, [r6, +r7]
005BB030  F85F 7198		ldr r7, [pc, #-408] ; 0x118
005BB034  F856 C007		ldr r12, [r6, +r7]
005BB038  F88C 0000		strb r0, [r12]

005BB03C  F85F 71A4		ldr r7, [pc, #-420] ; 0x118
005BB040  59F0     		ldr r0, [r6, +r7]

005BB042  1C40     		add r0, r0, #1

005BB044  F85F 71AC		ldr r7, [pc, #-428] ; 0x118
005BB048  51F0     		str r0, [r6, +r7]

005BB04A  F85F 71A4		ldr r7, [pc, #-420] ; 0x128
005BB04E  5DF5     		ldrb r5, [r6, +r7]
005BB050  F85F 71D0		ldr r7, [pc, #-464] ; 0x3
005BB054  EB07 0705		add r7, r7, r5, lsl #0
005BB058  5DF0     		ldrb r0, [r6, +r7]
005BB05A  F85F 71C0		ldr r7, [pc, #-448] ; 0x118
005BB05E  F856 C007		ldr r12, [r6, +r7]
005BB062  F88C 0000		strb r0, [r12]

005BB066  F85F 71CC		ldr r7, [pc, #-460] ; 0x118
005BB06A  59F0     		ldr r0, [r6, +r7]

005BB06C  1C40     		add r0, r0, #1

005BB06E  F85F 71D4		ldr r7, [pc, #-468] ; 0x118
005BB072  51F0     		str r0, [r6, +r7]

005BB074  F85F 71D0		ldr r7, [pc, #-464] ; 0x128
005BB078  5DF0     		ldrb r0, [r6, +r7]

005BB07A  1C80     		add r0, r0, #2

005BB07C  F85F 71D8		ldr r7, [pc, #-472] ; 0x128
005BB080  55F0     		strb r0, [r6, +r7]

005BB082  E7B0     		b #-160 ; 0x005BAFE6

005BB084  2001     		mov r0, #1 ; 1
005BB086  F85F 71A8		ldr r7, [pc, #-424] ; 0x151
005BB08A  55F0     		strb r0, [r6, +r7]

005BB08C  20BE     		mov r0, #190 ; 190
005BB08E  F85F 7210		ldr r7, [pc, #-528] ; 0x1
005BB092  55F0     		strb r0, [r6, +r7]

005BB094  F001 BF12		b #7716 ; 0x005BCEBC


005BB098  F85F 7200		ldr r7, [pc, #-512] ; 0x118
005BB09C  F856 C007		ldr r12, [r6, +r7]
005BB0A0  F89C 0000		ldrb r0, [r12]

005BB0A4  2800     		cmp r0, #0
005BB0A6  BF18 2001		nemov r0, #1
005BB0AA  BF08 2000		eqmov r0, #0

005BB0AE  2800     		cmp r0, #0
005BB0B0  BF08 2001		eqmov r0, #1
005BB0B4  BF18 2000		nemov r0, #0

005BB0B8  2800     		cmp r0, #0
005BB0BA  D006     		beq #12 ; 0x005BB0CA


005BB0BE  2000     		mov r0, #0 ; 0
005BB0C0  F85F 7230		ldr r7, [pc, #-560] ; 0x7
005BB0C4  55F0     		strb r0, [r6, +r7]

005BB0C6  E004     		b #8 ; 0x005BB0D2


005BB0CA  20FF     		mov r0, #255 ; 255
005BB0CC  F85F 723C		ldr r7, [pc, #-572] ; 0x7
005BB0D0  55F0     		strb r0, [r6, +r7]

005BB0D2  2000     		mov r0, #0 ; 0
005BB0D4  F85F 7240		ldr r7, [pc, #-576] ; 0x8
005BB0D8  55F0     		strb r0, [r6, +r7]

005BB0DA  2006     		mov r0, #6 ; 6
005BB0DC  F85F 7238		ldr r7, [pc, #-568] ; 0x128
005BB0E0  55F0     		strb r0, [r6, +r7]

005BB0E2  2006     		mov r0, #6 ; 6
005BB0E4  F85F 7248		ldr r7, [pc, #-584] ; 0x11C
005BB0E8  55F0     		strb r0, [r6, +r7]

005BB0EA  F85F 726C		ldr r7, [pc, #-620] ; 0x1
005BB0EE  5DF0     		ldrb r0, [r6, +r7]

005BB0F0  1C40     		add r0, r0, #1

005BB0F2  7030     		strb r0, [r6]

005BB0F4  20C8     		mov r0, #200 ; 200
005BB0F6  F85F 7278		ldr r7, [pc, #-632] ; 0x1
005BB0FA  55F0     		strb r0, [r6, +r7]

005BB0FC  F001 BEDE		b #7612 ; 0x005BCEBC


005BB100  F85F 7278		ldr r7, [pc, #-632] ; 0x5
005BB104  5DF0     		ldrb r0, [r6, +r7]

005BB106  F44F 7780		mov r7, #256 ; 256
005BB10A  4378     		mul r0, r0, r7

005BB10C  F85F 7280		ldr r7, [pc, #-640] ; 0x6
005BB110  5DF7     		ldrb r7, [r6, +r7]
005BB112  19C0     		add r0, r0, r7

005BB114  1C40     		add r0, r0, #1

005BB116  F8DF 761C		ldr r7, [pc, #+1564] ; 0x5BA480
005BB11A  883F     		ldrh r7, [r7]
005BB11C  4038     		and r0, r0, r7

005BB11E  F85F 7258		ldr r7, [pc, #-600] ; 0x13C
005BB122  5BF7     		ldrh r7, [r6, +r7]
005BB124  42B8     		cmp r0, r7
005BB126  BF08 2000		eqmov r0, #0
005BB12A  BF18 2001		nemov r0, #1

005BB12E  2800     		cmp r0, #0
005BB130  D006     		beq #12 ; 0x005BB140


005BB134  20FB     		mov r0, #251 ; 251
005BB136  F85F 72B8		ldr r7, [pc, #-696] ; 0x1
005BB13A  55F0     		strb r0, [r6, +r7]

005BB13C  F001 BEC0		b #7552 ; 0x005BCEC0


005BB140  F85F 72A8		ldr r7, [pc, #-680] ; 0x118
005BB144  F856 C007		ldr r12, [r6, +r7]
005BB148  F89C 0000		ldrb r0, [r12]

005BB14C  2800     		cmp r0, #0
005BB14E  BF18 2001		nemov r0, #1
005BB152  BF08 2000		eqmov r0, #0

005BB156  2800     		cmp r0, #0
005BB158  BF08 2001		eqmov r0, #1
005BB15C  BF18 2000		nemov r0, #0

005BB160  2800     		cmp r0, #0
005BB162  D011     		beq #34 ; 0x005BB188


005BB166  F85F 72D4		ldr r7, [pc, #-724] ; 0x7
005BB16A  5DF0     		ldrb r0, [r6, +r7]

005BB16C  2800     		cmp r0, #0
005BB16E  BF08 2000		eqmov r0, #0
005BB172  BF18 2001		nemov r0, #1

005BB176  2800     		cmp r0, #0
005BB178  D006     		beq #12 ; 0x005BB188


005BB17C  20FB     		mov r0, #251 ; 251
005BB17E  F85F 7300		ldr r7, [pc, #-768] ; 0x1
005BB182  55F0     		strb r0, [r6, +r7]

005BB184  F001 BE9C		b #7480 ; 0x005BCEC0


005BB188  F85F 72F0		ldr r7, [pc, #-752] ; 0x118
005BB18C  F856 C007		ldr r12, [r6, +r7]
005BB190  F89C 0000		ldrb r0, [r12]

005BB194  2800     		cmp r0, #0
005BB196  BF18 2001		nemov r0, #1
005BB19A  BF08 2000		eqmov r0, #0

005BB19E  2800     		cmp r0, #0
005BB1A0  D011     		beq #34 ; 0x005BB1C6


005BB1A4  F85F 7314		ldr r7, [pc, #-788] ; 0x7
005BB1A8  5DF0     		ldrb r0, [r6, +r7]

005BB1AA  28FF     		cmp r0, #255
005BB1AC  BF08 2000		eqmov r0, #0
005BB1B0  BF18 2001		nemov r0, #1

005BB1B4  2800     		cmp r0, #0
005BB1B6  D006     		beq #12 ; 0x005BB1C6


005BB1BA  20FB     		mov r0, #251 ; 251
005BB1BC  F85F 7340		ldr r7, [pc, #-832] ; 0x1
005BB1C0  55F0     		strb r0, [r6, +r7]

005BB1C2  F001 BE7D		b #7418 ; 0x005BCEC0


005BB1C6  F85F 7330		ldr r7, [pc, #-816] ; 0x8
005BB1CA  5DF0     		ldrb r0, [r6, +r7]

005BB1CC  2800     		cmp r0, #0
005BB1CE  BF08 2000		eqmov r0, #0
005BB1D2  BF18 2001		nemov r0, #1

005BB1D6  2800     		cmp r0, #0
005BB1D8  D006     		beq #12 ; 0x005BB1E8


005BB1DC  20FB     		mov r0, #251 ; 251
005BB1DE  F85F 7360		ldr r7, [pc, #-864] ; 0x1
005BB1E2  55F0     		strb r0, [r6, +r7]

005BB1E4  F001 BE6C		b #7384 ; 0x005BCEC0


005BB1E8  2001     		mov r0, #1 ; 1
005BB1EA  F85F 730C		ldr r7, [pc, #-780] ; 0x151
005BB1EE  55F0     		strb r0, [r6, +r7]

005BB1F0  20BE     		mov r0, #190 ; 190
005BB1F2  F85F 7374		ldr r7, [pc, #-884] ; 0x1
005BB1F6  55F0     		strb r0, [r6, +r7]

005BB1F8  F001 BE60		b #7360 ; 0x005BCEBC


005BB1FC  F85F 7364		ldr r7, [pc, #-868] ; 0x118
005BB200  F856 C007		ldr r12, [r6, +r7]
005BB204  F89C 0000		ldrb r0, [r12]
005BB208  F85F 7374		ldr r7, [pc, #-884] ; 0x8
005BB20C  55F0     		strb r0, [r6, +r7]

005BB20E  F85F 7374		ldr r7, [pc, #-884] ; 0x118
005BB212  59F0     		ldr r0, [r6, +r7]

005BB214  1C40     		add r0, r0, #1

005BB216  F85F 737C		ldr r7, [pc, #-892] ; 0x118
005BB21A  51F0     		str r0, [r6, +r7]

005BB21C  F85F 7384		ldr r7, [pc, #-900] ; 0x118
005BB220  F856 C007		ldr r12, [r6, +r7]
005BB224  F89C 0000		ldrb r0, [r12]
005BB228  F85F 7398		ldr r7, [pc, #-920] ; 0x7
005BB22C  55F0     		strb r0, [r6, +r7]

005BB22E  2006     		mov r0, #6 ; 6
005BB230  F85F 738C		ldr r7, [pc, #-908] ; 0x128
005BB234  55F0     		strb r0, [r6, +r7]

005BB236  2006     		mov r0, #6 ; 6
005BB238  F85F 739C		ldr r7, [pc, #-924] ; 0x11C
005BB23C  55F0     		strb r0, [r6, +r7]

005BB23E  F85F 73C0		ldr r7, [pc, #-960] ; 0x1
005BB242  5DF0     		ldrb r0, [r6, +r7]

005BB244  1C40     		add r0, r0, #1

005BB246  7030     		strb r0, [r6]

005BB248  20C8     		mov r0, #200 ; 200
005BB24A  F85F 73CC		ldr r7, [pc, #-972] ; 0x1
005BB24E  55F0     		strb r0, [r6, +r7]

005BB250  F001 BE34		b #7272 ; 0x005BCEBC


005BB254  F85F 73CC		ldr r7, [pc, #-972] ; 0x5
005BB258  5DF0     		ldrb r0, [r6, +r7]

005BB25A  F44F 7780		mov r7, #256 ; 256
005BB25E  4378     		mul r0, r0, r7

005BB260  F85F 73D4		ldr r7, [pc, #-980] ; 0x6
005BB264  5DF7     		ldrb r7, [r6, +r7]
005BB266  19C0     		add r0, r0, r7

005BB268  1C40     		add r0, r0, #1

005BB26A  F8DF 74C8		ldr r7, [pc, #+1224] ; 0x5BA480
005BB26E  883F     		ldrh r7, [r7]
005BB270  4038     		and r0, r0, r7

005BB272  F85F 73AC		ldr r7, [pc, #-940] ; 0x13C
005BB276  5BF7     		ldrh r7, [r6, +r7]
005BB278  42B8     		cmp r0, r7
005BB27A  BF08 2000		eqmov r0, #0
005BB27E  BF18 2001		nemov r0, #1

005BB282  2800     		cmp r0, #0
005BB284  D006     		beq #12 ; 0x005BB294


005BB288  20FB     		mov r0, #251 ; 251
005BB28A  F85F 740C		ldr r7, [pc, #-1036] ; 0x1
005BB28E  55F0     		strb r0, [r6, +r7]

005BB290  F001 BE16		b #7212 ; 0x005BCEC0


005BB294  F85F 7404		ldr r7, [pc, #-1028] ; 0x7
005BB298  5DF0     		ldrb r0, [r6, +r7]

005BB29A  F85F 7400		ldr r7, [pc, #-1024] ; 0x118
005BB29E  F856 C007		ldr r12, [r6, +r7]
005BB2A2  F89C 7000		ldrb r7, [r12]
005BB2A6  42B8     		cmp r0, r7
005BB2A8  BF08 2000		eqmov r0, #0
005BB2AC  BF18 2001		nemov r0, #1

005BB2B0  2800     		cmp r0, #0
005BB2B2  D006     		beq #12 ; 0x005BB2C2


005BB2B6  20FB     		mov r0, #251 ; 251
005BB2B8  F85F 743C		ldr r7, [pc, #-1084] ; 0x1
005BB2BC  55F0     		strb r0, [r6, +r7]

005BB2BE  F001 BDFF		b #7166 ; 0x005BCEC0


005BB2C2  F85F 7428		ldr r7, [pc, #-1064] ; 0x118
005BB2C6  59F0     		ldr r0, [r6, +r7]

005BB2C8  1E40     		sub r0, r0, #1

005BB2CA  F85F 7430		ldr r7, [pc, #-1072] ; 0x118
005BB2CE  51F0     		str r0, [r6, +r7]

005BB2D0  F85F 743C		ldr r7, [pc, #-1084] ; 0x8
005BB2D4  5DF0     		ldrb r0, [r6, +r7]

005BB2D6  F85F 743C		ldr r7, [pc, #-1084] ; 0x118
005BB2DA  F856 C007		ldr r12, [r6, +r7]
005BB2DE  F89C 7000		ldrb r7, [r12]
005BB2E2  42B8     		cmp r0, r7
005BB2E4  BF08 2000		eqmov r0, #0
005BB2E8  BF18 2001		nemov r0, #1

005BB2EC  2800     		cmp r0, #0
005BB2EE  D006     		beq #12 ; 0x005BB2FE


005BB2F2  20FB     		mov r0, #251 ; 251
005BB2F4  F85F 7478		ldr r7, [pc, #-1144] ; 0x1
005BB2F8  55F0     		strb r0, [r6, +r7]

005BB2FA  F001 BDE1		b #7106 ; 0x005BCEC0


005BB2FE  2001     		mov r0, #1 ; 1
005BB300  F85F 7424		ldr r7, [pc, #-1060] ; 0x151
005BB304  55F0     		strb r0, [r6, +r7]

005BB306  20BE     		mov r0, #190 ; 190
005BB308  F85F 748C		ldr r7, [pc, #-1164] ; 0x1
005BB30C  55F0     		strb r0, [r6, +r7]

005BB30E  F001 BDD5		b #7082 ; 0x005BCEBC


005BB312  F85F 7448		ldr r7, [pc, #-1096] ; 0x140
005BB316  59F0     		ldr r0, [r6, +r7]

005BB318  28FF     		cmp r0, #255
005BB31A  BF98 2000		lsmov r0, #0
005BB31E  BF88 2001		himov r0, #1

005BB322  B082     		sub sp, sp, #8
005BB324  F8CD 0000		str r0, [sp]
005BB328  F85F 7460		ldr r7, [pc, #-1120] ; 0x140
005BB32C  59F0     		ldr r0, [r6, +r7]

005BB32E  2800     		cmp r0, #0
005BB330  BF18 2000		nemov r0, #0
005BB334  BF08 2001		eqmov r0, #1

005BB338  4607     		mov r7, r0
005BB33A  F8DD 0000		ldr r0, [sp]
005BB33E  B002     		add sp, sp, #8
005BB340  4338     		orr r0, r0, r7

005BB342  2800     		cmp r0, #0
005BB344  D006     		beq #12 ; 0x005BB354


005BB348  20F0     		mov r0, #240 ; 240
005BB34A  F85F 74CC		ldr r7, [pc, #-1228] ; 0x1
005BB34E  55F0     		strb r0, [r6, +r7]

005BB350  F001 BDB6		b #7020 ; 0x005BCEC0


005BB354  2000     		mov r0, #0 ; 0
005BB356  F85F 74C4		ldr r7, [pc, #-1220] ; 0x7
005BB35A  55F0     		strb r0, [r6, +r7]

005BB35C  F85F 7494		ldr r7, [pc, #-1172] ; 0x140
005BB360  59F0     		ldr r0, [r6, +r7]

005BB362  F85F 74CC		ldr r7, [pc, #-1228] ; 0x8
005BB366  55F0     		strb r0, [r6, +r7]

005BB368  F85F 74A0		ldr r7, [pc, #-1184] ; 0x140
005BB36C  59F0     		ldr r0, [r6, +r7]

005BB36E  1E40     		sub r0, r0, #1

005BB370  B082     		sub sp, sp, #8
005BB372  F8CD 1000		str r1, [sp]
005BB376  2108     		mov r1, #8 ; 8
005BB378  FBB0 F0F1		udiv r0, r0, r1
005BB37C  F8DD 1000		ldr r1, [sp]
005BB380  B002     		add sp, sp, #8

005BB382  1C40     		add r0, r0, #1

005BB384  F8DF 73A0		ldr r7, [pc, #+928] ; 0x9
005BB388  55F0     		strb r0, [r6, +r7]

005BB38A  2007     		mov r0, #7 ; 7

005BB38C  F8DF 739C		ldr r7, [pc, #+924] ; 0x12E
005BB390  55F0     		strb r0, [r6, +r7]

005BB392  F8DF 7398		ldr r7, [pc, #+920] ; 0x12E
005BB396  5DF0     		ldrb r0, [r6, +r7]

005BB398  B082     		sub sp, sp, #8
005BB39A  F8CD 0000		str r0, [sp]
005BB39E  F8DF 7388		ldr r7, [pc, #+904] ; 0x9
005BB3A2  5DF0     		ldrb r0, [r6, +r7]

005BB3A4  1DC0     		add r0, r0, #7

005BB3A6  1E40     		sub r0, r0, #1

005BB3A8  4607     		mov r7, r0
005BB3AA  F8DD 0000		ldr r0, [sp]
005BB3AE  B002     		add sp, sp, #8
005BB3B0  42B8     		cmp r0, r7
005BB3B2  BFD8 2000		lemov r0, #0
005BB3B6  BFC8 2001		gtmov r0, #1

005BB3BA  2800     		cmp r0, #0
005BB3BC  D159     		bne #178 ; 0x005BB472


005BB3C0  2000     		mov r0, #0 ; 0

005BB3C2  F85F 7518		ldr r7, [pc, #-1304] ; 0x12A
005BB3C6  53F0     		strh r0, [r6, +r7]

005BB3C8  F85F 7520		ldr r7, [pc, #-1312] ; 0x12A
005BB3CC  5BF0     		ldrh r0, [r6, +r7]

005BB3CE  2807     		cmp r0, #7
005BB3D0  BFD8 2000		lemov r0, #0
005BB3D4  BFC8 2001		gtmov r0, #1

005BB3D8  2800     		cmp r0, #0
005BB3DA  D142     		bne #132 ; 0x005BB462


005BB3DE  F8DF 734C		ldr r7, [pc, #+844] ; 0x12E
005BB3E2  5DF5     		ldrb r5, [r6, +r7]
005BB3E4  F85F 7564		ldr r7, [pc, #-1380] ; 0x3
005BB3E8  EB07 0705		add r7, r7, r5, lsl #0
005BB3EC  5DF0     		ldrb r0, [r6, +r7]

005BB3EE  0840     		lsr r0, r0, #1
005BB3F0  F000 00FF		and r0, r0, #0xFF

005BB3F4  F8DF 7334		ldr r7, [pc, #+820] ; 0x12E
005BB3F8  5DF5     		ldrb r5, [r6, +r7]
005BB3FA  F85F 7578		ldr r7, [pc, #-1400] ; 0x3
005BB3FE  EB07 0705		add r7, r7, r5, lsl #0
005BB402  55F0     		strb r0, [r6, +r7]

005BB404  F85F 756C		ldr r7, [pc, #-1388] ; 0x118
005BB408  F856 C007		ldr r12, [r6, +r7]
005BB40C  F89C 0000		ldrb r0, [r12]

005BB410  2800     		cmp r0, #0
005BB412  BF08 2000		eqmov r0, #0
005BB416  BF18 2001		nemov r0, #1

005BB41A  2800     		cmp r0, #0
005BB41C  D012     		beq #36 ; 0x005BB444


005BB420  F8DF 7308		ldr r7, [pc, #+776] ; 0x12E
005BB424  5DF5     		ldrb r5, [r6, +r7]
005BB426  F85F 75A4		ldr r7, [pc, #-1444] ; 0x3
005BB42A  EB07 0705		add r7, r7, r5, lsl #0
005BB42E  5DF0     		ldrb r0, [r6, +r7]

005BB430  2780     		mov r7, #128 ; 128
005BB432  4338     		orr r0, r0, r7

005BB434  F8DF 72F4		ldr r7, [pc, #+756] ; 0x12E
005BB438  5DF5     		ldrb r5, [r6, +r7]
005BB43A  F85F 75B8		ldr r7, [pc, #-1464] ; 0x3
005BB43E  EB07 0705		add r7, r7, r5, lsl #0
005BB442  55F0     		strb r0, [r6, +r7]

005BB444  F85F 75AC		ldr r7, [pc, #-1452] ; 0x118
005BB448  59F0     		ldr r0, [r6, +r7]

005BB44A  1C40     		add r0, r0, #1

005BB44C  F85F 75B4		ldr r7, [pc, #-1460] ; 0x118
005BB450  51F0     		str r0, [r6, +r7]

005BB452  F85F 75A8		ldr r7, [pc, #-1448] ; 0x12A
005BB456  5BF0     		ldrh r0, [r6, +r7]

005BB458  1C40     		add r0, r0, #1

005BB45A  F85F 75B0		ldr r7, [pc, #-1456] ; 0x12A
005BB45E  53F0     		strh r0, [r6, +r7]

005BB460  E7B2     		b #-156 ; 0x005BB3C8

005BB462  F8DF 72C8		ldr r7, [pc, #+712] ; 0x12E
005BB466  5DF0     		ldrb r0, [r6, +r7]

005BB468  1C40     		add r0, r0, #1

005BB46A  F8DF 72C0		ldr r7, [pc, #+704] ; 0x12E
005BB46E  55F0     		strb r0, [r6, +r7]

005BB470  E78F     		b #-226 ; 0x005BB392

005BB472  F8DF 72B8		ldr r7, [pc, #+696] ; 0x12E
005BB476  5DF0     		ldrb r0, [r6, +r7]
005BB478  F85F 75D4		ldr r7, [pc, #-1492] ; 0x128
005BB47C  55F0     		strb r0, [r6, +r7]

005BB47E  2006     		mov r0, #6 ; 6
005BB480  F85F 75E4		ldr r7, [pc, #-1508] ; 0x11C
005BB484  55F0     		strb r0, [r6, +r7]

005BB486  F85F 7608		ldr r7, [pc, #-1544] ; 0x1
005BB48A  5DF0     		ldrb r0, [r6, +r7]

005BB48C  1C40     		add r0, r0, #1

005BB48E  7030     		strb r0, [r6]

005BB490  20C8     		mov r0, #200 ; 200
005BB492  F85F 7614		ldr r7, [pc, #-1556] ; 0x1
005BB496  55F0     		strb r0, [r6, +r7]

005BB498  F001 BD10		b #6688 ; 0x005BCEBC


005BB49C  F85F 7614		ldr r7, [pc, #-1556] ; 0x5
005BB4A0  5DF0     		ldrb r0, [r6, +r7]

005BB4A2  F44F 7780		mov r7, #256 ; 256
005BB4A6  4378     		mul r0, r0, r7

005BB4A8  F85F 761C		ldr r7, [pc, #-1564] ; 0x6
005BB4AC  5DF7     		ldrb r7, [r6, +r7]
005BB4AE  19C0     		add r0, r0, r7

005BB4B0  1C40     		add r0, r0, #1

005BB4B2  F8DF 7280		ldr r7, [pc, #+640] ; 0x5BA480
005BB4B6  883F     		ldrh r7, [r7]
005BB4B8  4038     		and r0, r0, r7

005BB4BA  F85F 75F4		ldr r7, [pc, #-1524] ; 0x13C
005BB4BE  5BF7     		ldrh r7, [r6, +r7]
005BB4C0  42B8     		cmp r0, r7
005BB4C2  BF08 2000		eqmov r0, #0
005BB4C6  BF18 2001		nemov r0, #1

005BB4CA  2800     		cmp r0, #0
005BB4CC  D006     		beq #12 ; 0x005BB4DC


005BB4D0  20FB     		mov r0, #251 ; 251
005BB4D2  F85F 7654		ldr r7, [pc, #-1620] ; 0x1
005BB4D6  55F0     		strb r0, [r6, +r7]

005BB4D8  F001 BCF2		b #6628 ; 0x005BCEC0


005BB4DC  F85F 764C		ldr r7, [pc, #-1612] ; 0x7
005BB4E0  5DF0     		ldrb r0, [r6, +r7]

005BB4E2  F44F 7780		mov r7, #256 ; 256
005BB4E6  4378     		mul r0, r0, r7

005BB4E8  F85F 7654		ldr r7, [pc, #-1620] ; 0x8
005BB4EC  5DF7     		ldrb r7, [r6, +r7]
005BB4EE  19C0     		add r0, r0, r7

005BB4F0  F85F 7628		ldr r7, [pc, #-1576] ; 0x140
005BB4F4  59F7     		ldr r7, [r6, +r7]
005BB4F6  42B8     		cmp r0, r7
005BB4F8  BF08 2000		eqmov r0, #0
005BB4FC  BF18 2001		nemov r0, #1

005BB500  2800     		cmp r0, #0
005BB502  D006     		beq #12 ; 0x005BB512


005BB506  20FB     		mov r0, #251 ; 251
005BB508  F85F 768C		ldr r7, [pc, #-1676] ; 0x1
005BB50C  55F0     		strb r0, [r6, +r7]

005BB50E  F001 BCD7		b #6574 ; 0x005BCEC0


005BB512  2001     		mov r0, #1 ; 1
005BB514  F85F 7638		ldr r7, [pc, #-1592] ; 0x151
005BB518  55F0     		strb r0, [r6, +r7]

005BB51A  20BE     		mov r0, #190 ; 190
005BB51C  F85F 76A0		ldr r7, [pc, #-1696] ; 0x1
005BB520  55F0     		strb r0, [r6, +r7]

005BB522  F001 BCCB		b #6550 ; 0x005BCEBC


005BB526  F85F 765C		ldr r7, [pc, #-1628] ; 0x140
005BB52A  59F0     		ldr r0, [r6, +r7]

005BB52C  287D     		cmp r0, #125
005BB52E  BF98 2000		lsmov r0, #0
005BB532  BF88 2001		himov r0, #1

005BB536  B082     		sub sp, sp, #8
005BB538  F8CD 0000		str r0, [sp]
005BB53C  F85F 7674		ldr r7, [pc, #-1652] ; 0x140
005BB540  59F0     		ldr r0, [r6, +r7]

005BB542  2800     		cmp r0, #0
005BB544  BF18 2000		nemov r0, #0
005BB548  BF08 2001		eqmov r0, #1

005BB54C  4607     		mov r7, r0
005BB54E  F8DD 0000		ldr r0, [sp]
005BB552  B002     		add sp, sp, #8
005BB554  4338     		orr r0, r0, r7

005BB556  2800     		cmp r0, #0
005BB558  D006     		beq #12 ; 0x005BB568


005BB55C  20F0     		mov r0, #240 ; 240
005BB55E  F85F 76E0		ldr r7, [pc, #-1760] ; 0x1
005BB562  55F0     		strb r0, [r6, +r7]

005BB564  F001 BCAC		b #6488 ; 0x005BCEC0


005BB568  2000     		mov r0, #0 ; 0
005BB56A  F85F 76D8		ldr r7, [pc, #-1752] ; 0x7
005BB56E  55F0     		strb r0, [r6, +r7]

005BB570  F85F 76A8		ldr r7, [pc, #-1704] ; 0x140
005BB574  59F0     		ldr r0, [r6, +r7]

005BB576  F85F 76E0		ldr r7, [pc, #-1760] ; 0x8
005BB57A  55F0     		strb r0, [r6, +r7]

005BB57C  F85F 76B4		ldr r7, [pc, #-1716] ; 0x140
005BB580  59F0     		ldr r0, [r6, +r7]

005BB582  2702     		mov r7, #2 ; 2
005BB584  4378     		mul r0, r0, r7

005BB586  F8DF 71A0		ldr r7, [pc, #+416] ; 0x9
005BB58A  55F0     		strb r0, [r6, +r7]

005BB58C  2007     		mov r0, #7 ; 7

005BB58E  F8DF 719C		ldr r7, [pc, #+412] ; 0x12E
005BB592  55F0     		strb r0, [r6, +r7]

005BB594  F8DF 7194		ldr r7, [pc, #+404] ; 0x12E
005BB598  5DF0     		ldrb r0, [r6, +r7]

005BB59A  B082     		sub sp, sp, #8
005BB59C  F8CD 0000		str r0, [sp]
005BB5A0  F8DF 7184		ldr r7, [pc, #+388] ; 0x9
005BB5A4  5DF0     		ldrb r0, [r6, +r7]

005BB5A6  1DC0     		add r0, r0, #7

005BB5A8  1E40     		sub r0, r0, #1

005BB5AA  4607     		mov r7, r0
005BB5AC  F8DD 0000		ldr r0, [sp]
005BB5B0  B002     		add sp, sp, #8
005BB5B2  42B8     		cmp r0, r7
005BB5B4  BFD8 2000		lemov r0, #0
005BB5B8  BFC8 2001		gtmov r0, #1

005BB5BC  2800     		cmp r0, #0
005BB5BE  D139     		bne #114 ; 0x005BB634


005BB5C2  F8DF 7168		ldr r7, [pc, #+360] ; 0x12E
005BB5C6  5DF0     		ldrb r0, [r6, +r7]

005BB5C8  1C40     		add r0, r0, #1

005BB5CA  F8DF 7164		ldr r7, [pc, #+356] ; 0x16C
005BB5CE  55F0     		strb r0, [r6, +r7]

005BB5D0  F85F 7738		ldr r7, [pc, #-1848] ; 0x118
005BB5D4  F856 C007		ldr r12, [r6, +r7]
005BB5D8  F89C 0000		ldrb r0, [r12]
005BB5DC  F8DF 7150		ldr r7, [pc, #+336] ; 0x16C
005BB5E0  5DF5     		ldrb r5, [r6, +r7]
005BB5E2  F85F 7760		ldr r7, [pc, #-1888] ; 0x3
005BB5E6  EB07 0705		add r7, r7, r5, lsl #0
005BB5EA  55F0     		strb r0, [r6, +r7]

005BB5EC  F85F 7754		ldr r7, [pc, #-1876] ; 0x118
005BB5F0  59F0     		ldr r0, [r6, +r7]

005BB5F2  1C40     		add r0, r0, #1

005BB5F4  F85F 775C		ldr r7, [pc, #-1884] ; 0x118
005BB5F8  51F0     		str r0, [r6, +r7]

005BB5FA  F85F 7760		ldr r7, [pc, #-1888] ; 0x118
005BB5FE  F856 C007		ldr r12, [r6, +r7]
005BB602  F89C 0000		ldrb r0, [r12]
005BB606  F8DF 7124		ldr r7, [pc, #+292] ; 0x12E
005BB60A  5DF5     		ldrb r5, [r6, +r7]
005BB60C  F85F 778C		ldr r7, [pc, #-1932] ; 0x3
005BB610  EB07 0705		add r7, r7, r5, lsl #0
005BB614  55F0     		strb r0, [r6, +r7]

005BB616  F85F 777C		ldr r7, [pc, #-1916] ; 0x118
005BB61A  59F0     		ldr r0, [r6, +r7]

005BB61C  1C40     		add r0, r0, #1

005BB61E  F85F 7784		ldr r7, [pc, #-1924] ; 0x118
005BB622  51F0     		str r0, [r6, +r7]

005BB624  F8DF 7104		ldr r7, [pc, #+260] ; 0x12E
005BB628  5DF0     		ldrb r0, [r6, +r7]

005BB62A  1C80     		add r0, r0, #2

005BB62C  F8DF 70FC		ldr r7, [pc, #+252] ; 0x12E
005BB630  55F0     		strb r0, [r6, +r7]

005BB632  E7AF     		b #-162 ; 0x005BB594

005BB634  F8DF 70F4		ldr r7, [pc, #+244] ; 0x12E
005BB638  5DF0     		ldrb r0, [r6, +r7]
005BB63A  F85F 7794		ldr r7, [pc, #-1940] ; 0x128
005BB63E  55F0     		strb r0, [r6, +r7]

005BB640  2006     		mov r0, #6 ; 6
005BB642  F85F 77A4		ldr r7, [pc, #-1956] ; 0x11C
005BB646  55F0     		strb r0, [r6, +r7]

005BB648  F85F 77CC		ldr r7, [pc, #-1996] ; 0x1
005BB64C  5DF0     		ldrb r0, [r6, +r7]

005BB64E  1C40     		add r0, r0, #1

005BB650  7030     		strb r0, [r6]

005BB652  20C8     		mov r0, #200 ; 200
005BB654  F85F 77D8		ldr r7, [pc, #-2008] ; 0x1
005BB658  55F0     		strb r0, [r6, +r7]

005BB65A  F001 BC2F		b #6238 ; 0x005BCEBC


005BB65E  F85F 77D4		ldr r7, [pc, #-2004] ; 0x5
005BB662  5DF0     		ldrb r0, [r6, +r7]

005BB664  F44F 7780		mov r7, #256 ; 256
005BB668  4378     		mul r0, r0, r7

005BB66A  F85F 77DC		ldr r7, [pc, #-2012] ; 0x6
005BB66E  5DF7     		ldrb r7, [r6, +r7]
005BB670  19C0     		add r0, r0, r7

005BB672  1C40     		add r0, r0, #1

005BB674  F8DF 70BC		ldr r7, [pc, #+188] ; 0x5BA480
005BB678  883F     		ldrh r7, [r7]
005BB67A  4038     		and r0, r0, r7

005BB67C  F85F 77B8		ldr r7, [pc, #-1976] ; 0x13C
005BB680  5BF7     		ldrh r7, [r6, +r7]
005BB682  42B8     		cmp r0, r7
005BB684  BF08 2000		eqmov r0, #0
005BB688  BF18 2001		nemov r0, #1

005BB68C  2800     		cmp r0, #0
005BB68E  D006     		beq #12 ; 0x005BB69E


005BB692  20FB     		mov r0, #251 ; 251
005BB694  F85F 7818		ldr r7, [pc, #-2072] ; 0x1
005BB698  55F0     		strb r0, [r6, +r7]

005BB69A  F001 BC11		b #6178 ; 0x005BCEC0


005BB69E  F85F 780C		ldr r7, [pc, #-2060] ; 0x7
005BB6A2  5DF0     		ldrb r0, [r6, +r7]

005BB6A4  F44F 7780		mov r7, #256 ; 256
005BB6A8  4378     		mul r0, r0, r7

005BB6AA  F85F 7814		ldr r7, [pc, #-2068] ; 0x8
005BB6AE  5DF7     		ldrb r7, [r6, +r7]
005BB6B0  19C0     		add r0, r0, r7

005BB6B2  F85F 77E8		ldr r7, [pc, #-2024] ; 0x140
005BB6B6  59F7     		ldr r7, [r6, +r7]
005BB6B8  42B8     		cmp r0, r7
005BB6BA  BF08 2000		eqmov r0, #0
005BB6BE  BF18 2001		nemov r0, #1

005BB6C2  2800     		cmp r0, #0
005BB6C4  D006     		beq #12 ; 0x005BB6D4


005BB6C8  20FB     		mov r0, #251 ; 251
005BB6CA  F85F 784C		ldr r7, [pc, #-2124] ; 0x1
005BB6CE  55F0     		strb r0, [r6, +r7]

005BB6D0  F001 BBF6		b #6124 ; 0x005BCEC0


005BB6D4  2001     		mov r0, #1 ; 1
005BB6D6  F85F 77F8		ldr r7, [pc, #-2040] ; 0x151
005BB6DA  55F0     		strb r0, [r6, +r7]

005BB6DC  20BE     		mov r0, #190 ; 190
005BB6DE  F85F 7860		ldr r7, [pc, #-2144] ; 0x1
005BB6E2  55F0     		strb r0, [r6, +r7]

005BB6E4  F001 BBEA		b #6100 ; 0x005BCEBC


005BB6E8  F85F 7820		ldr r7, [pc, #-2080] ; 0x140
005BB6EC  59F0     		ldr r0, [r6, +r7]

005BB6EE  28FA     		cmp r0, #250
005BB6F0  BF98 2000		lsmov r0, #0
005BB6F4  BF88 2001		himov r0, #1

005BB6F8  B082     		sub sp, sp, #8
005BB6FA  F8CD 0000		str r0, [sp]
005BB6FE  F85F 7834		ldr r7, [pc, #-2100] ; 0x140
005BB702  59F0     		ldr r0, [r6, +r7]

005BB704  2800     		cmp r0, #0
005BB706  BF18 2000		nemov r0, #0
005BB70A  BF08 2001		eqmov r0, #1

005BB70E  4607     		mov r7, r0
005BB710  F8DD 0000		ldr r0, [sp]
005BB714  B002     		add sp, sp, #8
005BB716  4338     		orr r0, r0, r7

005BB718  2800     		cmp r0, #0
005BB71A  D00F     		beq #30 ; 0x005BB73C


005BB71E  20F0     		mov r0, #240 ; 240
005BB720  F85F 78A4		ldr r7, [pc, #-2212] ; 0x1
005BB724  55F0     		strb r0, [r6, +r7]

005BB726  E007     		b #14

005BB728  00000009		; 0x00000009
005BB72C  0000012E		; 0x0000012E
005BB730  0000016C		; 0x0000016C
005BB734  005BA480		; 0x005BA480

005BB738  F001 BBC2		b #6020 ; 0x005BCEC0


005BB73C  F85F 7874		ldr r7, [pc, #-2164] ; 0x140
005BB740  59F0     		ldr r0, [r6, +r7]

005BB742  F85F 78B0		ldr r7, [pc, #-2224] ; 0x7
005BB746  55F0     		strb r0, [r6, +r7]

005BB748  2005     		mov r0, #5 ; 5
005BB74A  F85F 78A4		ldr r7, [pc, #-2212] ; 0x128
005BB74E  55F0     		strb r0, [r6, +r7]

005BB750  F85F 7888		ldr r7, [pc, #-2184] ; 0x140
005BB754  59F0     		ldr r0, [r6, +r7]

005BB756  1CC0     		add r0, r0, #3

005BB758  F85F 78BC		ldr r7, [pc, #-2236] ; 0x11C
005BB75C  55F0     		strb r0, [r6, +r7]

005BB75E  F85F 78E0		ldr r7, [pc, #-2272] ; 0x1
005BB762  5DF0     		ldrb r0, [r6, +r7]

005BB764  1C40     		add r0, r0, #1

005BB766  7030     		strb r0, [r6]

005BB768  20C8     		mov r0, #200 ; 200
005BB76A  F85F 78EC		ldr r7, [pc, #-2284] ; 0x1
005BB76E  55F0     		strb r0, [r6, +r7]

005BB770  F001 BBA4		b #5960 ; 0x005BCEBC


005BB774  F85F 78EC		ldr r7, [pc, #-2284] ; 0x5
005BB778  5DF0     		ldrb r0, [r6, +r7]

005BB77A  F85F 78B0		ldr r7, [pc, #-2224] ; 0x140
005BB77E  59F7     		ldr r7, [r6, +r7]
005BB780  42B8     		cmp r0, r7
005BB782  BF08 2000		eqmov r0, #0
005BB786  BF18 2001		nemov r0, #1

005BB78A  2800     		cmp r0, #0
005BB78C  D006     		beq #12 ; 0x005BB79C


005BB790  20FB     		mov r0, #251 ; 251
005BB792  F85F 7914		ldr r7, [pc, #-2324] ; 0x1
005BB796  55F0     		strb r0, [r6, +r7]

005BB798  F001 BB92		b #5924 ; 0x005BCEC0


005BB79C  2003     		mov r0, #3 ; 3

005BB79E  F85F 78F8		ldr r7, [pc, #-2296] ; 0x128
005BB7A2  55F0     		strb r0, [r6, +r7]

005BB7A4  F85F 7900		ldr r7, [pc, #-2304] ; 0x128
005BB7A8  5DF0     		ldrb r0, [r6, +r7]

005BB7AA  B082     		sub sp, sp, #8
005BB7AC  F8CD 0000		str r0, [sp]
005BB7B0  F85F 7914		ldr r7, [pc, #-2324] ; 0x11C
005BB7B4  5DF0     		ldrb r0, [r6, +r7]

005BB7B6  1E40     		sub r0, r0, #1

005BB7B8  4607     		mov r7, r0
005BB7BA  F8DD 0000		ldr r0, [sp]
005BB7BE  B002     		add sp, sp, #8
005BB7C0  42B8     		cmp r0, r7
005BB7C2  BFD8 2000		lemov r0, #0
005BB7C6  BFC8 2001		gtmov r0, #1

005BB7CA  2800     		cmp r0, #0
005BB7CC  D11D     		bne #58 ; 0x005BB80A


005BB7D0  F85F 792C		ldr r7, [pc, #-2348] ; 0x128
005BB7D4  5DF5     		ldrb r5, [r6, +r7]
005BB7D6  F85F 7954		ldr r7, [pc, #-2388] ; 0x3
005BB7DA  EB07 0705		add r7, r7, r5, lsl #0
005BB7DE  5DF0     		ldrb r0, [r6, +r7]
005BB7E0  F85F 7948		ldr r7, [pc, #-2376] ; 0x118
005BB7E4  F856 C007		ldr r12, [r6, +r7]
005BB7E8  F88C 0000		strb r0, [r12]

005BB7EC  F85F 7954		ldr r7, [pc, #-2388] ; 0x118
005BB7F0  59F0     		ldr r0, [r6, +r7]

005BB7F2  1C40     		add r0, r0, #1

005BB7F4  F85F 795C		ldr r7, [pc, #-2396] ; 0x118
005BB7F8  51F0     		str r0, [r6, +r7]

005BB7FA  F85F 7954		ldr r7, [pc, #-2388] ; 0x128
005BB7FE  5DF0     		ldrb r0, [r6, +r7]

005BB800  1C40     		add r0, r0, #1

005BB802  F85F 795C		ldr r7, [pc, #-2396] ; 0x128
005BB806  55F0     		strb r0, [r6, +r7]

005BB808  E7CC     		b #-104 ; 0x005BB7A4

005BB80A  2001     		mov r0, #1 ; 1
005BB80C  F85F 7930		ldr r7, [pc, #-2352] ; 0x151
005BB810  55F0     		strb r0, [r6, +r7]

005BB812  20BE     		mov r0, #190 ; 190
005BB814  F85F 7998		ldr r7, [pc, #-2456] ; 0x1
005BB818  55F0     		strb r0, [r6, +r7]

005BB81A  F001 BB4F		b #5790 ; 0x005BCEBC


005BB81E  F85F 7954		ldr r7, [pc, #-2388] ; 0x140
005BB822  59F0     		ldr r0, [r6, +r7]

005BB824  28FA     		cmp r0, #250
005BB826  BF98 2000		lsmov r0, #0
005BB82A  BF88 2001		himov r0, #1

005BB82E  B082     		sub sp, sp, #8
005BB830  F8CD 0000		str r0, [sp]
005BB834  F85F 796C		ldr r7, [pc, #-2412] ; 0x140
005BB838  59F0     		ldr r0, [r6, +r7]

005BB83A  2800     		cmp r0, #0
005BB83C  BF18 2000		nemov r0, #0
005BB840  BF08 2001		eqmov r0, #1

005BB844  4607     		mov r7, r0
005BB846  F8DD 0000		ldr r0, [sp]
005BB84A  B002     		add sp, sp, #8
005BB84C  4338     		orr r0, r0, r7

005BB84E  2800     		cmp r0, #0
005BB850  D006     		beq #12 ; 0x005BB860


005BB854  20F0     		mov r0, #240 ; 240
005BB856  F85F 79D8		ldr r7, [pc, #-2520] ; 0x1
005BB85A  55F0     		strb r0, [r6, +r7]

005BB85C  F001 BB30		b #5728 ; 0x005BCEC0


005BB860  F85F 7998		ldr r7, [pc, #-2456] ; 0x140
005BB864  59F0     		ldr r0, [r6, +r7]

005BB866  F85F 79D4		ldr r7, [pc, #-2516] ; 0x7
005BB86A  55F0     		strb r0, [r6, +r7]

005BB86C  2005     		mov r0, #5 ; 5

005BB86E  F85F 7144		ldr r7, [pc, #-324] ; 0x12E
005BB872  55F0     		strb r0, [r6, +r7]

005BB874  F85F 714C		ldr r7, [pc, #-332] ; 0x12E
005BB878  5DF0     		ldrb r0, [r6, +r7]

005BB87A  B082     		sub sp, sp, #8
005BB87C  F8CD 0000		str r0, [sp]
005BB880  F85F 79F0		ldr r7, [pc, #-2544] ; 0x7
005BB884  5DF0     		ldrb r0, [r6, +r7]

005BB886  1D40     		add r0, r0, #5

005BB888  1E40     		sub r0, r0, #1

005BB88A  4607     		mov r7, r0
005BB88C  F8DD 0000		ldr r0, [sp]
005BB890  B002     		add sp, sp, #8
005BB892  42B8     		cmp r0, r7
005BB894  BFD8 2000		lemov r0, #0
005BB898  BFC8 2001		gtmov r0, #1

005BB89C  2800     		cmp r0, #0
005BB89E  D11D     		bne #58 ; 0x005BB8DC


005BB8A2  F85F 7A08		ldr r7, [pc, #-2568] ; 0x118
005BB8A6  F856 C007		ldr r12, [r6, +r7]
005BB8AA  F89C 0000		ldrb r0, [r12]
005BB8AE  F85F 7184		ldr r7, [pc, #-388] ; 0x12E
005BB8B2  5DF5     		ldrb r5, [r6, +r7]
005BB8B4  F85F 7A34		ldr r7, [pc, #-2612] ; 0x3
005BB8B8  EB07 0705		add r7, r7, r5, lsl #0
005BB8BC  55F0     		strb r0, [r6, +r7]

005BB8BE  F85F 7A24		ldr r7, [pc, #-2596] ; 0x118
005BB8C2  59F0     		ldr r0, [r6, +r7]

005BB8C4  1C40     		add r0, r0, #1

005BB8C6  F85F 7A2C		ldr r7, [pc, #-2604] ; 0x118
005BB8CA  51F0     		str r0, [r6, +r7]

005BB8CC  F85F 71A4		ldr r7, [pc, #-420] ; 0x12E
005BB8D0  5DF0     		ldrb r0, [r6, +r7]

005BB8D2  1C40     		add r0, r0, #1

005BB8D4  F85F 71AC		ldr r7, [pc, #-428] ; 0x12E
005BB8D8  55F0     		strb r0, [r6, +r7]

005BB8DA  E7CB     		b #-106 ; 0x005BB874

005BB8DC  F85F 71B4		ldr r7, [pc, #-436] ; 0x12E
005BB8E0  5DF0     		ldrb r0, [r6, +r7]
005BB8E2  F85F 7A3C		ldr r7, [pc, #-2620] ; 0x128
005BB8E6  55F0     		strb r0, [r6, +r7]

005BB8E8  2003     		mov r0, #3 ; 3
005BB8EA  F85F 7A4C		ldr r7, [pc, #-2636] ; 0x11C
005BB8EE  55F0     		strb r0, [r6, +r7]

005BB8F0  F85F 7A74		ldr r7, [pc, #-2676] ; 0x1
005BB8F4  5DF0     		ldrb r0, [r6, +r7]

005BB8F6  1C40     		add r0, r0, #1

005BB8F8  7030     		strb r0, [r6]

005BB8FA  20C8     		mov r0, #200 ; 200
005BB8FC  F85F 7A80		ldr r7, [pc, #-2688] ; 0x1
005BB900  55F0     		strb r0, [r6, +r7]

005BB902  F001 BADB		b #5558 ; 0x005BCEBC


005BB906  F85F 7A7C		ldr r7, [pc, #-2684] ; 0x5
005BB90A  5DF0     		ldrb r0, [r6, +r7]

005BB90C  F44F 7780		mov r7, #256 ; 256
005BB910  4378     		mul r0, r0, r7

005BB912  F85F 7A84		ldr r7, [pc, #-2692] ; 0x6
005BB916  5DF7     		ldrb r7, [r6, +r7]
005BB918  19C0     		add r0, r0, r7

005BB91A  1C40     		add r0, r0, #1

005BB91C  F85F 71EC		ldr r7, [pc, #-492] ; 0x5BA480
005BB920  883F     		ldrh r7, [r7]
005BB922  4038     		and r0, r0, r7

005BB924  F85F 7A60		ldr r7, [pc, #-2656] ; 0x13C
005BB928  5BF7     		ldrh r7, [r6, +r7]
005BB92A  42B8     		cmp r0, r7
005BB92C  BF08 2000		eqmov r0, #0
005BB930  BF18 2001		nemov r0, #1

005BB934  2800     		cmp r0, #0
005BB936  D006     		beq #12 ; 0x005BB946


005BB93A  20FB     		mov r0, #251 ; 251
005BB93C  F85F 7AC0		ldr r7, [pc, #-2752] ; 0x1
005BB940  55F0     		strb r0, [r6, +r7]

005BB942  F001 BABD		b #5498 ; 0x005BCEC0


005BB946  F85F 7AB4		ldr r7, [pc, #-2740] ; 0x7
005BB94A  5DF0     		ldrb r0, [r6, +r7]

005BB94C  F85F 7A84		ldr r7, [pc, #-2692] ; 0x140
005BB950  59F7     		ldr r7, [r6, +r7]
005BB952  42B8     		cmp r0, r7
005BB954  BF08 2000		eqmov r0, #0
005BB958  BF18 2001		nemov r0, #1

005BB95C  2800     		cmp r0, #0
005BB95E  D006     		beq #12 ; 0x005BB96E


005BB962  20FB     		mov r0, #251 ; 251
005BB964  F85F 7AE8		ldr r7, [pc, #-2792] ; 0x1
005BB968  55F0     		strb r0, [r6, +r7]

005BB96A  F001 BAA9		b #5458 ; 0x005BCEC0


005BB96E  2001     		mov r0, #1 ; 1
005BB970  F85F 7A94		ldr r7, [pc, #-2708] ; 0x151
005BB974  55F0     		strb r0, [r6, +r7]

005BB976  20BE     		mov r0, #190 ; 190
005BB978  F85F 7AFC		ldr r7, [pc, #-2812] ; 0x1
005BB97C  55F0     		strb r0, [r6, +r7]

005BB97E  F001 BA9D		b #5434 ; 0x005BCEBC


005BB982  2001     		mov r0, #1 ; 1

005BB984  4600     		mov r0, r0
005BB986  F85F 4A84		ldr r4, [pc, #-2692] ; 0x490519
005BB98A  F044 0401		orr r4, r4, #1
005BB98E  47A0     		blx r4

005BB990  F8DF 75CC		ldr r7, [pc, #+1484] ; 0x124
005BB994  51F0     		str r0, [r6, +r7]

005BB996  F85F 7AC0		ldr r7, [pc, #-2752] ; 0x14E
005BB99A  5BF0     		ldrh r0, [r6, +r7]

005BB99C  280A     		cmp r0, #10
005BB99E  BFA8 2000		gemov r0, #0
005BB9A2  BFB8 2001		ltmov r0, #1

005BB9A6  2800     		cmp r0, #0
005BB9A8  D006     		beq #12 ; 0x005BB9B8


005BB9AC  200A     		mov r0, #10 ; 10
005BB9AE  F85F 7B04		ldr r7, [pc, #-2820] ; 0x12A
005BB9B2  53F0     		strh r0, [r6, +r7]

005BB9B4  E006     		b #12 ; 0x005BB9C4


005BB9B8  F85F 7AE4		ldr r7, [pc, #-2788] ; 0x14E
005BB9BC  5BF0     		ldrh r0, [r6, +r7]
005BB9BE  F85F 7B14		ldr r7, [pc, #-2836] ; 0x12A
005BB9C2  53F0     		strh r0, [r6, +r7]

005BB9C4  F85F 7B48		ldr r7, [pc, #-2888] ; 0x1
005BB9C8  5DF0     		ldrb r0, [r6, +r7]

005BB9CA  1C40     		add r0, r0, #1

005BB9CC  F85F 7B50		ldr r7, [pc, #-2896] ; 0x1
005BB9D0  55F0     		strb r0, [r6, +r7]

005BB9D2  F001 BA73		b #5350 ; 0x005BCEBC


005BB9D6  2001     		mov r0, #1 ; 1

005BB9D8  4600     		mov r0, r0
005BB9DA  F85F 4AD8		ldr r4, [pc, #-2776] ; 0x490519
005BB9DE  F044 0401		orr r4, r4, #1
005BB9E2  47A0     		blx r4

005BB9E4  F8DF 7578		ldr r7, [pc, #+1400] ; 0x124
005BB9E8  59F7     		ldr r7, [r6, +r7]
005BB9EA  1BC0     		sub r0, r0, r7

005BB9EC  F85F 7B04		ldr r7, [pc, #-2820] ; 0x158
005BB9F0  51F0     		str r0, [r6, +r7]

005BB9F2  F85F 7B48		ldr r7, [pc, #-2888] ; 0x12A
005BB9F6  5BF0     		ldrh r0, [r6, +r7]

005BB9F8  F44F 777A		mov r7, #1000 ; 1000
005BB9FC  4378     		mul r0, r0, r7

005BB9FE  F85F 7B0C		ldr r7, [pc, #-2828] ; 0x160
005BBA02  51F0     		str r0, [r6, +r7]

005BBA04  F85F 7B1C		ldr r7, [pc, #-2844] ; 0x158
005BBA08  59F0     		ldr r0, [r6, +r7]

005BBA0A  F85F 7B18		ldr r7, [pc, #-2840] ; 0x160
005BBA0E  59F7     		ldr r7, [r6, +r7]
005BBA10  42B8     		cmp r0, r7
005BBA12  BF28 2000		hsmov r0, #0
005BBA16  BF38 2001		lomov r0, #1

005BBA1A  2800     		cmp r0, #0
005BBA1C  D002     		beq #4 ; 0x005BBA24


005BBA20  F001 BA4E		b #5276 ; 0x005BCEC0


005BBA24  2001     		mov r0, #1 ; 1
005BBA26  F85F 7B4C		ldr r7, [pc, #-2892] ; 0x150
005BBA2A  55F0     		strb r0, [r6, +r7]

005BBA2C  F001 BA48		b #5264 ; 0x005BCEC0


005BBA30  F001 BA44		b #5256 ; 0x005BCEBC


005BBA34  2001     		mov r0, #1 ; 1

005BBA36  4600     		mov r0, r0
005BBA38  F85F 4B38		ldr r4, [pc, #-2872] ; 0x490519
005BBA3C  F044 0401		orr r4, r4, #1
005BBA40  47A0     		blx r4

005BBA42  F8DF 751C		ldr r7, [pc, #+1308] ; 0x124
005BBA46  59F7     		ldr r7, [r6, +r7]
005BBA48  1BC0     		sub r0, r0, r7

005BBA4A  F85F 7B60		ldr r7, [pc, #-2912] ; 0x158
005BBA4E  51F0     		str r0, [r6, +r7]

005BBA50  F85F 7BA8		ldr r7, [pc, #-2984] ; 0x12A
005BBA54  5BF0     		ldrh r0, [r6, +r7]

005BBA56  F44F 777A		mov r7, #1000 ; 1000
005BBA5A  4378     		mul r0, r0, r7

005BBA5C  F85F 7B6C		ldr r7, [pc, #-2924] ; 0x160
005BBA60  51F0     		str r0, [r6, +r7]

005BBA62  F85F 7B78		ldr r7, [pc, #-2936] ; 0x158
005BBA66  59F0     		ldr r0, [r6, +r7]

005BBA68  F85F 7B78		ldr r7, [pc, #-2936] ; 0x160
005BBA6C  59F7     		ldr r7, [r6, +r7]
005BBA6E  42B8     		cmp r0, r7
005BBA70  BF28 2000		hsmov r0, #0
005BBA74  BF38 2001		lomov r0, #1

005BBA78  2800     		cmp r0, #0
005BBA7A  D002     		beq #4 ; 0x005BBA82


005BBA7E  F001 BA1F		b #5182 ; 0x005BCEC0


005BBA82  2001     		mov r0, #1 ; 1
005BBA84  F85F 7BA4		ldr r7, [pc, #-2980] ; 0x152
005BBA88  55F0     		strb r0, [r6, +r7]

005BBA8A  F001 BA19		b #5170 ; 0x005BCEC0


005BBA8E  F001 BA15		b #5162 ; 0x005BCEBC


005BBA92  F85F 7BD8		ldr r7, [pc, #-3032] ; 0x138
005BBA96  5DF0     		ldrb r0, [r6, +r7]

005BBA98  2800     		cmp r0, #0
005BBA9A  BF18 2000		nemov r0, #0
005BBA9E  BF08 2001		eqmov r0, #1

005BBAA2  2800     		cmp r0, #0
005BBAA4  D118     		bne #48 ; 0x005BBAD8


005BBAA8  F85F 7BF0		ldr r7, [pc, #-3056] ; 0x138
005BBAAC  5DF0     		ldrb r0, [r6, +r7]

005BBAAE  2801     		cmp r0, #1
005BBAB0  BF18 2000		nemov r0, #0
005BBAB4  BF08 2001		eqmov r0, #1

005BBAB8  2800     		cmp r0, #0
005BBABA  D15C     		bne #184 ; 0x005BBB76


005BBABE  F85F 7C04		ldr r7, [pc, #-3076] ; 0x138
005BBAC2  5DF0     		ldrb r0, [r6, +r7]

005BBAC4  2802     		cmp r0, #2
005BBAC6  BF18 2000		nemov r0, #0
005BBACA  BF08 2001		eqmov r0, #1

005BBACE  2800     		cmp r0, #0
005BBAD0  F040 809C		bne #312 ; 0x005BBC0C


005BBAD4  E103     		b #518 ; 0x005BBCDE


005BBAD8  4630     		mov r0, r6
005BBADA  F85F 7C58		ldr r7, [pc, #-3160] ; 0x3
005BBADE  19C0     		add r0, r0, r7

005BBAE0  F8DF 746C		ldr r7, [pc, #+1132] ; 0x10C
005BBAE4  51F0     		str r0, [r6, +r7]

005BBAE6  F85F 7C40		ldr r7, [pc, #-3136] ; 0x128
005BBAEA  5DF0     		ldrb r0, [r6, +r7]
005BBAEC  F8DF 7464		ldr r7, [pc, #+1124] ; 0x110
005BBAF0  53F0     		strh r0, [r6, +r7]

005BBAF2  F8DF 74BC		ldr r7, [pc, #+1212] ; 0x5BA3DC
005BBAF6  8838     		ldrh r0, [r7]
005BBAF8  F8DF 745C		ldr r7, [pc, #+1116] ; 0x112
005BBAFC  53F0     		strh r0, [r6, +r7]

005BBAFE  E92D 0021		stmdb sp!, { r0, r5 }
005BBB02  F8DF 7448		ldr r7, [pc, #+1096] ; 0x104
005BBB06  19F0     		add r0, r6, r7
005BBB08  F8DF 4484		ldr r4, [pc, #+1156] ; 0x48D50D
005BBB0C  F044 0401		orr r4, r4, #1
005BBB10  47A0     		blx r4
005BBB12  E8BD 0021		ldmia sp!, { r0, r5 }

005BBB16  F8DF 7444		ldr r7, [pc, #+1092] ; 0x114
005BBB1A  5BF0     		ldrh r0, [r6, +r7]

005BBB1C  B082     		sub sp, sp, #8
005BBB1E  F8CD 1000		str r1, [sp]
005BBB22  F44F 7180		mov r1, #256 ; 256
005BBB26  FBB0 F0F1		udiv r0, r0, r1
005BBB2A  F8DD 1000		ldr r1, [sp]
005BBB2E  B002     		add sp, sp, #8

005BBB30  F85F 7C8C		ldr r7, [pc, #-3212] ; 0x128
005BBB34  5DF5     		ldrb r5, [r6, +r7]
005BBB36  F85F 7CB4		ldr r7, [pc, #-3252] ; 0x3
005BBB3A  EB07 0705		add r7, r7, r5, lsl #0
005BBB3E  55F0     		strb r0, [r6, +r7]

005BBB40  F85F 7C9C		ldr r7, [pc, #-3228] ; 0x128
005BBB44  5DF0     		ldrb r0, [r6, +r7]

005BBB46  1C40     		add r0, r0, #1

005BBB48  F85F 741C		ldr r7, [pc, #-1052] ; 0x16C
005BBB4C  55F0     		strb r0, [r6, +r7]

005BBB4E  F8DF 740C		ldr r7, [pc, #+1036] ; 0x114
005BBB52  5BF0     		ldrh r0, [r6, +r7]

005BBB54  F85F 7428		ldr r7, [pc, #-1064] ; 0x16C
005BBB58  5DF5     		ldrb r5, [r6, +r7]
005BBB5A  F85F 7CD8		ldr r7, [pc, #-3288] ; 0x3
005BBB5E  EB07 0705		add r7, r7, r5, lsl #0
005BBB62  55F0     		strb r0, [r6, +r7]

005BBB64  F85F 7CC0		ldr r7, [pc, #-3264] ; 0x128
005BBB68  5DF0     		ldrb r0, [r6, +r7]

005BBB6A  1C80     		add r0, r0, #2

005BBB6C  F85F 7CC8		ldr r7, [pc, #-3272] ; 0x128
005BBB70  55F0     		strb r0, [r6, +r7]

005BBB72  E0B4     		b #360 ; 0x005BBCDE


005BBB76  2000     		mov r0, #0 ; 0
005BBB78  F8DF 73C8		ldr r7, [pc, #+968] ; 0x2
005BBB7C  55F0     		strb r0, [r6, +r7]

005BBB7E  2000     		mov r0, #0 ; 0

005BBB80  F85F 7CD8		ldr r7, [pc, #-3288] ; 0x12A
005BBB84  53F0     		strh r0, [r6, +r7]

005BBB86  F85F 7CDC		ldr r7, [pc, #-3292] ; 0x12A
005BBB8A  5BF0     		ldrh r0, [r6, +r7]

005BBB8C  B082     		sub sp, sp, #8
005BBB8E  F8CD 0000		str r0, [sp]
005BBB92  F85F 7CEC		ldr r7, [pc, #-3308] ; 0x128
005BBB96  5DF0     		ldrb r0, [r6, +r7]

005BBB98  1E40     		sub r0, r0, #1

005BBB9A  4607     		mov r7, r0
005BBB9C  F8DD 0000		ldr r0, [sp]
005BBBA0  B002     		add sp, sp, #8
005BBBA2  42B8     		cmp r0, r7
005BBBA4  BFD8 2000		lemov r0, #0
005BBBA8  BFC8 2001		gtmov r0, #1

005BBBAC  2800     		cmp r0, #0
005BBBAE  D117     		bne #46 ; 0x005BBBE0


005BBBB2  F8DF 7390		ldr r7, [pc, #+912] ; 0x2
005BBBB6  5DF0     		ldrb r0, [r6, +r7]

005BBBB8  F85F 7D10		ldr r7, [pc, #-3344] ; 0x12A
005BBBBC  5BF5     		ldrh r5, [r6, +r7]
005BBBBE  F85F 7D3C		ldr r7, [pc, #-3388] ; 0x3
005BBBC2  EB07 0705		add r7, r7, r5, lsl #0
005BBBC6  5DF7     		ldrb r7, [r6, +r7]
005BBBC8  19C0     		add r0, r0, r7

005BBBCA  F8DF 7378		ldr r7, [pc, #+888] ; 0x2
005BBBCE  55F0     		strb r0, [r6, +r7]

005BBBD0  F85F 7D28		ldr r7, [pc, #-3368] ; 0x12A
005BBBD4  5BF0     		ldrh r0, [r6, +r7]

005BBBD6  1C40     		add r0, r0, #1

005BBBD8  F85F 7D30		ldr r7, [pc, #-3376] ; 0x12A
005BBBDC  53F0     		strh r0, [r6, +r7]

005BBBDE  E7D2     		b #-92 ; 0x005BBB86

005BBBE0  2000     		mov r0, #0 ; 0

005BBBE2  F8DF 7360		ldr r7, [pc, #+864] ; 0x2
005BBBE6  5DF7     		ldrb r7, [r6, +r7]
005BBBE8  1BC0     		sub r0, r0, r7

005BBBEA  F85F 7D44		ldr r7, [pc, #-3396] ; 0x128
005BBBEE  5DF5     		ldrb r5, [r6, +r7]
005BBBF0  F85F 7D70		ldr r7, [pc, #-3440] ; 0x3
005BBBF4  EB07 0705		add r7, r7, r5, lsl #0
005BBBF8  55F0     		strb r0, [r6, +r7]

005BBBFA  F85F 7D54		ldr r7, [pc, #-3412] ; 0x128
005BBBFE  5DF0     		ldrb r0, [r6, +r7]

005BBC00  1C40     		add r0, r0, #1

005BBC02  F85F 7D5C		ldr r7, [pc, #-3420] ; 0x128
005BBC06  55F0     		strb r0, [r6, +r7]

005BBC08  E069     		b #210 ; 0x005BBCDE


005BBC0C  2000     		mov r0, #0 ; 0

005BBC0E  F85F 7D64		ldr r7, [pc, #-3428] ; 0x12A
005BBC12  53F0     		strh r0, [r6, +r7]

005BBC14  F85F 7D6C		ldr r7, [pc, #-3436] ; 0x12A
005BBC18  5BF0     		ldrh r0, [r6, +r7]

005BBC1A  F85F 7D74		ldr r7, [pc, #-3444] ; 0x128
005BBC1E  5DF7     		ldrb r7, [r6, +r7]
005BBC20  42B8     		cmp r0, r7
005BBC22  BFD8 2000		lemov r0, #0
005BBC26  BFC8 2001		gtmov r0, #1

005BBC2A  2800     		cmp r0, #0
005BBC2C  D12D     		bne #90 ; 0x005BBC8A


005BBC30  F85F 7D8C		ldr r7, [pc, #-3468] ; 0x128
005BBC34  5DF0     		ldrb r0, [r6, +r7]

005BBC36  F85F 7D8C		ldr r7, [pc, #-3468] ; 0x12A
005BBC3A  5BF7     		ldrh r7, [r6, +r7]
005BBC3C  1BC0     		sub r0, r0, r7

005BBC3E  1D80     		add r0, r0, #6

005BBC40  F85F 7D54		ldr r7, [pc, #-3412] ; 0x15C
005BBC44  53F0     		strh r0, [r6, +r7]

005BBC46  F85F 7DA0		ldr r7, [pc, #-3488] ; 0x128
005BBC4A  5DF0     		ldrb r0, [r6, +r7]

005BBC4C  F85F 7DA4		ldr r7, [pc, #-3492] ; 0x12A
005BBC50  5BF7     		ldrh r7, [r6, +r7]
005BBC52  1BC0     		sub r0, r0, r7

005BBC54  F8DF 7328		ldr r7, [pc, #+808] ; 0x16E
005BBC58  53F0     		strh r0, [r6, +r7]

005BBC5A  F8DF 7324		ldr r7, [pc, #+804] ; 0x16E
005BBC5E  5BF5     		ldrh r5, [r6, +r7]
005BBC60  F85F 7DE0		ldr r7, [pc, #-3552] ; 0x3
005BBC64  EB07 0705		add r7, r7, r5, lsl #0
005BBC68  5DF0     		ldrb r0, [r6, +r7]
005BBC6A  F85F 7D7C		ldr r7, [pc, #-3452] ; 0x15C
005BBC6E  5BF5     		ldrh r5, [r6, +r7]
005BBC70  F85F 7DF0		ldr r7, [pc, #-3568] ; 0x3
005BBC74  EB07 0705		add r7, r7, r5, lsl #0
005BBC78  55F0     		strb r0, [r6, +r7]

005BBC7A  F85F 7DD0		ldr r7, [pc, #-3536] ; 0x12A
005BBC7E  5BF0     		ldrh r0, [r6, +r7]

005BBC80  1C40     		add r0, r0, #1

005BBC82  F85F 7DD8		ldr r7, [pc, #-3544] ; 0x12A
005BBC86  53F0     		strh r0, [r6, +r7]

005BBC88  E7C4     		b #-120 ; 0x005BBC14

005BBC8A  F8DF 72E0		ldr r7, [pc, #+736] ; 0x12D
005BBC8E  5DF0     		ldrb r0, [r6, +r7]

005BBC90  1C40     		add r0, r0, #1

005BBC92  F8DF 72D8		ldr r7, [pc, #+728] ; 0x12D
005BBC96  55F0     		strb r0, [r6, +r7]

005BBC98  2000     		mov r0, #0 ; 0
005BBC9A  F85F 7E18		ldr r7, [pc, #-3608] ; 0x3
005BBC9E  55F0     		strb r0, [r6, +r7]

005BBCA0  F8DF 72C8		ldr r7, [pc, #+712] ; 0x12D
005BBCA4  5DF0     		ldrb r0, [r6, +r7]
005BBCA6  F85F 7E20		ldr r7, [pc, #-3616] ; 0x4
005BBCAA  55F0     		strb r0, [r6, +r7]

005BBCAC  2000     		mov r0, #0 ; 0
005BBCAE  F85F 7E24		ldr r7, [pc, #-3620] ; 0x5
005BBCB2  55F0     		strb r0, [r6, +r7]

005BBCB4  2000     		mov r0, #0 ; 0
005BBCB6  F85F 7E28		ldr r7, [pc, #-3624] ; 0x6
005BBCBA  55F0     		strb r0, [r6, +r7]

005BBCBC  2000     		mov r0, #0 ; 0
005BBCBE  F85F 7E2C		ldr r7, [pc, #-3628] ; 0x7
005BBCC2  55F0     		strb r0, [r6, +r7]

005BBCC4  F85F 7E20		ldr r7, [pc, #-3616] ; 0x128
005BBCC8  5DF0     		ldrb r0, [r6, +r7]
005BBCCA  F85F 7E34		ldr r7, [pc, #-3636] ; 0x8
005BBCCE  55F0     		strb r0, [r6, +r7]

005BBCD0  F85F 7E2C		ldr r7, [pc, #-3628] ; 0x128
005BBCD4  5DF0     		ldrb r0, [r6, +r7]

005BBCD6  1D80     		add r0, r0, #6

005BBCD8  F85F 7E34		ldr r7, [pc, #-3636] ; 0x128
005BBCDC  55F0     		strb r0, [r6, +r7]

005BBCDE  F85F 7E60		ldr r7, [pc, #-3680] ; 0x1
005BBCE2  5DF0     		ldrb r0, [r6, +r7]

005BBCE4  1C40     		add r0, r0, #1

005BBCE6  F85F 7E68		ldr r7, [pc, #-3688] ; 0x1
005BBCEA  55F0     		strb r0, [r6, +r7]

005BBCEC  F001 B8E6		b #4556 ; 0x005BCEBC


005BBCF0  F85F 7E40		ldr r7, [pc, #-3648] ; 0x130
005BBCF4  5DF0     		ldrb r0, [r6, +r7]

005BBCF6  2800     		cmp r0, #0
005BBCF8  D014     		beq #40 ; 0x005BBD24


005BBCFC  2000     		mov r0, #0 ; 0

005BBCFE  2300     		mov r3, #0 ; 0
005BBD00  2200     		mov r2, #0 ; 0
005BBD02  2100     		mov r1, #0 ; 0
005BBD04  4600     		mov r0, r0
005BBD06  F85F 4E08		ldr r4, [pc, #-3592] ; 0x48FE35
005BBD0A  F044 0401		orr r4, r4, #1
005BBD0E  47A0     		blx r4

005BBD10  2800     		cmp r0, #0
005BBD12  BF08 2001		eqmov r0, #1
005BBD16  BF18 2000		nemov r0, #0

005BBD1A  2800     		cmp r0, #0
005BBD1C  D002     		beq #4 ; 0x005BBD24


005BBD20  F001 B8CE		b #4508 ; 0x005BCEC0


005BBD24  F85F 7E70		ldr r7, [pc, #-3696] ; 0x134
005BBD28  59F0     		ldr r0, [r6, +r7]

005BBD2A  4600     		mov r0, r0
005BBD2C  F8DF 4270		ldr r4, [pc, #+624] ; 0x490CBD
005BBD30  F044 0401		orr r4, r4, #1
005BBD34  47A0     		blx r4

005BBD36  F8DF 724C		ldr r7, [pc, #+588] ; 0x170
005BBD3A  53F0     		strh r0, [r6, +r7]

005BBD3C  F85F 7E88		ldr r7, [pc, #-3720] ; 0x134
005BBD40  59F0     		ldr r0, [r6, +r7]

005BBD42  4600     		mov r0, r0
005BBD44  F8DF 425C		ldr r4, [pc, #+604] ; 0x490D6D
005BBD48  F044 0401		orr r4, r4, #1
005BBD4C  47A0     		blx r4

005BBD4E  F85F 7E64		ldr r7, [pc, #-3684] ; 0x158
005BBD52  51F0     		str r0, [r6, +r7]

005BBD54  F85F 7E6C		ldr r7, [pc, #-3692] ; 0x158
005BBD58  59F0     		ldr r0, [r6, +r7]

005BBD5A  F8DF 722C		ldr r7, [pc, #+556] ; 0x172
005BBD5E  53F0     		strh r0, [r6, +r7]

005BBD60  F8DF 7220		ldr r7, [pc, #+544] ; 0x170
005BBD64  5FF0     		ldrsh r0, [r6, +r7]

005BBD66  F8DF 7220		ldr r7, [pc, #+544] ; 0x172
005BBD6A  5FF7     		ldrsh r7, [r6, +r7]
005BBD6C  42B8     		cmp r0, r7
005BBD6E  BF08 2000		eqmov r0, #0
005BBD72  BF18 2001		nemov r0, #1

005BBD76  2800     		cmp r0, #0
005BBD78  D002     		beq #4 ; 0x005BBD80


005BBD7C  F001 B8A0		b #4416 ; 0x005BCEC0


005BBD80  F85F 7ECC		ldr r7, [pc, #-3788] ; 0x134
005BBD84  59F0     		ldr r0, [r6, +r7]

005BBD86  4600     		mov r0, r0
005BBD88  F8DF 421C		ldr r4, [pc, #+540] ; 0x490DC5
005BBD8C  F044 0401		orr r4, r4, #1
005BBD90  47A0     		blx r4

005BBD92  F85F 7EE8		ldr r7, [pc, #-3816] ; 0x12A
005BBD96  53F0     		strh r0, [r6, +r7]

005BBD98  F85F 7EE0		ldr r7, [pc, #-3808] ; 0x138
005BBD9C  5DF0     		ldrb r0, [r6, +r7]

005BBD9E  2801     		cmp r0, #1
005BBDA0  BF08 2000		eqmov r0, #0
005BBDA4  BF18 2001		nemov r0, #1

005BBDA8  2800     		cmp r0, #0
005BBDAA  F000 8090		beq #288 ; 0x005BBECE


005BBDAE  F85F 7EFC		ldr r7, [pc, #-3836] ; 0x130
005BBDB2  5DF0     		ldrb r0, [r6, +r7]

005BBDB4  2800     		cmp r0, #0
005BBDB6  D042     		beq #132 ; 0x005BBE3E


005BBDBA  F85F 7F14		ldr r7, [pc, #-3860] ; 0x128
005BBDBE  5DF0     		ldrb r0, [r6, +r7]
005BBDC0  F85F 7F18		ldr r7, [pc, #-3864] ; 0x12A
005BBDC4  53F0     		strh r0, [r6, +r7]

005BBDC6  F85F 7F1C		ldr r7, [pc, #-3868] ; 0x12A
005BBDCA  5BF0     		ldrh r0, [r6, +r7]

005BBDCC  283F     		cmp r0, #63
005BBDCE  BFD8 2000		lemov r0, #0
005BBDD2  BFC8 2001		gtmov r0, #1

005BBDD6  2800     		cmp r0, #0
005BBDD8  D004     		beq #8 ; 0x005BBDE4


005BBDDC  203F     		mov r0, #63 ; 63
005BBDDE  F85F 7F34		ldr r7, [pc, #-3892] ; 0x12A
005BBDE2  53F0     		strh r0, [r6, +r7]

005BBDE4  2064     		mov r0, #100 ; 100

005BBDE6  F85F 7F3C		ldr r7, [pc, #-3900] ; 0x12A
005BBDEA  5BF7     		ldrh r7, [r6, +r7]
005BBDEC  19C0     		add r0, r0, r7

005BBDEE  F85F 7F00		ldr r7, [pc, #-3840] ; 0x15C
005BBDF2  53F0     		strh r0, [r6, +r7]

005BBDF4  F85F 7F08		ldr r7, [pc, #-3848] ; 0x15C
005BBDF8  5BF0     		ldrh r0, [r6, +r7]

005BBDFA  F85F 76CC		ldr r7, [pc, #-1740] ; 0x16C
005BBDFE  55F0     		strb r0, [r6, +r7]

005BBE00  F8DF 01A8		ldr r0, [pc, #+424] ; 0x5BA0E8

005BBE04  F85F 7F10		ldr r7, [pc, #-3856] ; 0x164
005BBE08  51F0     		str r0, [r6, +r7]

005BBE0A  4630     		mov r0, r6
005BBE0C  F85F 7F8C		ldr r7, [pc, #-3980] ; 0x3
005BBE10  19C0     		add r0, r0, r7

005BBE12  F85F 7F18		ldr r7, [pc, #-3864] ; 0x168
005BBE16  51F0     		str r0, [r6, +r7]

005BBE18  F85F 76EC		ldr r7, [pc, #-1772] ; 0x16C
005BBE1C  5DF0     		ldrb r0, [r6, +r7]

005BBE1E  F85F 7F24		ldr r7, [pc, #-3876] ; 0x168
005BBE22  59F3     		ldr r3, [r6, +r7]
005BBE24  F85F 7F30		ldr r7, [pc, #-3888] ; 0x164
005BBE28  59F2     		ldr r2, [r6, +r7]
005BBE2A  2101     		mov r1, #1 ; 1
005BBE2C  4600     		mov r0, r0
005BBE2E  F85F 4F30		ldr r4, [pc, #-3888] ; 0x48FE35
005BBE32  F044 0401		orr r4, r4, #1
005BBE36  47A0     		blx r4

005BBE38  F85F 7F90		ldr r7, [pc, #-3984] ; 0x12A
005BBE3C  53F0     		strh r0, [r6, +r7]

005BBE3E  4630     		mov r0, r6
005BBE40  F85F 7FC0		ldr r7, [pc, #-4032] ; 0x3
005BBE44  19C0     		add r0, r0, r7

005BBE46  F85F 7F50		ldr r7, [pc, #-3920] ; 0x164
005BBE4A  51F0     		str r0, [r6, +r7]

005BBE4C  F85F 7FA8		ldr r7, [pc, #-4008] ; 0x128
005BBE50  5DF0     		ldrb r0, [r6, +r7]

005BBE52  F8DF 7130		ldr r7, [pc, #+304] ; 0x170
005BBE56  53F0     		strh r0, [r6, +r7]

005BBE58  F85F 7F64		ldr r7, [pc, #-3940] ; 0x164
005BBE5C  59F0     		ldr r0, [r6, +r7]

005BBE5E  F85F 7FA8		ldr r7, [pc, #-4008] ; 0x134
005BBE62  59F3     		ldr r3, [r6, +r7]
005BBE64  F8DF 711C		ldr r7, [pc, #+284] ; 0x170
005BBE68  5FF2     		ldrsh r2, [r6, +r7]
005BBE6A  2101     		mov r1, #1 ; 1
005BBE6C  4600     		mov r0, r0
005BBE6E  F8DF 412C		ldr r4, [pc, #+300] ; 0x490C01
005BBE72  F044 0401		orr r4, r4, #1
005BBE76  47A0     		blx r4

005BBE78  F8DF 710C		ldr r7, [pc, #+268] ; 0x172
005BBE7C  53F0     		strh r0, [r6, +r7]

005BBE7E  F85F 7FD8		ldr r7, [pc, #-4056] ; 0x128
005BBE82  5DF0     		ldrb r0, [r6, +r7]

005BBE84  F8DF 7104		ldr r7, [pc, #+260] ; 0x174
005BBE88  53F0     		strh r0, [r6, +r7]

005BBE8A  F8DF 70FC		ldr r7, [pc, #+252] ; 0x172
005BBE8E  5FF0     		ldrsh r0, [r6, +r7]

005BBE90  F8DF 70F8		ldr r7, [pc, #+248] ; 0x174
005BBE94  5FF7     		ldrsh r7, [r6, +r7]
005BBE96  42B8     		cmp r0, r7
005BBE98  BF08 2000		eqmov r0, #0
005BBE9C  BF18 2001		nemov r0, #1

005BBEA0  2800     		cmp r0, #0
005BBEA2  D012     		beq #36 ; 0x005BBECA


005BBEA6  F8DF 710C		ldr r7, [pc, #+268] ; 0x5BA484
005BBEAA  6838     		ldr r0, [r7]

005BBEAC  4600     		mov r0, r0
005BBEAE  F85F 4FA8		ldr r4, [pc, #-4008] ; 0x490561
005BBEB2  F044 0401		orr r4, r4, #1
005BBEB6  47A0     		blx r4

005BBEB8  F8DF 70A8		ldr r7, [pc, #+168] ; 0x12A
005BBEBC  53F0     		strh r0, [r6, +r7]

005BBEBE  20C3     		mov r0, #195 ; 195
005BBEC0  F8DF 707C		ldr r7, [pc, #+124] ; 0x1
005BBEC4  55F0     		strb r0, [r6, +r7]

005BBEC6  F000 BFFB		b #4086 ; 0x005BCEC0


005BBECA  E190     		b #800 ; 0x005BC1EE


005BBECE  2000     		mov r0, #0 ; 0
005BBED0  F8DF 7094		ldr r7, [pc, #+148] ; 0x12C
005BBED4  55F0     		strb r0, [r6, +r7]

005BBED6  F8DF 7098		ldr r7, [pc, #+152] ; 0x130
005BBEDA  5DF0     		ldrb r0, [r6, +r7]

005BBEDC  2800     		cmp r0, #0
005BBEDE  D01D     		beq #58 ; 0x005BBF1C


005BBEE2  F8DF 00C8		ldr r0, [pc, #+200] ; 0x5BA0E8

005BBEE6  F85F 7FF0		ldr r7, [pc, #-4080] ; 0x164
005BBEEA  51F0     		str r0, [r6, +r7]

005BBEEC  4630     		mov r0, r6
005BBEEE  F8DF 7058		ldr r7, [pc, #+88] ; 0x3
005BBEF2  19C0     		add r0, r0, r7

005BBEF4  F85F 7FFC		ldr r7, [pc, #-4092] ; 0x168
005BBEF8  51F0     		str r0, [r6, +r7]

005BBEFA  2001     		mov r0, #1 ; 1

005BBEFC  F8DF 707C		ldr r7, [pc, #+124] ; 0x168
005BBF00  59F3     		ldr r3, [r6, +r7]
005BBF02  F8DF 7074		ldr r7, [pc, #+116] ; 0x164
005BBF06  59F2     		ldr r2, [r6, +r7]
005BBF08  2101     		mov r1, #1 ; 1
005BBF0A  4600     		mov r0, r0
005BBF0C  F8DF 4084		ldr r4, [pc, #+132] ; 0x48FE35
005BBF10  F044 0401		orr r4, r4, #1
005BBF14  47A0     		blx r4

005BBF16  F8DF 704C		ldr r7, [pc, #+76] ; 0x12A
005BBF1A  53F0     		strh r0, [r6, +r7]

005BBF1C  203A     		mov r0, #58 ; 58

005BBF1E  F8DF 7064		ldr r7, [pc, #+100] ; 0x170
005BBF22  53F0     		strh r0, [r6, +r7]

005BBF24  F8DF 705C		ldr r7, [pc, #+92] ; 0x170
005BBF28  5FF0     		ldrsh r0, [r6, +r7]

005BBF2A  F8DF 7048		ldr r7, [pc, #+72] ; 0x134
005BBF2E  59F1     		ldr r1, [r6, +r7]
005BBF30  4600     		mov r0, r0
005BBF32  F8DF 4064		ldr r4, [pc, #+100] ; 0x490B3D
005BBF36  F044 0401		orr r4, r4, #1
005BBF3A  47A0     		blx r4

005BBF3C  E03C     		b #120

005BBF40  00000001		; 0x00000001
005BBF44  00000002		; 0x00000002
005BBF48  00000003		; 0x00000003
005BBF4C  00000104		; 0x00000104
005BBF50  0000010C		; 0x0000010C
005BBF54  00000110		; 0x00000110
005BBF58  00000112		; 0x00000112
005BBF5C  00000114		; 0x00000114
005BBF60  00000124		; 0x00000124
005BBF64  0000012A		; 0x0000012A
005BBF68  0000012C		; 0x0000012C
005BBF6C  0000012D		; 0x0000012D
005BBF70  00000130		; 0x00000130
005BBF74  00000134		; 0x00000134
005BBF78  00000164		; 0x00000164
005BBF7C  00000168		; 0x00000168
005BBF80  0000016E		; 0x0000016E
005BBF84  00000170		; 0x00000170
005BBF88  00000172		; 0x00000172
005BBF8C  00000174		; 0x00000174
005BBF90  0048D50D		; 0x0048D50D
005BBF94  0048FE35		; 0x0048FE35
005BBF98  00490B3D		; 0x00490B3D
005BBF9C  00490C01		; 0x00490C01
005BBFA0  00490CBD		; 0x00490CBD
005BBFA4  00490D6D		; 0x00490D6D
005BBFA8  00490DC5		; 0x00490DC5
005BBFAC  005BA0E8		; 0x005BA0E8
005BBFB0  005BA3DC		; 0x005BA3DC
005BBFB4  005BA484		; 0x005BA484

005BBFB8  F04F 37FF		mov r7, #4294967295 ; 4294967295
005BBFBC  42B8     		cmp r0, r7
005BBFBE  BF18 2000		nemov r0, #0
005BBFC2  BF08 2001		eqmov r0, #1

005BBFC6  2800     		cmp r0, #0
005BBFC8  D004     		beq #8 ; 0x005BBFD4


005BBFCC  2001     		mov r0, #1 ; 1
005BBFCE  F85F 7068		ldr r7, [pc, #-104] ; 0x12C
005BBFD2  55F0     		strb r0, [r6, +r7]

005BBFD4  2000     		mov r0, #0 ; 0

005BBFD6  F85F 78AC		ldr r7, [pc, #-2220] ; 0x12E
005BBFDA  55F0     		strb r0, [r6, +r7]

005BBFDC  F85F 78B4		ldr r7, [pc, #-2228] ; 0x12E
005BBFE0  5DF0     		ldrb r0, [r6, +r7]

005BBFE2  B082     		sub sp, sp, #8
005BBFE4  F8CD 0000		str r0, [sp]
005BBFE8  F8DF 77D0		ldr r7, [pc, #+2000] ; 0x128
005BBFEC  5DF0     		ldrb r0, [r6, +r7]

005BBFEE  1E40     		sub r0, r0, #1

005BBFF0  4607     		mov r7, r0
005BBFF2  F8DD 0000		ldr r0, [sp]
005BBFF6  B002     		add sp, sp, #8
005BBFF8  42B8     		cmp r0, r7
005BBFFA  BFD8 2000		lemov r0, #0
005BBFFE  BFC8 2001		gtmov r0, #1

005BC002  2800     		cmp r0, #0
005BC004  F040 809F		bne #318 ; 0x005BC146


005BC008  F85F 78E0		ldr r7, [pc, #-2272] ; 0x12E
005BC00C  5DF5     		ldrb r5, [r6, +r7]
005BC00E  F85F 70C8		ldr r7, [pc, #-200] ; 0x3
005BC012  EB07 0705		add r7, r7, r5, lsl #0
005BC016  5DF0     		ldrb r0, [r6, +r7]

005BC018  B082     		sub sp, sp, #8
005BC01A  F8CD 1000		str r1, [sp]
005BC01E  2110     		mov r1, #16 ; 16
005BC020  FBB0 F0F1		udiv r0, r0, r1
005BC024  F8DD 1000		ldr r1, [sp]
005BC028  B002     		add sp, sp, #8

005BC02A  F85F 70E8		ldr r7, [pc, #-232] ; 0x2
005BC02E  55F0     		strb r0, [r6, +r7]

005BC030  F85F 70F0		ldr r7, [pc, #-240] ; 0x2
005BC034  5DF0     		ldrb r0, [r6, +r7]

005BC036  2809     		cmp r0, #9
005BC038  BFC8 2000		gtmov r0, #0
005BC03C  BFD8 2001		lemov r0, #1

005BC040  2800     		cmp r0, #0
005BC042  D009     		beq #18 ; 0x005BC058


005BC046  F85F 7104		ldr r7, [pc, #-260] ; 0x2
005BC04A  5DF0     		ldrb r0, [r6, +r7]

005BC04C  3030     		add r0, r0, #48

005BC04E  F85F 710C		ldr r7, [pc, #-268] ; 0x2
005BC052  55F0     		strb r0, [r6, +r7]

005BC054  E007     		b #14 ; 0x005BC066


005BC058  F85F 7118		ldr r7, [pc, #-280] ; 0x2
005BC05C  5DF0     		ldrb r0, [r6, +r7]

005BC05E  3037     		add r0, r0, #55

005BC060  F85F 7120		ldr r7, [pc, #-288] ; 0x2
005BC064  55F0     		strb r0, [r6, +r7]

005BC066  F85F 7124		ldr r7, [pc, #-292] ; 0x2
005BC06A  5DF0     		ldrb r0, [r6, +r7]

005BC06C  F85F 70EC		ldr r7, [pc, #-236] ; 0x170
005BC070  53F0     		strh r0, [r6, +r7]

005BC072  F85F 70F0		ldr r7, [pc, #-240] ; 0x170
005BC076  5FF0     		ldrsh r0, [r6, +r7]

005BC078  F85F 7108		ldr r7, [pc, #-264] ; 0x134
005BC07C  59F1     		ldr r1, [r6, +r7]
005BC07E  4600     		mov r0, r0
005BC080  F85F 40EC		ldr r4, [pc, #-236] ; 0x490B3D
005BC084  F044 0401		orr r4, r4, #1
005BC088  47A0     		blx r4

005BC08A  F04F 37FF		mov r7, #4294967295 ; 4294967295
005BC08E  42B8     		cmp r0, r7
005BC090  BF18 2000		nemov r0, #0
005BC094  BF08 2001		eqmov r0, #1

005BC098  2800     		cmp r0, #0
005BC09A  D004     		beq #8 ; 0x005BC0A6


005BC09E  2001     		mov r0, #1 ; 1
005BC0A0  F85F 713C		ldr r7, [pc, #-316] ; 0x12C
005BC0A4  55F0     		strb r0, [r6, +r7]

005BC0A6  F85F 797C		ldr r7, [pc, #-2428] ; 0x12E
005BC0AA  5DF5     		ldrb r5, [r6, +r7]
005BC0AC  F85F 7168		ldr r7, [pc, #-360] ; 0x3
005BC0B0  EB07 0705		add r7, r7, r5, lsl #0
005BC0B4  5DF0     		ldrb r0, [r6, +r7]

005BC0B6  270F     		mov r7, #15 ; 15
005BC0B8  4038     		and r0, r0, r7

005BC0BA  F85F 7178		ldr r7, [pc, #-376] ; 0x2
005BC0BE  55F0     		strb r0, [r6, +r7]

005BC0C0  F85F 7180		ldr r7, [pc, #-384] ; 0x2
005BC0C4  5DF0     		ldrb r0, [r6, +r7]

005BC0C6  2809     		cmp r0, #9
005BC0C8  BFC8 2000		gtmov r0, #0
005BC0CC  BFD8 2001		lemov r0, #1

005BC0D0  2800     		cmp r0, #0
005BC0D2  D009     		beq #18 ; 0x005BC0E8


005BC0D6  F85F 7194		ldr r7, [pc, #-404] ; 0x2
005BC0DA  5DF0     		ldrb r0, [r6, +r7]

005BC0DC  3030     		add r0, r0, #48

005BC0DE  F85F 719C		ldr r7, [pc, #-412] ; 0x2
005BC0E2  55F0     		strb r0, [r6, +r7]

005BC0E4  E007     		b #14 ; 0x005BC0F6


005BC0E8  F85F 71A8		ldr r7, [pc, #-424] ; 0x2
005BC0EC  5DF0     		ldrb r0, [r6, +r7]

005BC0EE  3037     		add r0, r0, #55

005BC0F0  F85F 71B0		ldr r7, [pc, #-432] ; 0x2
005BC0F4  55F0     		strb r0, [r6, +r7]

005BC0F6  F85F 71B4		ldr r7, [pc, #-436] ; 0x2
005BC0FA  5DF0     		ldrb r0, [r6, +r7]

005BC0FC  F85F 717C		ldr r7, [pc, #-380] ; 0x170
005BC100  53F0     		strh r0, [r6, +r7]

005BC102  F85F 7180		ldr r7, [pc, #-384] ; 0x170
005BC106  5FF0     		ldrsh r0, [r6, +r7]

005BC108  F85F 7198		ldr r7, [pc, #-408] ; 0x134
005BC10C  59F1     		ldr r1, [r6, +r7]
005BC10E  4600     		mov r0, r0
005BC110  F85F 417C		ldr r4, [pc, #-380] ; 0x490B3D
005BC114  F044 0401		orr r4, r4, #1
005BC118  47A0     		blx r4

005BC11A  F04F 37FF		mov r7, #4294967295 ; 4294967295
005BC11E  42B8     		cmp r0, r7
005BC120  BF18 2000		nemov r0, #0
005BC124  BF08 2001		eqmov r0, #1

005BC128  2800     		cmp r0, #0
005BC12A  D004     		beq #8 ; 0x005BC136


005BC12E  2001     		mov r0, #1 ; 1
005BC130  F85F 71CC		ldr r7, [pc, #-460] ; 0x12C
005BC134  55F0     		strb r0, [r6, +r7]

005BC136  F85F 7A0C		ldr r7, [pc, #-2572] ; 0x12E
005BC13A  5DF0     		ldrb r0, [r6, +r7]

005BC13C  1C40     		add r0, r0, #1

005BC13E  F85F 7A14		ldr r7, [pc, #-2580] ; 0x12E
005BC142  55F0     		strb r0, [r6, +r7]

005BC144  E74A     		b #-364 ; 0x005BBFDC

005BC146  200D     		mov r0, #13 ; 13

005BC148  F85F 71C8		ldr r7, [pc, #-456] ; 0x170
005BC14C  53F0     		strh r0, [r6, +r7]

005BC14E  F85F 71CC		ldr r7, [pc, #-460] ; 0x170
005BC152  5FF0     		ldrsh r0, [r6, +r7]

005BC154  F85F 71E4		ldr r7, [pc, #-484] ; 0x134
005BC158  59F1     		ldr r1, [r6, +r7]
005BC15A  4600     		mov r0, r0
005BC15C  F85F 41C8		ldr r4, [pc, #-456] ; 0x490B3D
005BC160  F044 0401		orr r4, r4, #1
005BC164  47A0     		blx r4

005BC166  F04F 37FF		mov r7, #4294967295 ; 4294967295
005BC16A  42B8     		cmp r0, r7
005BC16C  BF18 2000		nemov r0, #0
005BC170  BF08 2001		eqmov r0, #1

005BC174  2800     		cmp r0, #0
005BC176  D004     		beq #8 ; 0x005BC182


005BC17A  2001     		mov r0, #1 ; 1
005BC17C  F85F 7218		ldr r7, [pc, #-536] ; 0x12C
005BC180  55F0     		strb r0, [r6, +r7]

005BC182  200A     		mov r0, #10 ; 10

005BC184  F85F 7204		ldr r7, [pc, #-516] ; 0x170
005BC188  53F0     		strh r0, [r6, +r7]

005BC18A  F85F 7208		ldr r7, [pc, #-520] ; 0x170
005BC18E  5FF0     		ldrsh r0, [r6, +r7]

005BC190  F85F 7220		ldr r7, [pc, #-544] ; 0x134
005BC194  59F1     		ldr r1, [r6, +r7]
005BC196  4600     		mov r0, r0
005BC198  F85F 4204		ldr r4, [pc, #-516] ; 0x490B3D
005BC19C  F044 0401		orr r4, r4, #1
005BC1A0  47A0     		blx r4

005BC1A2  F04F 37FF		mov r7, #4294967295 ; 4294967295
005BC1A6  42B8     		cmp r0, r7
005BC1A8  BF18 2000		nemov r0, #0
005BC1AC  BF08 2001		eqmov r0, #1

005BC1B0  2800     		cmp r0, #0
005BC1B2  D004     		beq #8 ; 0x005BC1BE


005BC1B6  2001     		mov r0, #1 ; 1
005BC1B8  F85F 7254		ldr r7, [pc, #-596] ; 0x12C
005BC1BC  55F0     		strb r0, [r6, +r7]

005BC1BE  F85F 7258		ldr r7, [pc, #-600] ; 0x12C
005BC1C2  5DF0     		ldrb r0, [r6, +r7]

005BC1C4  2800     		cmp r0, #0
005BC1C6  D012     		beq #36 ; 0x005BC1EE


005BC1CA  F8DF 7628		ldr r7, [pc, #+1576] ; 0x5BA488
005BC1CE  6838     		ldr r0, [r7]

005BC1D0  4600     		mov r0, r0
005BC1D2  F8DF 4608		ldr r4, [pc, #+1544] ; 0x490561
005BC1D6  F044 0401		orr r4, r4, #1
005BC1DA  47A0     		blx r4

005BC1DC  F85F 727C		ldr r7, [pc, #-636] ; 0x12A
005BC1E0  53F0     		strh r0, [r6, +r7]

005BC1E2  20C3     		mov r0, #195 ; 195
005BC1E4  F85F 72A8		ldr r7, [pc, #-680] ; 0x1
005BC1E8  55F0     		strb r0, [r6, +r7]

005BC1EA  F000 BE69		b #3282 ; 0x005BCEC0


005BC1EE  F85F 727C		ldr r7, [pc, #-636] ; 0x134
005BC1F2  59F0     		ldr r0, [r6, +r7]

005BC1F4  4600     		mov r0, r0
005BC1F6  F8DF 45F0		ldr r4, [pc, #+1520] ; 0x490E75
005BC1FA  F044 0401		orr r4, r4, #1
005BC1FE  47A0     		blx r4

005BC200  2800     		cmp r0, #0
005BC202  BF08 2001		eqmov r0, #1
005BC206  BF18 2000		nemov r0, #0

005BC20A  2800     		cmp r0, #0
005BC20C  D012     		beq #36 ; 0x005BC234


005BC210  F8DF 75E4		ldr r7, [pc, #+1508] ; 0x5BA48C
005BC214  6838     		ldr r0, [r7]

005BC216  4600     		mov r0, r0
005BC218  F8DF 45C0		ldr r4, [pc, #+1472] ; 0x490561
005BC21C  F044 0401		orr r4, r4, #1
005BC220  47A0     		blx r4

005BC222  F85F 72C0		ldr r7, [pc, #-704] ; 0x12A
005BC226  53F0     		strh r0, [r6, +r7]

005BC228  20C3     		mov r0, #195 ; 195
005BC22A  F85F 72EC		ldr r7, [pc, #-748] ; 0x1
005BC22E  55F0     		strb r0, [r6, +r7]

005BC230  F000 BE46		b #3212 ; 0x005BCEC0


005BC234  F85F 72F8		ldr r7, [pc, #-760] ; 0x1
005BC238  5DF0     		ldrb r0, [r6, +r7]

005BC23A  1C40     		add r0, r0, #1

005BC23C  F85F 7300		ldr r7, [pc, #-768] ; 0x1
005BC240  55F0     		strb r0, [r6, +r7]

005BC242  F000 BE3B		b #3190 ; 0x005BCEBC


005BC246  F85F 72D4		ldr r7, [pc, #-724] ; 0x134
005BC24A  59F0     		ldr r0, [r6, +r7]

005BC24C  4600     		mov r0, r0
005BC24E  F85F 42B0		ldr r4, [pc, #-688] ; 0x490CBD
005BC252  F044 0401		orr r4, r4, #1
005BC256  47A0     		blx r4

005BC258  F85F 72D8		ldr r7, [pc, #-728] ; 0x170
005BC25C  53F0     		strh r0, [r6, +r7]

005BC25E  F85F 72EC		ldr r7, [pc, #-748] ; 0x134
005BC262  59F0     		ldr r0, [r6, +r7]

005BC264  4600     		mov r0, r0
005BC266  F85F 42C4		ldr r4, [pc, #-708] ; 0x490D6D
005BC26A  F044 0401		orr r4, r4, #1
005BC26E  47A0     		blx r4

005BC270  F8DF 7558		ldr r7, [pc, #+1368] ; 0x158
005BC274  51F0     		str r0, [r6, +r7]

005BC276  F8DF 7554		ldr r7, [pc, #+1364] ; 0x158
005BC27A  59F0     		ldr r0, [r6, +r7]

005BC27C  F85F 72F8		ldr r7, [pc, #-760] ; 0x172
005BC280  53F0     		strh r0, [r6, +r7]

005BC282  F85F 7300		ldr r7, [pc, #-768] ; 0x170
005BC286  5FF0     		ldrsh r0, [r6, +r7]

005BC288  F85F 7304		ldr r7, [pc, #-772] ; 0x172
005BC28C  5FF7     		ldrsh r7, [r6, +r7]
005BC28E  42B8     		cmp r0, r7
005BC290  BF08 2000		eqmov r0, #0
005BC294  BF18 2001		nemov r0, #1

005BC298  2800     		cmp r0, #0
005BC29A  D002     		beq #4 ; 0x005BC2A2


005BC29E  F000 BE0F		b #3102 ; 0x005BCEC0


005BC2A2  20D2     		mov r0, #210 ; 210
005BC2A4  F85F 7368		ldr r7, [pc, #-872] ; 0x1
005BC2A8  55F0     		strb r0, [r6, +r7]

005BC2AA  F000 BE07		b #3086 ; 0x005BCEBC


005BC2AE  F85F 733C		ldr r7, [pc, #-828] ; 0x134
005BC2B2  59F0     		ldr r0, [r6, +r7]

005BC2B4  4600     		mov r0, r0
005BC2B6  F8DF 452C		ldr r4, [pc, #+1324] ; 0x490C65
005BC2BA  F044 0401		orr r4, r4, #1
005BC2BE  47A0     		blx r4

005BC2C0  F85F 7340		ldr r7, [pc, #-832] ; 0x170
005BC2C4  53F0     		strh r0, [r6, +r7]

005BC2C6  F85F 7344		ldr r7, [pc, #-836] ; 0x170
005BC2CA  5FF0     		ldrsh r0, [r6, +r7]

005BC2CC  2800     		cmp r0, #0
005BC2CE  BF18 2001		nemov r0, #1
005BC2D2  BF08 2000		eqmov r0, #0

005BC2D6  2800     		cmp r0, #0
005BC2D8  BF08 2001		eqmov r0, #1
005BC2DC  BF18 2000		nemov r0, #0

005BC2E0  2800     		cmp r0, #0
005BC2E2  D002     		beq #4 ; 0x005BC2EA


005BC2E6  F000 BDEB		b #3030 ; 0x005BCEC0


005BC2EA  2001     		mov r0, #1 ; 1

005BC2EC  4600     		mov r0, r0
005BC2EE  F8DF 44E8		ldr r4, [pc, #+1256] ; 0x490519
005BC2F2  F044 0401		orr r4, r4, #1
005BC2F6  47A0     		blx r4

005BC2F8  F85F 739C		ldr r7, [pc, #-924] ; 0x124
005BC2FC  51F0     		str r0, [r6, +r7]

005BC2FE  2000     		mov r0, #0 ; 0
005BC300  F85F 739C		ldr r7, [pc, #-924] ; 0x12C
005BC304  55F0     		strb r0, [r6, +r7]

005BC306  2000     		mov r0, #0 ; 0
005BC308  F85F 7BE0		ldr r7, [pc, #-3040] ; 0x12E
005BC30C  55F0     		strb r0, [r6, +r7]

005BC30E  F8DF 74B4		ldr r7, [pc, #+1204] ; 0x138
005BC312  5DF0     		ldrb r0, [r6, +r7]

005BC314  2801     		cmp r0, #1
005BC316  BF18 2000		nemov r0, #0
005BC31A  BF08 2001		eqmov r0, #1

005BC31E  2800     		cmp r0, #0
005BC320  D020     		beq #64 ; 0x005BC364


005BC324  F85F 73B4		ldr r7, [pc, #-948] ; 0x134
005BC328  59F0     		ldr r0, [r6, +r7]

005BC32A  4600     		mov r0, r0
005BC32C  F8DF 44B0		ldr r4, [pc, #+1200] ; 0x490AE1
005BC330  F044 0401		orr r4, r4, #1
005BC334  47A0     		blx r4

005BC336  F85F 73B4		ldr r7, [pc, #-948] ; 0x170
005BC33A  53F0     		strh r0, [r6, +r7]

005BC33C  F85F 73BC		ldr r7, [pc, #-956] ; 0x170
005BC340  5FF0     		ldrsh r0, [r6, +r7]

005BC342  283A     		cmp r0, #58
005BC344  BF18 2000		nemov r0, #0
005BC348  BF08 2001		eqmov r0, #1

005BC34C  2800     		cmp r0, #0
005BC34E  D007     		beq #14 ; 0x005BC360


005BC352  F85F 7414		ldr r7, [pc, #-1044] ; 0x1
005BC356  5DF0     		ldrb r0, [r6, +r7]

005BC358  1C40     		add r0, r0, #1

005BC35A  F85F 741C		ldr r7, [pc, #-1052] ; 0x1
005BC35E  55F0     		strb r0, [r6, +r7]

005BC360  E007     		b #14 ; 0x005BC372


005BC364  F85F 7428		ldr r7, [pc, #-1064] ; 0x1
005BC368  5DF0     		ldrb r0, [r6, +r7]

005BC36A  1C40     		add r0, r0, #1

005BC36C  F85F 7430		ldr r7, [pc, #-1072] ; 0x1
005BC370  55F0     		strb r0, [r6, +r7]

005BC372  F000 BDA3		b #2886 ; 0x005BCEBC


005BC376  F8DF 744C		ldr r7, [pc, #+1100] ; 0x138
005BC37A  5DF0     		ldrb r0, [r6, +r7]

005BC37C  2801     		cmp r0, #1
005BC37E  BF08 2000		eqmov r0, #0
005BC382  BF18 2001		nemov r0, #1

005BC386  2800     		cmp r0, #0
005BC388  D05F     		beq #190 ; 0x005BC44A


005BC38C  F85F 741C		ldr r7, [pc, #-1052] ; 0x134
005BC390  59F0     		ldr r0, [r6, +r7]

005BC392  4600     		mov r0, r0
005BC394  F8DF 444C		ldr r4, [pc, #+1100] ; 0x490C65
005BC398  F044 0401		orr r4, r4, #1
005BC39C  47A0     		blx r4

005BC39E  F85F 741C		ldr r7, [pc, #-1052] ; 0x170
005BC3A2  53F0     		strh r0, [r6, +r7]

005BC3A4  F85F 7424		ldr r7, [pc, #-1060] ; 0x170
005BC3A8  5FF0     		ldrsh r0, [r6, +r7]

005BC3AA  2800     		cmp r0, #0
005BC3AC  BF18 2001		nemov r0, #1
005BC3B0  BF08 2000		eqmov r0, #0

005BC3B4  2800     		cmp r0, #0
005BC3B6  BF08 2001		eqmov r0, #1
005BC3BA  BF18 2000		nemov r0, #0

005BC3BE  2800     		cmp r0, #0
005BC3C0  D01F     		beq #62 ; 0x005BC402


005BC3C4  2001     		mov r0, #1 ; 1

005BC3C6  4600     		mov r0, r0
005BC3C8  F8DF 440C		ldr r4, [pc, #+1036] ; 0x490519
005BC3CC  F044 0401		orr r4, r4, #1
005BC3D0  47A0     		blx r4

005BC3D2  F85F 7474		ldr r7, [pc, #-1140] ; 0x124
005BC3D6  59F7     		ldr r7, [r6, +r7]
005BC3D8  1BC0     		sub r0, r0, r7

005BC3DA  F8DF 73EC		ldr r7, [pc, #+1004] ; 0x148
005BC3DE  59F7     		ldr r7, [r6, +r7]
005BC3E0  42B8     		cmp r0, r7
005BC3E2  BF98 2000		lsmov r0, #0
005BC3E6  BF88 2001		himov r0, #1

005BC3EA  2800     		cmp r0, #0
005BC3EC  D007     		beq #14 ; 0x005BC3FE


005BC3F0  F85F 74B4		ldr r7, [pc, #-1204] ; 0x1
005BC3F4  5DF0     		ldrb r0, [r6, +r7]

005BC3F6  1C40     		add r0, r0, #1

005BC3F8  F85F 74BC		ldr r7, [pc, #-1212] ; 0x1
005BC3FC  55F0     		strb r0, [r6, +r7]

005BC3FE  F000 BD5F		b #2750 ; 0x005BCEC0


005BC402  2001     		mov r0, #1 ; 1

005BC404  4600     		mov r0, r0
005BC406  F8DF 43D0		ldr r4, [pc, #+976] ; 0x490519
005BC40A  F044 0401		orr r4, r4, #1
005BC40E  47A0     		blx r4

005BC410  F85F 74B4		ldr r7, [pc, #-1204] ; 0x124
005BC414  51F0     		str r0, [r6, +r7]

005BC416  F85F 74A4		ldr r7, [pc, #-1188] ; 0x134
005BC41A  59F0     		ldr r0, [r6, +r7]

005BC41C  4600     		mov r0, r0
005BC41E  F8DF 43C0		ldr r4, [pc, #+960] ; 0x490AE1
005BC422  F044 0401		orr r4, r4, #1
005BC426  47A0     		blx r4

005BC428  F85F 7D00		ldr r7, [pc, #-3328] ; 0x12E
005BC42C  5DF5     		ldrb r5, [r6, +r7]
005BC42E  F85F 74E8		ldr r7, [pc, #-1256] ; 0x3
005BC432  EB07 0705		add r7, r7, r5, lsl #0
005BC436  55F0     		strb r0, [r6, +r7]

005BC438  F85F 7D10		ldr r7, [pc, #-3344] ; 0x12E
005BC43C  5DF0     		ldrb r0, [r6, +r7]

005BC43E  1C40     		add r0, r0, #1

005BC440  F85F 7D18		ldr r7, [pc, #-3352] ; 0x12E
005BC444  55F0     		strb r0, [r6, +r7]

005BC446  E105     		b #522 ; 0x005BC654


005BC44A  F85F 74D8		ldr r7, [pc, #-1240] ; 0x134
005BC44E  59F0     		ldr r0, [r6, +r7]

005BC450  4600     		mov r0, r0
005BC452  F8DF 4390		ldr r4, [pc, #+912] ; 0x490C65
005BC456  F044 0401		orr r4, r4, #1
005BC45A  47A0     		blx r4

005BC45C  F85F 74DC		ldr r7, [pc, #-1244] ; 0x170
005BC460  53F0     		strh r0, [r6, +r7]

005BC462  F85F 74E0		ldr r7, [pc, #-1248] ; 0x170
005BC466  5FF0     		ldrsh r0, [r6, +r7]

005BC468  2800     		cmp r0, #0
005BC46A  BF18 2001		nemov r0, #1
005BC46E  BF08 2000		eqmov r0, #0

005BC472  2800     		cmp r0, #0
005BC474  BF08 2001		eqmov r0, #1
005BC478  BF18 2000		nemov r0, #0

005BC47C  2800     		cmp r0, #0
005BC47E  D002     		beq #4 ; 0x005BC486


005BC482  F000 BD1D		b #2618 ; 0x005BCEC0


005BC486  F85F 7514		ldr r7, [pc, #-1300] ; 0x134
005BC48A  59F0     		ldr r0, [r6, +r7]

005BC48C  4600     		mov r0, r0
005BC48E  F8DF 4350		ldr r4, [pc, #+848] ; 0x490AE1
005BC492  F044 0401		orr r4, r4, #1
005BC496  47A0     		blx r4

005BC498  F85F 7558		ldr r7, [pc, #-1368] ; 0x2
005BC49C  55F0     		strb r0, [r6, +r7]

005BC49E  F85F 755C		ldr r7, [pc, #-1372] ; 0x2
005BC4A2  5DF0     		ldrb r0, [r6, +r7]

005BC4A4  280D     		cmp r0, #13
005BC4A6  BF18 2000		nemov r0, #0
005BC4AA  BF08 2001		eqmov r0, #1

005BC4AE  2800     		cmp r0, #0
005BC4B0  D009     		beq #18 ; 0x005BC4C6


005BC4B4  F85F 7578		ldr r7, [pc, #-1400] ; 0x1
005BC4B8  5DF0     		ldrb r0, [r6, +r7]

005BC4BA  1C40     		add r0, r0, #1

005BC4BC  F85F 7580		ldr r7, [pc, #-1408] ; 0x1
005BC4C0  55F0     		strb r0, [r6, +r7]

005BC4C2  F000 BCFD		b #2554 ; 0x005BCEC0


005BC4C6  F85F 7584		ldr r7, [pc, #-1412] ; 0x2
005BC4CA  5DF0     		ldrb r0, [r6, +r7]

005BC4CC  2841     		cmp r0, #65
005BC4CE  BFA8 2000		gemov r0, #0
005BC4D2  BFB8 2001		ltmov r0, #1

005BC4D6  B082     		sub sp, sp, #8
005BC4D8  F8CD 0000		str r0, [sp]
005BC4DC  F85F 759C		ldr r7, [pc, #-1436] ; 0x2
005BC4E0  5DF0     		ldrb r0, [r6, +r7]

005BC4E2  2839     		cmp r0, #57
005BC4E4  BFD8 2000		lemov r0, #0
005BC4E8  BFC8 2001		gtmov r0, #1

005BC4EC  4607     		mov r7, r0
005BC4EE  F8DD 0000		ldr r0, [sp]
005BC4F2  B002     		add sp, sp, #8
005BC4F4  4038     		and r0, r0, r7

005BC4F6  B082     		sub sp, sp, #8
005BC4F8  F8CD 0000		str r0, [sp]
005BC4FC  F85F 75BC		ldr r7, [pc, #-1468] ; 0x2
005BC500  5DF0     		ldrb r0, [r6, +r7]

005BC502  2846     		cmp r0, #70
005BC504  BFD8 2000		lemov r0, #0
005BC508  BFC8 2001		gtmov r0, #1

005BC50C  B082     		sub sp, sp, #8
005BC50E  F8CD 0000		str r0, [sp]
005BC512  F85F 75D0		ldr r7, [pc, #-1488] ; 0x2
005BC516  5DF0     		ldrb r0, [r6, +r7]

005BC518  2830     		cmp r0, #48
005BC51A  BFA8 2000		gemov r0, #0
005BC51E  BFB8 2001		ltmov r0, #1

005BC522  4607     		mov r7, r0
005BC524  F8DD 0000		ldr r0, [sp]
005BC528  B002     		add sp, sp, #8
005BC52A  4338     		orr r0, r0, r7

005BC52C  4607     		mov r7, r0
005BC52E  F8DD 0000		ldr r0, [sp]
005BC532  B002     		add sp, sp, #8
005BC534  4338     		orr r0, r0, r7

005BC536  2800     		cmp r0, #0
005BC538  D034     		beq #104 ; 0x005BC5A4


005BC53C  F85F 75D0		ldr r7, [pc, #-1488] ; 0x130
005BC540  5DF0     		ldrb r0, [r6, +r7]

005BC542  2800     		cmp r0, #0
005BC544  D01C     		beq #56 ; 0x005BC580


005BC548  F8DF 02A0		ldr r0, [pc, #+672] ; 0x5BA0C0

005BC54C  F85F 75D8		ldr r7, [pc, #-1496] ; 0x164
005BC550  51F0     		str r0, [r6, +r7]

005BC552  F8DF 02A8		ldr r0, [pc, #+680] ; 0x5BA490

005BC556  F85F 75DC		ldr r7, [pc, #-1500] ; 0x168
005BC55A  51F0     		str r0, [r6, +r7]

005BC55C  2001     		mov r0, #1 ; 1

005BC55E  F85F 75E4		ldr r7, [pc, #-1508] ; 0x168
005BC562  59F3     		ldr r3, [r6, +r7]
005BC564  F85F 75F0		ldr r7, [pc, #-1520] ; 0x164
005BC568  59F2     		ldr r2, [r6, +r7]
005BC56A  F04F 4180		mov r1, #1073741824 ; 1073741824
005BC56E  4600     		mov r0, r0
005BC570  F85F 45E0		ldr r4, [pc, #-1504] ; 0x48FE35
005BC574  F044 0401		orr r4, r4, #1
005BC578  47A0     		blx r4

005BC57A  F85F 7618		ldr r7, [pc, #-1560] ; 0x12A
005BC57E  53F0     		strh r0, [r6, +r7]

005BC580  F8DF 727C		ldr r7, [pc, #+636] ; 0x5BA4AC
005BC584  6838     		ldr r0, [r7]

005BC586  4600     		mov r0, r0
005BC588  F8DF 4250		ldr r4, [pc, #+592] ; 0x490561
005BC58C  F044 0401		orr r4, r4, #1
005BC590  47A0     		blx r4

005BC592  F85F 7630		ldr r7, [pc, #-1584] ; 0x12A
005BC596  53F0     		strh r0, [r6, +r7]

005BC598  20C3     		mov r0, #195 ; 195
005BC59A  F85F 765C		ldr r7, [pc, #-1628] ; 0x1
005BC59E  55F0     		strb r0, [r6, +r7]

005BC5A0  F000 BC8E		b #2332 ; 0x005BCEC0


005BC5A4  F85F 7664		ldr r7, [pc, #-1636] ; 0x2
005BC5A8  5DF0     		ldrb r0, [r6, +r7]

005BC5AA  2839     		cmp r0, #57
005BC5AC  BFC8 2000		gtmov r0, #0
005BC5B0  BFD8 2001		lemov r0, #1

005BC5B4  2800     		cmp r0, #0
005BC5B6  D009     		beq #18 ; 0x005BC5CC


005BC5BA  F85F 7678		ldr r7, [pc, #-1656] ; 0x2
005BC5BE  5DF0     		ldrb r0, [r6, +r7]

005BC5C0  3830     		sub r0, r0, #48

005BC5C2  F85F 7680		ldr r7, [pc, #-1664] ; 0x2
005BC5C6  55F0     		strb r0, [r6, +r7]

005BC5C8  E007     		b #14 ; 0x005BC5DA


005BC5CC  F85F 768C		ldr r7, [pc, #-1676] ; 0x2
005BC5D0  5DF0     		ldrb r0, [r6, +r7]

005BC5D2  3837     		sub r0, r0, #55

005BC5D4  F85F 7694		ldr r7, [pc, #-1684] ; 0x2
005BC5D8  55F0     		strb r0, [r6, +r7]

005BC5DA  F85F 7674		ldr r7, [pc, #-1652] ; 0x12C
005BC5DE  5DF0     		ldrb r0, [r6, +r7]

005BC5E0  2800     		cmp r0, #0
005BC5E2  BF08 2001		eqmov r0, #1
005BC5E6  BF18 2000		nemov r0, #0

005BC5EA  2800     		cmp r0, #0
005BC5EC  D013     		beq #38 ; 0x005BC616


005BC5F0  2001     		mov r0, #1 ; 1
005BC5F2  F85F 768C		ldr r7, [pc, #-1676] ; 0x12C
005BC5F6  55F0     		strb r0, [r6, +r7]

005BC5F8  F85F 76B8		ldr r7, [pc, #-1720] ; 0x2
005BC5FC  5DF0     		ldrb r0, [r6, +r7]

005BC5FE  2710     		mov r7, #16 ; 16
005BC600  4378     		mul r0, r0, r7

005BC602  F85F 7ED8		ldr r7, [pc, #-3800] ; 0x12E
005BC606  5DF5     		ldrb r5, [r6, +r7]
005BC608  F85F 76C4		ldr r7, [pc, #-1732] ; 0x3
005BC60C  EB07 0705		add r7, r7, r5, lsl #0
005BC610  55F0     		strb r0, [r6, +r7]

005BC612  E01F     		b #62 ; 0x005BC654


005BC616  2000     		mov r0, #0 ; 0
005BC618  F85F 76B4		ldr r7, [pc, #-1716] ; 0x12C
005BC61C  55F0     		strb r0, [r6, +r7]

005BC61E  F85F 7EF4		ldr r7, [pc, #-3828] ; 0x12E
005BC622  5DF5     		ldrb r5, [r6, +r7]
005BC624  F85F 76E0		ldr r7, [pc, #-1760] ; 0x3
005BC628  EB07 0705		add r7, r7, r5, lsl #0
005BC62C  5DF0     		ldrb r0, [r6, +r7]

005BC62E  F85F 76EC		ldr r7, [pc, #-1772] ; 0x2
005BC632  5DF7     		ldrb r7, [r6, +r7]
005BC634  19C0     		add r0, r0, r7

005BC636  F85F 7F0C		ldr r7, [pc, #-3852] ; 0x12E
005BC63A  5DF5     		ldrb r5, [r6, +r7]
005BC63C  F85F 76F8		ldr r7, [pc, #-1784] ; 0x3
005BC640  EB07 0705		add r7, r7, r5, lsl #0
005BC644  55F0     		strb r0, [r6, +r7]

005BC646  F85F 7F1C		ldr r7, [pc, #-3868] ; 0x12E
005BC64A  5DF0     		ldrb r0, [r6, +r7]

005BC64C  1C40     		add r0, r0, #1

005BC64E  F85F 7F24		ldr r7, [pc, #-3876] ; 0x12E
005BC652  55F0     		strb r0, [r6, +r7]

005BC654  F85F 7F2C		ldr r7, [pc, #-3884] ; 0x12E
005BC658  5DF0     		ldrb r0, [r6, +r7]

005BC65A  28FE     		cmp r0, #254
005BC65C  BFD8 2000		lemov r0, #0
005BC660  BFC8 2001		gtmov r0, #1

005BC664  2800     		cmp r0, #0
005BC666  D034     		beq #104 ; 0x005BC6D2


005BC66A  F85F 76FC		ldr r7, [pc, #-1788] ; 0x130
005BC66E  5DF0     		ldrb r0, [r6, +r7]

005BC670  2800     		cmp r0, #0
005BC672  D01C     		beq #56 ; 0x005BC6AE


005BC676  F8DF 0174		ldr r0, [pc, #+372] ; 0x5BA0C0

005BC67A  F85F 7704		ldr r7, [pc, #-1796] ; 0x164
005BC67E  51F0     		str r0, [r6, +r7]

005BC680  F8DF 0180		ldr r0, [pc, #+384] ; 0x5BA4B0

005BC684  F85F 770C		ldr r7, [pc, #-1804] ; 0x168
005BC688  51F0     		str r0, [r6, +r7]

005BC68A  2001     		mov r0, #1 ; 1

005BC68C  F85F 7714		ldr r7, [pc, #-1812] ; 0x168
005BC690  59F3     		ldr r3, [r6, +r7]
005BC692  F85F 771C		ldr r7, [pc, #-1820] ; 0x164
005BC696  59F2     		ldr r2, [r6, +r7]
005BC698  F04F 4180		mov r1, #1073741824 ; 1073741824
005BC69C  4600     		mov r0, r0
005BC69E  F85F 470C		ldr r4, [pc, #-1804] ; 0x48FE35
005BC6A2  F044 0401		orr r4, r4, #1
005BC6A6  47A0     		blx r4

005BC6A8  F85F 7748		ldr r7, [pc, #-1864] ; 0x12A
005BC6AC  53F0     		strh r0, [r6, +r7]

005BC6AE  F8DF 7158		ldr r7, [pc, #+344] ; 0x5BA4C4
005BC6B2  6838     		ldr r0, [r7]

005BC6B4  4600     		mov r0, r0
005BC6B6  F8DF 4124		ldr r4, [pc, #+292] ; 0x490561
005BC6BA  F044 0401		orr r4, r4, #1
005BC6BE  47A0     		blx r4

005BC6C0  F85F 7760		ldr r7, [pc, #-1888] ; 0x12A
005BC6C4  53F0     		strh r0, [r6, +r7]

005BC6C6  20C3     		mov r0, #195 ; 195
005BC6C8  F85F 778C		ldr r7, [pc, #-1932] ; 0x1
005BC6CC  55F0     		strb r0, [r6, +r7]

005BC6CE  E3F7     		b #2030 ; 0x005BCEC0


005BC6D2  E3F3     		b #2022 ; 0x005BCEBC


005BC6D6  F85F 7768		ldr r7, [pc, #-1896] ; 0x130
005BC6DA  5DF0     		ldrb r0, [r6, +r7]

005BC6DC  2800     		cmp r0, #0
005BC6DE  D014     		beq #40 ; 0x005BC70A


005BC6E2  2000     		mov r0, #0 ; 0

005BC6E4  2300     		mov r3, #0 ; 0
005BC6E6  2200     		mov r2, #0 ; 0
005BC6E8  2100     		mov r1, #0 ; 0
005BC6EA  4600     		mov r0, r0
005BC6EC  F85F 475C		ldr r4, [pc, #-1884] ; 0x48FE35
005BC6F0  F044 0401		orr r4, r4, #1
005BC6F4  47A0     		blx r4

005BC6F6  2800     		cmp r0, #0
005BC6F8  BF08 2001		eqmov r0, #1
005BC6FC  BF18 2000		nemov r0, #0

005BC700  2800     		cmp r0, #0
005BC702  D002     		beq #4 ; 0x005BC70A


005BC706  E3DB     		b #1974 ; 0x005BCEC0


005BC70A  F8DF 70B8		ldr r7, [pc, #+184] ; 0x138
005BC70E  5DF0     		ldrb r0, [r6, +r7]

005BC710  2800     		cmp r0, #0
005BC712  BF18 2000		nemov r0, #0
005BC716  BF08 2001		eqmov r0, #1

005BC71A  2800     		cmp r0, #0
005BC71C  D118     		bne #48 ; 0x005BC750


005BC720  F8DF 70A0		ldr r7, [pc, #+160] ; 0x138
005BC724  5DF0     		ldrb r0, [r6, +r7]

005BC726  2801     		cmp r0, #1
005BC728  BF18 2000		nemov r0, #0
005BC72C  BF08 2001		eqmov r0, #1

005BC730  2800     		cmp r0, #0
005BC732  F040 80F3		bne #486 ; 0x005BC91C


005BC736  F8DF 708C		ldr r7, [pc, #+140] ; 0x138
005BC73A  5DF0     		ldrb r0, [r6, +r7]

005BC73C  2802     		cmp r0, #2
005BC73E  BF18 2000		nemov r0, #0
005BC742  BF08 2001		eqmov r0, #1

005BC746  2800     		cmp r0, #0
005BC748  F040 81DD		bne #954 ; 0x005BCB06


005BC74C  E2C9     		b #1426 ; 0x005BCCE2


005BC750  F85F 77E4		ldr r7, [pc, #-2020] ; 0x130
005BC754  5DF0     		ldrb r0, [r6, +r7]

005BC756  2800     		cmp r0, #0
005BC758  D06B     		beq #214 ; 0x005BC832


005BC75C  F8DF 7060		ldr r7, [pc, #+96] ; 0x12E
005BC760  5DF0     		ldrb r0, [r6, +r7]
005BC762  F85F 7800		ldr r7, [pc, #-2048] ; 0x12A
005BC766  53F0     		strh r0, [r6, +r7]

005BC768  F85F 7808		ldr r7, [pc, #-2056] ; 0x12A
005BC76C  5BF0     		ldrh r0, [r6, +r7]

005BC76E  283F     		cmp r0, #63
005BC770  BFD8 2000		lemov r0, #0
005BC774  BFC8 2001		gtmov r0, #1

005BC778  2800     		cmp r0, #0
005BC77A  D004     		beq #8 ; 0x005BC786


005BC77E  203F     		mov r0, #63 ; 63
005BC780  F85F 7820		ldr r7, [pc, #-2080] ; 0x12A
005BC784  53F0     		strh r0, [r6, +r7]

005BC786  2064     		mov r0, #100 ; 100

005BC788  F85F 7828		ldr r7, [pc, #-2088] ; 0x12A
005BC78C  5BF7     		ldrh r7, [r6, +r7]
005BC78E  19C0     		add r0, r0, r7

005BC790  F8DF 703C		ldr r7, [pc, #+60] ; 0x15C
005BC794  53F0     		strh r0, [r6, +r7]

005BC796  F8DF 7038		ldr r7, [pc, #+56] ; 0x15C
005BC79A  5BF0     		ldrh r0, [r6, +r7]

005BC79C  F8DF 7034		ldr r7, [pc, #+52] ; 0x16C
005BC7A0  55F0     		strb r0, [r6, +r7]

005BC7A2  F8DF 004C		ldr r0, [pc, #+76] ; 0x5BA21C

005BC7A6  F85F 7830		ldr r7, [pc, #-2096] ; 0x164
005BC7AA  51F0     		str r0, [r6, +r7]

005BC7AC  4630     		mov r0, r6
005BC7AE  F85F 7868		ldr r7, [pc, #-2152] ; 0x3
005BC7B2  19C0     		add r0, r0, r7

005BC7B4  F85F 783C		ldr r7, [pc, #-2108] ; 0x168
005BC7B8  51F0     		str r0, [r6, +r7]

005BC7BA  E027     		b #78

005BC7BC  00000128		; 0x00000128
005BC7C0  0000012E		; 0x0000012E
005BC7C4  00000138		; 0x00000138
005BC7C8  00000148		; 0x00000148
005BC7CC  00000158		; 0x00000158
005BC7D0  0000015C		; 0x0000015C
005BC7D4  0000016C		; 0x0000016C
005BC7D8  00490519		; 0x00490519
005BC7DC  00490561		; 0x00490561
005BC7E0  00490AE1		; 0x00490AE1
005BC7E4  00490C65		; 0x00490C65
005BC7E8  00490E75		; 0x00490E75
005BC7EC  005BA0C0		; 0x005BA0C0
005BC7F0  005BA21C		; 0x005BA21C
005BC7F4  005BA488		; 0x005BA488
005BC7F8  005BA48C		; 0x005BA48C
005BC7FC  005BA490		; 0x005BA490
005BC800  005BA4AC		; 0x005BA4AC
005BC804  005BA4B0		; 0x005BA4B0
005BC808  005BA4C4		; 0x005BA4C4

005BC80C  F85F 703C		ldr r7, [pc, #-60] ; 0x16C
005BC810  5DF0     		ldrb r0, [r6, +r7]

005BC812  F85F 7898		ldr r7, [pc, #-2200] ; 0x168
005BC816  59F3     		ldr r3, [r6, +r7]
005BC818  F85F 78A4		ldr r7, [pc, #-2212] ; 0x164
005BC81C  59F2     		ldr r2, [r6, +r7]
005BC81E  2102     		mov r1, #2 ; 2
005BC820  4600     		mov r0, r0
005BC822  F85F 4890		ldr r4, [pc, #-2192] ; 0x48FE35
005BC826  F044 0401		orr r4, r4, #1
005BC82A  47A0     		blx r4

005BC82C  F85F 78CC		ldr r7, [pc, #-2252] ; 0x12A
005BC830  53F0     		strh r0, [r6, +r7]

005BC832  F85F 7074		ldr r7, [pc, #-116] ; 0x12E
005BC836  5DF0     		ldrb r0, [r6, +r7]

005BC838  1E80     		sub r0, r0, #2

005BC83A  F8DF 76A0		ldr r7, [pc, #+1696] ; 0x11C
005BC83E  5DF7     		ldrb r7, [r6, +r7]
005BC840  42B8     		cmp r0, r7
005BC842  BF08 2000		eqmov r0, #0
005BC846  BF18 2001		nemov r0, #1

005BC84A  2800     		cmp r0, #0
005BC84C  D006     		beq #12 ; 0x005BC85C


005BC850  20FA     		mov r0, #250 ; 250
005BC852  F85F 7914		ldr r7, [pc, #-2324] ; 0x1
005BC856  55F0     		strb r0, [r6, +r7]

005BC858  E332     		b #1636 ; 0x005BCEC0


005BC85C  4630     		mov r0, r6
005BC85E  F85F 7918		ldr r7, [pc, #-2328] ; 0x3
005BC862  19C0     		add r0, r0, r7

005BC864  F85F 7918		ldr r7, [pc, #-2328] ; 0x10C
005BC868  51F0     		str r0, [r6, +r7]

005BC86A  F85F 70AC		ldr r7, [pc, #-172] ; 0x12E
005BC86E  5DF0     		ldrb r0, [r6, +r7]
005BC870  F85F 7920		ldr r7, [pc, #-2336] ; 0x110
005BC874  53F0     		strh r0, [r6, +r7]

005BC876  F85F 78C8		ldr r7, [pc, #-2248] ; 0x5BA3DC
005BC87A  8838     		ldrh r0, [r7]
005BC87C  F85F 7928		ldr r7, [pc, #-2344] ; 0x112
005BC880  53F0     		strh r0, [r6, +r7]

005BC882  E92D 0021		stmdb sp!, { r0, r5 }
005BC886  F85F 793C		ldr r7, [pc, #-2364] ; 0x104
005BC88A  19F0     		add r0, r6, r7
005BC88C  F85F 4900		ldr r4, [pc, #-2304] ; 0x48D50D
005BC890  F044 0401		orr r4, r4, #1
005BC894  47A0     		blx r4
005BC896  E8BD 0021		ldmia sp!, { r0, r5 }

005BC89A  F85F 7940		ldr r7, [pc, #-2368] ; 0x114
005BC89E  5BF0     		ldrh r0, [r6, +r7]

005BC8A0  2800     		cmp r0, #0
005BC8A2  BF08 2000		eqmov r0, #0
005BC8A6  BF18 2001		nemov r0, #1

005BC8AA  2800     		cmp r0, #0
005BC8AC  D034     		beq #104 ; 0x005BC918


005BC8B0  F85F 7944		ldr r7, [pc, #-2372] ; 0x130
005BC8B4  5DF0     		ldrb r0, [r6, +r7]

005BC8B6  2800     		cmp r0, #0
005BC8B8  D01C     		beq #56 ; 0x005BC8F4


005BC8BC  F85F 00D4		ldr r0, [pc, #-212] ; 0x5BA0C0

005BC8C0  F85F 794C		ldr r7, [pc, #-2380] ; 0x164
005BC8C4  51F0     		str r0, [r6, +r7]

005BC8C6  F8DF 0620		ldr r0, [pc, #+1568] ; 0x5BA4C8

005BC8CA  F85F 7950		ldr r7, [pc, #-2384] ; 0x168
005BC8CE  51F0     		str r0, [r6, +r7]

005BC8D0  2001     		mov r0, #1 ; 1

005BC8D2  F85F 7958		ldr r7, [pc, #-2392] ; 0x168
005BC8D6  59F3     		ldr r3, [r6, +r7]
005BC8D8  F85F 7964		ldr r7, [pc, #-2404] ; 0x164
005BC8DC  59F2     		ldr r2, [r6, +r7]
005BC8DE  F04F 4180		mov r1, #1073741824 ; 1073741824
005BC8E2  4600     		mov r0, r0
005BC8E4  F85F 4954		ldr r4, [pc, #-2388] ; 0x48FE35
005BC8E8  F044 0401		orr r4, r4, #1
005BC8EC  47A0     		blx r4

005BC8EE  F85F 798C		ldr r7, [pc, #-2444] ; 0x12A
005BC8F2  53F0     		strh r0, [r6, +r7]

005BC8F4  F8DF 75F4		ldr r7, [pc, #+1524] ; 0x5BA4DC
005BC8F8  6838     		ldr r0, [r7]

005BC8FA  4600     		mov r0, r0
005BC8FC  F85F 4124		ldr r4, [pc, #-292] ; 0x490561
005BC900  F044 0401		orr r4, r4, #1
005BC904  47A0     		blx r4

005BC906  F85F 79A4		ldr r7, [pc, #-2468] ; 0x12A
005BC90A  53F0     		strh r0, [r6, +r7]

005BC90C  20C3     		mov r0, #195 ; 195
005BC90E  F85F 79D0		ldr r7, [pc, #-2512] ; 0x1
005BC912  55F0     		strb r0, [r6, +r7]

005BC914  E2D4     		b #1448 ; 0x005BCEC0


005BC918  E1E3     		b #966 ; 0x005BCCE2


005BC91C  F85F 79AC		ldr r7, [pc, #-2476] ; 0x134
005BC920  59F0     		ldr r0, [r6, +r7]

005BC922  4600     		mov r0, r0
005BC924  F85F 4144		ldr r4, [pc, #-324] ; 0x490C65
005BC928  F044 0401		orr r4, r4, #1
005BC92C  47A0     		blx r4

005BC92E  F85F 79AC		ldr r7, [pc, #-2476] ; 0x170
005BC932  53F0     		strh r0, [r6, +r7]

005BC934  F85F 79B4		ldr r7, [pc, #-2484] ; 0x170
005BC938  5FF0     		ldrsh r0, [r6, +r7]

005BC93A  2800     		cmp r0, #0
005BC93C  BF18 2001		nemov r0, #1
005BC940  BF08 2000		eqmov r0, #0

005BC944  2800     		cmp r0, #0
005BC946  BF08 2001		eqmov r0, #1
005BC94A  BF18 2000		nemov r0, #0

005BC94E  2800     		cmp r0, #0
005BC950  D002     		beq #4 ; 0x005BC958


005BC954  E2B4     		b #1384 ; 0x005BCEC0


005BC958  F85F 79E8		ldr r7, [pc, #-2536] ; 0x134
005BC95C  59F0     		ldr r0, [r6, +r7]

005BC95E  4600     		mov r0, r0
005BC960  F85F 4184		ldr r4, [pc, #-388] ; 0x490AE1
005BC964  F044 0401		orr r4, r4, #1
005BC968  47A0     		blx r4

005BC96A  F85F 79E8		ldr r7, [pc, #-2536] ; 0x170
005BC96E  53F0     		strh r0, [r6, +r7]

005BC970  F85F 79F0		ldr r7, [pc, #-2544] ; 0x170
005BC974  5FF0     		ldrsh r0, [r6, +r7]

005BC976  280A     		cmp r0, #10
005BC978  BF08 2000		eqmov r0, #0
005BC97C  BF18 2001		nemov r0, #1

005BC980  2800     		cmp r0, #0
005BC982  D012     		beq #36 ; 0x005BC9AA


005BC986  F8DF 7568		ldr r7, [pc, #+1384] ; 0x5BA4E0
005BC98A  6838     		ldr r0, [r7]

005BC98C  4600     		mov r0, r0
005BC98E  F85F 41B4		ldr r4, [pc, #-436] ; 0x490561
005BC992  F044 0401		orr r4, r4, #1
005BC996  47A0     		blx r4

005BC998  F85F 7A38		ldr r7, [pc, #-2616] ; 0x12A
005BC99C  53F0     		strh r0, [r6, +r7]

005BC99E  20C3     		mov r0, #195 ; 195
005BC9A0  F85F 7A64		ldr r7, [pc, #-2660] ; 0x1
005BC9A4  55F0     		strb r0, [r6, +r7]

005BC9A6  E28B     		b #1302 ; 0x005BCEC0


005BC9AA  F85F 7A3C		ldr r7, [pc, #-2620] ; 0x130
005BC9AE  5DF0     		ldrb r0, [r6, +r7]

005BC9B0  2800     		cmp r0, #0
005BC9B2  D01D     		beq #58 ; 0x005BC9F0


005BC9B6  F85F 01C8		ldr r0, [pc, #-456] ; 0x5BA21C

005BC9BA  F85F 7A44		ldr r7, [pc, #-2628] ; 0x164
005BC9BE  51F0     		str r0, [r6, +r7]

005BC9C0  4630     		mov r0, r6
005BC9C2  F85F 7A7C		ldr r7, [pc, #-2684] ; 0x3
005BC9C6  19C0     		add r0, r0, r7

005BC9C8  F85F 7A50		ldr r7, [pc, #-2640] ; 0x168
005BC9CC  51F0     		str r0, [r6, +r7]

005BC9CE  2001     		mov r0, #1 ; 1

005BC9D0  F85F 7A58		ldr r7, [pc, #-2648] ; 0x168
005BC9D4  59F3     		ldr r3, [r6, +r7]
005BC9D6  F85F 7A60		ldr r7, [pc, #-2656] ; 0x164
005BC9DA  59F2     		ldr r2, [r6, +r7]
005BC9DC  2102     		mov r1, #2 ; 2
005BC9DE  4600     		mov r0, r0
005BC9E0  F85F 4A50		ldr r4, [pc, #-2640] ; 0x48FE35
005BC9E4  F044 0401		orr r4, r4, #1
005BC9E8  47A0     		blx r4

005BC9EA  F85F 7A88		ldr r7, [pc, #-2696] ; 0x12A
005BC9EE  53F0     		strh r0, [r6, +r7]

005BC9F0  F85F 7234		ldr r7, [pc, #-564] ; 0x12E
005BC9F4  5DF0     		ldrb r0, [r6, +r7]

005BC9F6  1E40     		sub r0, r0, #1

005BC9F8  F8DF 74E0		ldr r7, [pc, #+1248] ; 0x11C
005BC9FC  5DF7     		ldrb r7, [r6, +r7]
005BC9FE  42B8     		cmp r0, r7
005BCA00  BF08 2000		eqmov r0, #0
005BCA04  BF18 2001		nemov r0, #1

005BCA08  2800     		cmp r0, #0
005BCA0A  D006     		beq #12 ; 0x005BCA1A


005BCA0E  20FA     		mov r0, #250 ; 250
005BCA10  F85F 7AD4		ldr r7, [pc, #-2772] ; 0x1
005BCA14  55F0     		strb r0, [r6, +r7]

005BCA16  E253     		b #1190 ; 0x005BCEC0


005BCA1A  2000     		mov r0, #0 ; 0
005BCA1C  F85F 7ADC		ldr r7, [pc, #-2780] ; 0x2
005BCA20  55F0     		strb r0, [r6, +r7]

005BCA22  2000     		mov r0, #0 ; 0

005BCA24  F85F 7AC4		ldr r7, [pc, #-2756] ; 0x12A
005BCA28  53F0     		strh r0, [r6, +r7]

005BCA2A  F85F 7AC8		ldr r7, [pc, #-2760] ; 0x12A
005BCA2E  5BF0     		ldrh r0, [r6, +r7]

005BCA30  B082     		sub sp, sp, #8
005BCA32  F8CD 0000		str r0, [sp]
005BCA36  F85F 7278		ldr r7, [pc, #-632] ; 0x12E
005BCA3A  5DF0     		ldrb r0, [r6, +r7]

005BCA3C  1E40     		sub r0, r0, #1

005BCA3E  4607     		mov r7, r0
005BCA40  F8DD 0000		ldr r0, [sp]
005BCA44  B002     		add sp, sp, #8
005BCA46  42B8     		cmp r0, r7
005BCA48  BFD8 2000		lemov r0, #0
005BCA4C  BFC8 2001		gtmov r0, #1

005BCA50  2800     		cmp r0, #0
005BCA52  D117     		bne #46 ; 0x005BCA84


005BCA56  F85F 7B14		ldr r7, [pc, #-2836] ; 0x2
005BCA5A  5DF0     		ldrb r0, [r6, +r7]

005BCA5C  F85F 7AFC		ldr r7, [pc, #-2812] ; 0x12A
005BCA60  5BF5     		ldrh r5, [r6, +r7]
005BCA62  F85F 7B1C		ldr r7, [pc, #-2844] ; 0x3
005BCA66  EB07 0705		add r7, r7, r5, lsl #0
005BCA6A  5DF7     		ldrb r7, [r6, +r7]
005BCA6C  19C0     		add r0, r0, r7

005BCA6E  F85F 7B2C		ldr r7, [pc, #-2860] ; 0x2
005BCA72  55F0     		strb r0, [r6, +r7]

005BCA74  F85F 7B14		ldr r7, [pc, #-2836] ; 0x12A
005BCA78  5BF0     		ldrh r0, [r6, +r7]

005BCA7A  1C40     		add r0, r0, #1

005BCA7C  F85F 7B1C		ldr r7, [pc, #-2844] ; 0x12A
005BCA80  53F0     		strh r0, [r6, +r7]

005BCA82  E7D2     		b #-92 ; 0x005BCA2A

005BCA84  F85F 7B44		ldr r7, [pc, #-2884] ; 0x2
005BCA88  5DF0     		ldrb r0, [r6, +r7]

005BCA8A  2800     		cmp r0, #0
005BCA8C  BF08 2000		eqmov r0, #0
005BCA90  BF18 2001		nemov r0, #1

005BCA94  2800     		cmp r0, #0
005BCA96  D034     		beq #104 ; 0x005BCB02


005BCA9A  F85F 7B2C		ldr r7, [pc, #-2860] ; 0x130
005BCA9E  5DF0     		ldrb r0, [r6, +r7]

005BCAA0  2800     		cmp r0, #0
005BCAA2  D01C     		beq #56 ; 0x005BCADE


005BCAA6  F85F 02BC		ldr r0, [pc, #-700] ; 0x5BA0C0

005BCAAA  F85F 7B34		ldr r7, [pc, #-2868] ; 0x164
005BCAAE  51F0     		str r0, [r6, +r7]

005BCAB0  F8DF 0440		ldr r0, [pc, #+1088] ; 0x5BA4E4

005BCAB4  F85F 7B3C		ldr r7, [pc, #-2876] ; 0x168
005BCAB8  51F0     		str r0, [r6, +r7]

005BCABA  2001     		mov r0, #1 ; 1

005BCABC  F85F 7B44		ldr r7, [pc, #-2884] ; 0x168
005BCAC0  59F3     		ldr r3, [r6, +r7]
005BCAC2  F85F 7B4C		ldr r7, [pc, #-2892] ; 0x164
005BCAC6  59F2     		ldr r2, [r6, +r7]
005BCAC8  F04F 4180		mov r1, #1073741824 ; 1073741824
005BCACC  4600     		mov r0, r0
005BCACE  F85F 4B3C		ldr r4, [pc, #-2876] ; 0x48FE35
005BCAD2  F044 0401		orr r4, r4, #1
005BCAD6  47A0     		blx r4

005BCAD8  F85F 7B78		ldr r7, [pc, #-2936] ; 0x12A
005BCADC  53F0     		strh r0, [r6, +r7]

005BCADE  F8DF 7418		ldr r7, [pc, #+1048] ; 0x5BA4F8
005BCAE2  6838     		ldr r0, [r7]

005BCAE4  4600     		mov r0, r0
005BCAE6  F85F 430C		ldr r4, [pc, #-780] ; 0x490561
005BCAEA  F044 0401		orr r4, r4, #1
005BCAEE  47A0     		blx r4

005BCAF0  F85F 7B90		ldr r7, [pc, #-2960] ; 0x12A
005BCAF4  53F0     		strh r0, [r6, +r7]

005BCAF6  20C3     		mov r0, #195 ; 195
005BCAF8  F85F 7BBC		ldr r7, [pc, #-3004] ; 0x1
005BCAFC  55F0     		strb r0, [r6, +r7]

005BCAFE  E1DF     		b #958 ; 0x005BCEC0


005BCB02  E0EE     		b #476 ; 0x005BCCE2


005BCB06  F85F 7B98		ldr r7, [pc, #-2968] ; 0x130
005BCB0A  5DF0     		ldrb r0, [r6, +r7]

005BCB0C  2800     		cmp r0, #0
005BCB0E  D042     		beq #132 ; 0x005BCB96


005BCB12  F85F 7354		ldr r7, [pc, #-852] ; 0x12E
005BCB16  5DF0     		ldrb r0, [r6, +r7]
005BCB18  F85F 7BB8		ldr r7, [pc, #-3000] ; 0x12A
005BCB1C  53F0     		strh r0, [r6, +r7]

005BCB1E  F85F 7BBC		ldr r7, [pc, #-3004] ; 0x12A
005BCB22  5BF0     		ldrh r0, [r6, +r7]

005BCB24  283F     		cmp r0, #63
005BCB26  BFD8 2000		lemov r0, #0
005BCB2A  BFC8 2001		gtmov r0, #1

005BCB2E  2800     		cmp r0, #0
005BCB30  D004     		beq #8 ; 0x005BCB3C


005BCB34  203F     		mov r0, #63 ; 63
005BCB36  F85F 7BD4		ldr r7, [pc, #-3028] ; 0x12A
005BCB3A  53F0     		strh r0, [r6, +r7]

005BCB3C  2064     		mov r0, #100 ; 100

005BCB3E  F85F 7BDC		ldr r7, [pc, #-3036] ; 0x12A
005BCB42  5BF7     		ldrh r7, [r6, +r7]
005BCB44  19C0     		add r0, r0, r7

005BCB46  F85F 7378		ldr r7, [pc, #-888] ; 0x15C
005BCB4A  53F0     		strh r0, [r6, +r7]

005BCB4C  F85F 7380		ldr r7, [pc, #-896] ; 0x15C
005BCB50  5BF0     		ldrh r0, [r6, +r7]

005BCB52  F85F 7380		ldr r7, [pc, #-896] ; 0x16C
005BCB56  55F0     		strb r0, [r6, +r7]

005BCB58  F85F 036C		ldr r0, [pc, #-876] ; 0x5BA21C

005BCB5C  F85F 7BE8		ldr r7, [pc, #-3048] ; 0x164
005BCB60  51F0     		str r0, [r6, +r7]

005BCB62  4630     		mov r0, r6
005BCB64  F85F 7C20		ldr r7, [pc, #-3104] ; 0x3
005BCB68  19C0     		add r0, r0, r7

005BCB6A  F85F 7BF0		ldr r7, [pc, #-3056] ; 0x168
005BCB6E  51F0     		str r0, [r6, +r7]

005BCB70  F85F 73A0		ldr r7, [pc, #-928] ; 0x16C
005BCB74  5DF0     		ldrb r0, [r6, +r7]

005BCB76  F85F 7BFC		ldr r7, [pc, #-3068] ; 0x168
005BCB7A  59F3     		ldr r3, [r6, +r7]
005BCB7C  F85F 7C08		ldr r7, [pc, #-3080] ; 0x164
005BCB80  59F2     		ldr r2, [r6, +r7]
005BCB82  2102     		mov r1, #2 ; 2
005BCB84  4600     		mov r0, r0
005BCB86  F85F 4BF4		ldr r4, [pc, #-3060] ; 0x48FE35
005BCB8A  F044 0401		orr r4, r4, #1
005BCB8E  47A0     		blx r4

005BCB90  F85F 7C30		ldr r7, [pc, #-3120] ; 0x12A
005BCB94  53F0     		strh r0, [r6, +r7]

005BCB96  F85F 73D8		ldr r7, [pc, #-984] ; 0x12E
005BCB9A  5DF0     		ldrb r0, [r6, +r7]

005BCB9C  1F80     		sub r0, r0, #6

005BCB9E  F8DF 733C		ldr r7, [pc, #+828] ; 0x11C
005BCBA2  5DF7     		ldrb r7, [r6, +r7]
005BCBA4  42B8     		cmp r0, r7
005BCBA6  BF08 2000		eqmov r0, #0
005BCBAA  BF18 2001		nemov r0, #1

005BCBAE  2800     		cmp r0, #0
005BCBB0  D006     		beq #12 ; 0x005BCBC0


005BCBB4  20FA     		mov r0, #250 ; 250
005BCBB6  F85F 7C78		ldr r7, [pc, #-3192] ; 0x1
005BCBBA  55F0     		strb r0, [r6, +r7]

005BCBBC  E180     		b #768 ; 0x005BCEC0


005BCBC0  F8DF 7304		ldr r7, [pc, #+772] ; 0x4
005BCBC4  5DF0     		ldrb r0, [r6, +r7]

005BCBC6  F85F 7C5C		ldr r7, [pc, #-3164] ; 0x12D
005BCBCA  5DF7     		ldrb r7, [r6, +r7]
005BCBCC  42B8     		cmp r0, r7
005BCBCE  BF08 2000		eqmov r0, #0
005BCBD2  BF18 2001		nemov r0, #1

005BCBD6  B082     		sub sp, sp, #8
005BCBD8  F8CD 0000		str r0, [sp]
005BCBDC  F85F 7C98		ldr r7, [pc, #-3224] ; 0x3
005BCBE0  5DF0     		ldrb r0, [r6, +r7]

005BCBE2  2800     		cmp r0, #0
005BCBE4  BF08 2000		eqmov r0, #0
005BCBE8  BF18 2001		nemov r0, #1

005BCBEC  4607     		mov r7, r0
005BCBEE  F8DD 0000		ldr r0, [sp]
005BCBF2  B002     		add sp, sp, #8
005BCBF4  4338     		orr r0, r0, r7

005BCBF6  2800     		cmp r0, #0
005BCBF8  D006     		beq #12 ; 0x005BCC08


005BCBFC  20FB     		mov r0, #251 ; 251
005BCBFE  F85F 7CC0		ldr r7, [pc, #-3264] ; 0x1
005BCC02  55F0     		strb r0, [r6, +r7]

005BCC04  E15C     		b #696 ; 0x005BCEC0


005BCC08  F8DF 72C4		ldr r7, [pc, #+708] ; 0x6
005BCC0C  5DF0     		ldrb r0, [r6, +r7]

005BCC0E  2800     		cmp r0, #0
005BCC10  BF08 2000		eqmov r0, #0
005BCC14  BF18 2001		nemov r0, #1

005BCC18  B082     		sub sp, sp, #8
005BCC1A  F8CD 0000		str r0, [sp]
005BCC1E  F8DF 72AC		ldr r7, [pc, #+684] ; 0x5
005BCC22  5DF0     		ldrb r0, [r6, +r7]

005BCC24  2800     		cmp r0, #0
005BCC26  BF08 2000		eqmov r0, #0
005BCC2A  BF18 2001		nemov r0, #1

005BCC2E  4607     		mov r7, r0
005BCC30  F8DD 0000		ldr r0, [sp]
005BCC34  B002     		add sp, sp, #8
005BCC36  4338     		orr r0, r0, r7

005BCC38  2800     		cmp r0, #0
005BCC3A  D006     		beq #12 ; 0x005BCC4A


005BCC3E  20FB     		mov r0, #251 ; 251
005BCC40  F85F 7D04		ldr r7, [pc, #-3332] ; 0x1
005BCC44  55F0     		strb r0, [r6, +r7]

005BCC46  E13B     		b #630 ; 0x005BCEC0


005BCC4A  F8DF 7288		ldr r7, [pc, #+648] ; 0x7
005BCC4E  5DF0     		ldrb r0, [r6, +r7]

005BCC50  F44F 7780		mov r7, #256 ; 256
005BCC54  4378     		mul r0, r0, r7

005BCC56  F8DF 7280		ldr r7, [pc, #+640] ; 0x8
005BCC5A  5DF7     		ldrb r7, [r6, +r7]
005BCC5C  19C0     		add r0, r0, r7

005BCC5E  F8DF 727C		ldr r7, [pc, #+636] ; 0x11C
005BCC62  5DF7     		ldrb r7, [r6, +r7]
005BCC64  42B8     		cmp r0, r7
005BCC66  BF08 2000		eqmov r0, #0
005BCC6A  BF18 2001		nemov r0, #1

005BCC6E  2800     		cmp r0, #0
005BCC70  D006     		beq #12 ; 0x005BCC80


005BCC74  20FB     		mov r0, #251 ; 251
005BCC76  F85F 7D38		ldr r7, [pc, #-3384] ; 0x1
005BCC7A  55F0     		strb r0, [r6, +r7]

005BCC7C  E120     		b #576 ; 0x005BCEC0


005BCC80  2000     		mov r0, #0 ; 0

005BCC82  F85F 7D20		ldr r7, [pc, #-3360] ; 0x12A
005BCC86  53F0     		strh r0, [r6, +r7]

005BCC88  F85F 7D28		ldr r7, [pc, #-3368] ; 0x12A
005BCC8C  5BF0     		ldrh r0, [r6, +r7]

005BCC8E  F8DF 724C		ldr r7, [pc, #+588] ; 0x11C
005BCC92  5DF7     		ldrb r7, [r6, +r7]
005BCC94  42B8     		cmp r0, r7
005BCC96  BFD8 2000		lemov r0, #0
005BCC9A  BFC8 2001		gtmov r0, #1

005BCC9E  2800     		cmp r0, #0
005BCCA0  D11F     		bne #62 ; 0x005BCCE2


005BCCA4  F85F 7D44		ldr r7, [pc, #-3396] ; 0x12A
005BCCA8  5BF0     		ldrh r0, [r6, +r7]

005BCCAA  1D80     		add r0, r0, #6

005BCCAC  F85F 74E0		ldr r7, [pc, #-1248] ; 0x15C
005BCCB0  53F0     		strh r0, [r6, +r7]

005BCCB2  F85F 74E4		ldr r7, [pc, #-1252] ; 0x15C
005BCCB6  5BF5     		ldrh r5, [r6, +r7]
005BCCB8  F85F 7D74		ldr r7, [pc, #-3444] ; 0x3
005BCCBC  EB07 0705		add r7, r7, r5, lsl #0
005BCCC0  5DF0     		ldrb r0, [r6, +r7]
005BCCC2  F85F 7D60		ldr r7, [pc, #-3424] ; 0x12A
005BCCC6  5BF5     		ldrh r5, [r6, +r7]
005BCCC8  F85F 7D84		ldr r7, [pc, #-3460] ; 0x3
005BCCCC  EB07 0705		add r7, r7, r5, lsl #0
005BCCD0  55F0     		strb r0, [r6, +r7]

005BCCD2  F85F 7D70		ldr r7, [pc, #-3440] ; 0x12A
005BCCD6  5BF0     		ldrh r0, [r6, +r7]

005BCCD8  1C40     		add r0, r0, #1

005BCCDA  F85F 7D78		ldr r7, [pc, #-3448] ; 0x12A
005BCCDE  53F0     		strh r0, [r6, +r7]

005BCCE0  E7D2     		b #-92 ; 0x005BCC88

005BCCE2  F8DF 71E4		ldr r7, [pc, #+484] ; 0x4
005BCCE6  5DF0     		ldrb r0, [r6, +r7]

005BCCE8  F8DF 71F8		ldr r7, [pc, #+504] ; 0x13A
005BCCEC  5DF7     		ldrb r7, [r6, +r7]
005BCCEE  42B8     		cmp r0, r7
005BCCF0  BF08 2000		eqmov r0, #0
005BCCF4  BF18 2001		nemov r0, #1

005BCCF8  B082     		sub sp, sp, #8
005BCCFA  F8CD 0000		str r0, [sp]
005BCCFE  F85F 7DB8		ldr r7, [pc, #-3512] ; 0x3
005BCD02  5DF0     		ldrb r0, [r6, +r7]

005BCD04  F8DF 71D8		ldr r7, [pc, #+472] ; 0x139
005BCD08  5DF7     		ldrb r7, [r6, +r7]
005BCD0A  42B8     		cmp r0, r7
005BCD0C  BF08 2000		eqmov r0, #0
005BCD10  BF18 2001		nemov r0, #1

005BCD14  4607     		mov r7, r0
005BCD16  F8DD 0000		ldr r0, [sp]
005BCD1A  B002     		add sp, sp, #8
005BCD1C  4338     		orr r0, r0, r7

005BCD1E  2800     		cmp r0, #0
005BCD20  D012     		beq #36 ; 0x005BCD48


005BCD24  F8DF 71D4		ldr r7, [pc, #+468] ; 0x5BA4FC
005BCD28  6838     		ldr r0, [r7]

005BCD2A  4600     		mov r0, r0
005BCD2C  F85F 4554		ldr r4, [pc, #-1364] ; 0x490561
005BCD30  F044 0401		orr r4, r4, #1
005BCD34  47A0     		blx r4

005BCD36  F85F 7DD4		ldr r7, [pc, #-3540] ; 0x12A
005BCD3A  53F0     		strh r0, [r6, +r7]

005BCD3C  20C3     		mov r0, #195 ; 195
005BCD3E  F85F 7E00		ldr r7, [pc, #-3584] ; 0x1
005BCD42  55F0     		strb r0, [r6, +r7]

005BCD44  E0BC     		b #376 ; 0x005BCEC0


005BCD48  7830     		ldrb r0, [r6]
005BCD4A  F85F 7E0C		ldr r7, [pc, #-3596] ; 0x1
005BCD4E  55F0     		strb r0, [r6, +r7]

005BCD50  E0B4     		b #360 ; 0x005BCEBC


005BCD54  F85F 7DE8		ldr r7, [pc, #-3560] ; 0x130
005BCD58  5DF0     		ldrb r0, [r6, +r7]

005BCD5A  2800     		cmp r0, #0
005BCD5C  D01C     		beq #56 ; 0x005BCD98


005BCD60  F85F 0578		ldr r0, [pc, #-1400] ; 0x5BA0C0

005BCD64  F85F 7DF0		ldr r7, [pc, #-3568] ; 0x164
005BCD68  51F0     		str r0, [r6, +r7]

005BCD6A  F8DF 0194		ldr r0, [pc, #+404] ; 0x5BA500

005BCD6E  F85F 7DF4		ldr r7, [pc, #-3572] ; 0x168
005BCD72  51F0     		str r0, [r6, +r7]

005BCD74  2001     		mov r0, #1 ; 1

005BCD76  F85F 7DFC		ldr r7, [pc, #-3580] ; 0x168
005BCD7A  59F3     		ldr r3, [r6, +r7]
005BCD7C  F85F 7E08		ldr r7, [pc, #-3592] ; 0x164
005BCD80  59F2     		ldr r2, [r6, +r7]
005BCD82  F04F 4180		mov r1, #1073741824 ; 1073741824
005BCD86  4600     		mov r0, r0
005BCD88  F85F 4DF8		ldr r4, [pc, #-3576] ; 0x48FE35
005BCD8C  F044 0401		orr r4, r4, #1
005BCD90  47A0     		blx r4

005BCD92  F85F 7E30		ldr r7, [pc, #-3632] ; 0x12A
005BCD96  53F0     		strh r0, [r6, +r7]

005BCD98  F8DF 7168		ldr r7, [pc, #+360] ; 0x5BA518
005BCD9C  6838     		ldr r0, [r7]

005BCD9E  4600     		mov r0, r0
005BCDA0  F85F 45C8		ldr r4, [pc, #-1480] ; 0x490561
005BCDA4  F044 0401		orr r4, r4, #1
005BCDA8  47A0     		blx r4

005BCDAA  F85F 7E48		ldr r7, [pc, #-3656] ; 0x12A
005BCDAE  53F0     		strh r0, [r6, +r7]

005BCDB0  20C3     		mov r0, #195 ; 195
005BCDB2  F85F 7E74		ldr r7, [pc, #-3700] ; 0x1
005BCDB6  55F0     		strb r0, [r6, +r7]

005BCDB8  E082     		b #260 ; 0x005BCEC0


005BCDBC  E07E     		b #252 ; 0x005BCEBC


005BCDC0  F85F 7E54		ldr r7, [pc, #-3668] ; 0x130
005BCDC4  5DF0     		ldrb r0, [r6, +r7]

005BCDC6  2800     		cmp r0, #0
005BCDC8  D01C     		beq #56 ; 0x005BCE04


005BCDCC  F85F 05E4		ldr r0, [pc, #-1508] ; 0x5BA0C0

005BCDD0  F85F 7E5C		ldr r7, [pc, #-3676] ; 0x164
005BCDD4  51F0     		str r0, [r6, +r7]

005BCDD6  F8DF 0130		ldr r0, [pc, #+304] ; 0x5BA51C

005BCDDA  F85F 7E60		ldr r7, [pc, #-3680] ; 0x168
005BCDDE  51F0     		str r0, [r6, +r7]

005BCDE0  2001     		mov r0, #1 ; 1

005BCDE2  F85F 7E68		ldr r7, [pc, #-3688] ; 0x168
005BCDE6  59F3     		ldr r3, [r6, +r7]
005BCDE8  F85F 7E74		ldr r7, [pc, #-3700] ; 0x164
005BCDEC  59F2     		ldr r2, [r6, +r7]
005BCDEE  F04F 4180		mov r1, #1073741824 ; 1073741824
005BCDF2  4600     		mov r0, r0
005BCDF4  F85F 4E64		ldr r4, [pc, #-3684] ; 0x48FE35
005BCDF8  F044 0401		orr r4, r4, #1
005BCDFC  47A0     		blx r4

005BCDFE  F85F 7E9C		ldr r7, [pc, #-3740] ; 0x12A
005BCE02  53F0     		strh r0, [r6, +r7]

005BCE04  F8DF 7104		ldr r7, [pc, #+260] ; 0x5BA534
005BCE08  6838     		ldr r0, [r7]

005BCE0A  4600     		mov r0, r0
005BCE0C  F85F 4634		ldr r4, [pc, #-1588] ; 0x490561
005BCE10  F044 0401		orr r4, r4, #1
005BCE14  47A0     		blx r4

005BCE16  F85F 7EB4		ldr r7, [pc, #-3764] ; 0x12A
005BCE1A  53F0     		strh r0, [r6, +r7]

005BCE1C  20C3     		mov r0, #195 ; 195
005BCE1E  F85F 7EE0		ldr r7, [pc, #-3808] ; 0x1
005BCE22  55F0     		strb r0, [r6, +r7]

005BCE24  E04C     		b #152 ; 0x005BCEC0


005BCE28  E048     		b #144 ; 0x005BCEBC


005BCE2C  F85F 7EC0		ldr r7, [pc, #-3776] ; 0x130
005BCE30  5DF0     		ldrb r0, [r6, +r7]

005BCE32  2800     		cmp r0, #0
005BCE34  D01C     		beq #56 ; 0x005BCE70


005BCE38  F85F 0650		ldr r0, [pc, #-1616] ; 0x5BA0C0

005BCE3C  F85F 7EC8		ldr r7, [pc, #-3784] ; 0x164
005BCE40  51F0     		str r0, [r6, +r7]

005BCE42  F8DF 00CC		ldr r0, [pc, #+204] ; 0x5BA538

005BCE46  F85F 7ECC		ldr r7, [pc, #-3788] ; 0x168
005BCE4A  51F0     		str r0, [r6, +r7]

005BCE4C  2001     		mov r0, #1 ; 1

005BCE4E  F85F 7ED4		ldr r7, [pc, #-3796] ; 0x168
005BCE52  59F3     		ldr r3, [r6, +r7]
005BCE54  F85F 7EE0		ldr r7, [pc, #-3808] ; 0x164
005BCE58  59F2     		ldr r2, [r6, +r7]
005BCE5A  F04F 4180		mov r1, #1073741824 ; 1073741824
005BCE5E  4600     		mov r0, r0
005BCE60  F85F 4ED0		ldr r4, [pc, #-3792] ; 0x48FE35
005BCE64  F044 0401		orr r4, r4, #1
005BCE68  47A0     		blx r4

005BCE6A  F85F 7F08		ldr r7, [pc, #-3848] ; 0x12A
005BCE6E  53F0     		strh r0, [r6, +r7]

005BCE70  F8DF 70A0		ldr r7, [pc, #+160] ; 0x5BA54C
005BCE74  6838     		ldr r0, [r7]

005BCE76  4600     		mov r0, r0
005BCE78  F85F 46A0		ldr r4, [pc, #-1696] ; 0x490561
005BCE7C  F044 0401		orr r4, r4, #1
005BCE80  47A0     		blx r4

005BCE82  F85F 7F20		ldr r7, [pc, #-3872] ; 0x12A
005BCE86  53F0     		strh r0, [r6, +r7]

005BCE88  20C3     		mov r0, #195 ; 195
005BCE8A  F85F 7F4C		ldr r7, [pc, #-3916] ; 0x1
005BCE8E  55F0     		strb r0, [r6, +r7]

005BCE90  E016     		b #44 ; 0x005BCEC0


005BCE94  E012     		b #36 ; 0x005BCEBC


005BCE98  F8DF 707C		ldr r7, [pc, #+124] ; 0x5BA550
005BCE9C  6838     		ldr r0, [r7]

005BCE9E  4600     		mov r0, r0
005BCEA0  F85F 46C8		ldr r4, [pc, #-1736] ; 0x490561
005BCEA4  F044 0401		orr r4, r4, #1
005BCEA8  47A0     		blx r4

005BCEAA  F85F 7F48		ldr r7, [pc, #-3912] ; 0x12A
005BCEAE  53F0     		strh r0, [r6, +r7]

005BCEB0  20C3     		mov r0, #195 ; 195
005BCEB2  F85F 7F74		ldr r7, [pc, #-3956] ; 0x1
005BCEB6  55F0     		strb r0, [r6, +r7]

005BCEB8  E002     		b #4 ; 0x005BCEC0


005BCEBC  F7FD BCFA		b #-9740 ; 0x005BA8B4

005BCEC0  E8BD 4040		ldmia sp!, { r6, lr }

005BCEC4  4770     		bx lr

005BCEC8  00000004		; 0x00000004
005BCECC  00000005		; 0x00000005
005BCED0  00000006		; 0x00000006
005BCED4  00000007		; 0x00000007
005BCED8  00000008		; 0x00000008
005BCEDC  0000011C		; 0x0000011C
005BCEE0  00000139		; 0x00000139
005BCEE4  0000013A		; 0x0000013A
005BCEE8  005BA4C8		; 0x005BA4C8
005BCEEC  005BA4DC		; 0x005BA4DC
005BCEF0  005BA4E0		; 0x005BA4E0
005BCEF4  005BA4E4		; 0x005BA4E4
005BCEF8  005BA4F8		; 0x005BA4F8
005BCEFC  005BA4FC		; 0x005BA4FC
005BCF00  005BA500		; 0x005BA500
005BCF04  005BA518		; 0x005BA518
005BCF08  005BA51C		; 0x005BA51C
005BCF0C  005BA534		; 0x005BA534
005BCF10  005BA538		; 0x005BA538
005BCF14  005BA54C		; 0x005BA54C
005BCF18  005BA550		; 0x005BA550


Frame allocation:

	0000       : VAR CaseBack
	0001       : VAR CaseNr
	0002       : VAR Ch
	0003       : VAR DFrame
	0104       : FB GetCRC
	0118       : VAR LclPtr
	011C       : VAR RxDLgt
	0120       : VAR TimeBf
	0128       : VAR TxDLgt
	012A       : VAR i
	012C bit  0: VAR FFlop
	012D       : VAR TrIDf
	012E       : VAR DFIDx
	012F bit  0: VAR Enable
	0130 bit  0: VAR SpyOn
	0134       : VAR File
	0138       : VAR Type
	0139       : VAR Node
	013A       : VAR FCode
	013C       : VAR Address
	0140       : VAR Points
	0144       : VAR Buffer
	0148       : VAR IFTime
	014C       : VAR Timeout
	014E       : VAR Delay
	0150 bit  0: VAR Done
	0151 bit  0: VAR Ok
	0152 bit  0: VAR Fault
	0154       : VAR Errors

END_FUNCTION_BLOCK
**************************************************
	List function block: ModbusMsCore
**************************************************

FUNCTION_BLOCK ModbusMsCore

	{ DE:"(eLLabMdbDevsLib_A200), modbus master core" }

        VAR_INPUT
Enable : BOOL;	{ DE:"FB Enable" }
SpyOn : BOOL;	{ DE:"Activate spy data" }
File : UDINT;	{ DE:"File pointer" }
IFTime : UDINT;	{ DE:"Interframe time (uS)" }
Delay : UINT;	{ DE:"Communication delay" }
	END_VAR

        VAR_OUTPUT
Enabled : BOOL;	{ DE:"FB Enabled" }
Fault : BOOL;	{ DE:"FB Fault" }
MMID : @_MMODBUSCOREDATA;	{ DE:"Modbus manager ID" }
	END_VAR

        VAR_EXTERNAL
	{G:"System_variables"}
SysActTaskID AT %MB0.64 : USINT;	{ DE:"System active task ID" }
	END_VAR

        VAR
MMdb : _ModbusMaster;	{ DE:"Modbus master communication" }
MMData : _MMODBUSCOREDATA;	{ DE:"Master modbus manager data struct" }
CaseNr : USINT;	{ DE:"Case gestione programma" }
i : USINT;	{ DE:"Auxiliary counter" }
	END_VAR

END_FUNCTION_BLOCK

005BCF1C  E92D 4040		stmdb sp!, { r6, lr }
005BCF20  462E     		mov r6, r5

005BCF22  F8DF 73FC		ldr r7, [pc, #+1020] ; 0x5BA55C
005BCF26  6838     		ldr r0, [r7]
005BCF28  F8DF 73C4		ldr r7, [pc, #+964] ; 0x18C
005BCF2C  51F0     		str r0, [r6, +r7]

005BCF2E  4630     		mov r0, r6
005BCF30  F8DF 7388		ldr r7, [pc, #+904] ; 0x178
005BCF34  19C0     		add r0, r0, r7

005BCF36  F8DF 73E0		ldr r7, [pc, #+992] ; 0x1A0
005BCF3A  51F0     		str r0, [r6, +r7]

005BCF3C  F8DF 73EC		ldr r7, [pc, #+1004] ; 0x20412E8C
005BCF40  7838     		ldrb r0, [r7]

005BCF42  2801     		cmp r0, #1
005BCF44  BF08 2000		eqmov r0, #0
005BCF48  BF18 2001		nemov r0, #1

005BCF4C  2800     		cmp r0, #0
005BCF4E  D012     		beq #36 ; 0x005BCF76


005BCF52  F8DF 73D0		ldr r7, [pc, #+976] ; 0x5BA57C
005BCF56  6838     		ldr r0, [r7]

005BCF58  4600     		mov r0, r0
005BCF5A  F8DF 43C0		ldr r4, [pc, #+960] ; 0x490561
005BCF5E  F044 0401		orr r4, r4, #1
005BCF62  47A0     		blx r4

005BCF64  F8DF 7390		ldr r7, [pc, #+912] ; 0x191
005BCF68  55F0     		strb r0, [r6, +r7]

005BCF6A  2001     		mov r0, #1 ; 1
005BCF6C  F8DF 73A4		ldr r7, [pc, #+932] ; 0x19F
005BCF70  55F0     		strb r0, [r6, +r7]

005BCF72  E182     		b #772 ; 0x005BD27A


005BCF76  F8DF 7388		ldr r7, [pc, #+904] ; 0x193
005BCF7A  5DF0     		ldrb r0, [r6, +r7]
005BCF7C  F8DF 7304		ldr r7, [pc, #+772] ; 0x130
005BCF80  55F0     		strb r0, [r6, +r7]

005BCF82  F8DF 7388		ldr r7, [pc, #+904] ; 0x19C
005BCF86  5BF0     		ldrh r0, [r6, +r7]
005BCF88  F8DF 7320		ldr r7, [pc, #+800] ; 0x14E
005BCF8C  53F0     		strh r0, [r6, +r7]

005BCF8E  E92D 0021		stmdb sp!, { r0, r5 }
005BCF92  4635     		mov r5, r6
005BCF94  F8DF 4390		ldr r4, [pc, #+912] ; 0x5BA678
005BCF98  F044 0401		orr r4, r4, #1
005BCF9C  47A0     		blx r4
005BCF9E  E8BD 0021		ldmia sp!, { r0, r5 }

005BCFA2  F8DF 7314		ldr r7, [pc, #+788] ; 0x152
005BCFA6  5DF0     		ldrb r0, [r6, +r7]
005BCFA8  F8DF 7368		ldr r7, [pc, #+872] ; 0x19F
005BCFAC  55F0     		strb r0, [r6, +r7]

005BCFAE  F8DF 7304		ldr r7, [pc, #+772] ; 0x151
005BCFB2  5DF0     		ldrb r0, [r6, +r7]

005BCFB4  2800     		cmp r0, #0
005BCFB6  D004     		beq #8 ; 0x005BCFC2


005BCFBA  2001     		mov r0, #1 ; 1
005BCFBC  F8DF 7308		ldr r7, [pc, #+776] ; 0x17B
005BCFC0  55F0     		strb r0, [r6, +r7]

005BCFC2  F8DF 7338		ldr r7, [pc, #+824] ; 0x192
005BCFC6  5DF0     		ldrb r0, [r6, +r7]

005BCFC8  2800     		cmp r0, #0
005BCFCA  BF08 2001		eqmov r0, #1
005BCFCE  BF18 2000		nemov r0, #0

005BCFD2  2800     		cmp r0, #0
005BCFD4  D027     		beq #78 ; 0x005BD026


005BCFD8  F8DF 7334		ldr r7, [pc, #+820] ; 0x19E
005BCFDC  5DF0     		ldrb r0, [r6, +r7]

005BCFDE  2800     		cmp r0, #0
005BCFE0  BF08 2001		eqmov r0, #1
005BCFE4  BF18 2000		nemov r0, #0

005BCFE8  2800     		cmp r0, #0
005BCFEA  D002     		beq #4 ; 0x005BCFF2


005BCFEE  E144     		b #648 ; 0x005BD27A


005BCFF2  2000     		mov r0, #0 ; 0
005BCFF4  F8DF 7318		ldr r7, [pc, #+792] ; 0x19E
005BCFF8  55F0     		strb r0, [r6, +r7]

005BCFFA  2001     		mov r0, #1 ; 1
005BCFFC  F8DF 72BC		ldr r7, [pc, #+700] ; 0x178
005BD000  55F0     		strb r0, [r6, +r7]

005BD002  2000     		mov r0, #0 ; 0
005BD004  F8DF 72B8		ldr r7, [pc, #+696] ; 0x179
005BD008  55F0     		strb r0, [r6, +r7]

005BD00A  2000     		mov r0, #0 ; 0
005BD00C  F8DF 72B4		ldr r7, [pc, #+692] ; 0x17A
005BD010  55F0     		strb r0, [r6, +r7]

005BD012  2000     		mov r0, #0 ; 0
005BD014  F8DF 72B0		ldr r7, [pc, #+688] ; 0x17B
005BD018  55F0     		strb r0, [r6, +r7]

005BD01A  2000     		mov r0, #0 ; 0
005BD01C  F8DF 72B0		ldr r7, [pc, #+688] ; 0x17D
005BD020  55F0     		strb r0, [r6, +r7]

005BD022  E12A     		b #596 ; 0x005BD27A


005BD026  F8DF 72E8		ldr r7, [pc, #+744] ; 0x19E
005BD02A  5DF0     		ldrb r0, [r6, +r7]

005BD02C  2800     		cmp r0, #0
005BD02E  BF08 2001		eqmov r0, #1
005BD032  BF18 2000		nemov r0, #0

005BD036  2800     		cmp r0, #0
005BD038  D014     		beq #40 ; 0x005BD064


005BD03C  2001     		mov r0, #1 ; 1
005BD03E  F8DF 72D0		ldr r7, [pc, #+720] ; 0x19E
005BD042  55F0     		strb r0, [r6, +r7]

005BD044  2000     		mov r0, #0 ; 0
005BD046  F8DF 72AC		ldr r7, [pc, #+684] ; 0x190
005BD04A  55F0     		strb r0, [r6, +r7]

005BD04C  F8DF 72B4		ldr r7, [pc, #+692] ; 0x194
005BD050  59F0     		ldr r0, [r6, +r7]
005BD052  F8DF 7234		ldr r7, [pc, #+564] ; 0x134
005BD056  51F0     		str r0, [r6, +r7]

005BD058  F8DF 72AC		ldr r7, [pc, #+684] ; 0x198
005BD05C  59F0     		ldr r0, [r6, +r7]
005BD05E  F8DF 7244		ldr r7, [pc, #+580] ; 0x148
005BD062  51F0     		str r0, [r6, +r7]

005BD064  2001     		mov r0, #1 ; 1

005BD066  2800     		cmp r0, #0
005BD068  F000 8107		beq #526 ; 0x005BD27A


005BD06C  F8DF 7284		ldr r7, [pc, #+644] ; 0x190
005BD070  5DF0     		ldrb r0, [r6, +r7]

005BD072  2800     		cmp r0, #0
005BD074  BF18 2000		nemov r0, #0
005BD078  BF08 2001		eqmov r0, #1

005BD07C  2800     		cmp r0, #0
005BD07E  D139     		bne #114 ; 0x005BD0F4


005BD082  F8DF 7270		ldr r7, [pc, #+624] ; 0x190
005BD086  5DF0     		ldrb r0, [r6, +r7]

005BD088  2801     		cmp r0, #1
005BD08A  BF18 2000		nemov r0, #0
005BD08E  BF08 2001		eqmov r0, #1

005BD092  2800     		cmp r0, #0
005BD094  D149     		bne #146 ; 0x005BD12A


005BD098  F8DF 7258		ldr r7, [pc, #+600] ; 0x190
005BD09C  5DF0     		ldrb r0, [r6, +r7]

005BD09E  2802     		cmp r0, #2
005BD0A0  BF18 2000		nemov r0, #0
005BD0A4  BF08 2001		eqmov r0, #1

005BD0A8  2800     		cmp r0, #0
005BD0AA  D156     		bne #172 ; 0x005BD15A


005BD0AE  F8DF 7244		ldr r7, [pc, #+580] ; 0x190
005BD0B2  5DF0     		ldrb r0, [r6, +r7]

005BD0B4  2803     		cmp r0, #3
005BD0B6  BF18 2000		nemov r0, #0
005BD0BA  BF08 2001		eqmov r0, #1

005BD0BE  2800     		cmp r0, #0
005BD0C0  F040 8082		bne #260 ; 0x005BD1C8


005BD0C4  F8DF 722C		ldr r7, [pc, #+556] ; 0x190
005BD0C8  5DF0     		ldrb r0, [r6, +r7]

005BD0CA  2804     		cmp r0, #4
005BD0CC  BF18 2000		nemov r0, #0
005BD0D0  BF08 2001		eqmov r0, #1

005BD0D4  2800     		cmp r0, #0
005BD0D6  F040 8097		bne #302 ; 0x005BD208


005BD0DA  F8DF 7218		ldr r7, [pc, #+536] ; 0x190
005BD0DE  5DF0     		ldrb r0, [r6, +r7]

005BD0E0  280A     		cmp r0, #10
005BD0E2  BF18 2000		nemov r0, #0
005BD0E6  BF08 2001		eqmov r0, #1

005BD0EA  2800     		cmp r0, #0
005BD0EC  F040 80A7		bne #334 ; 0x005BD23E


005BD0F0  E0C2     		b #388 ; 0x005BD278


005BD0F4  2001     		mov r0, #1 ; 1
005BD0F6  F8DF 71C4		ldr r7, [pc, #+452] ; 0x178
005BD0FA  55F0     		strb r0, [r6, +r7]

005BD0FC  2000     		mov r0, #0 ; 0
005BD0FE  F8DF 71C0		ldr r7, [pc, #+448] ; 0x179
005BD102  55F0     		strb r0, [r6, +r7]

005BD104  2000     		mov r0, #0 ; 0
005BD106  F8DF 71BC		ldr r7, [pc, #+444] ; 0x17A
005BD10A  55F0     		strb r0, [r6, +r7]

005BD10C  2000     		mov r0, #0 ; 0
005BD10E  F8DF 71B8		ldr r7, [pc, #+440] ; 0x17B
005BD112  55F0     		strb r0, [r6, +r7]

005BD114  F8DF 71DC		ldr r7, [pc, #+476] ; 0x190
005BD118  5DF0     		ldrb r0, [r6, +r7]

005BD11A  1C40     		add r0, r0, #1

005BD11C  F8DF 71D4		ldr r7, [pc, #+468] ; 0x190
005BD120  55F0     		strb r0, [r6, +r7]

005BD122  E0AA     		b #340 ; 0x005BD27A


005BD126  E0A7     		b #334 ; 0x005BD278


005BD12A  F8DF 71C8		ldr r7, [pc, #+456] ; 0x190
005BD12E  5DF0     		ldrb r0, [r6, +r7]

005BD130  1C40     		add r0, r0, #1

005BD132  F8DF 71C0		ldr r7, [pc, #+448] ; 0x190
005BD136  55F0     		strb r0, [r6, +r7]

005BD138  F8DF 7184		ldr r7, [pc, #+388] ; 0x179
005BD13C  5DF0     		ldrb r0, [r6, +r7]

005BD13E  2800     		cmp r0, #0
005BD140  BF08 2001		eqmov r0, #1
005BD144  BF18 2000		nemov r0, #0

005BD148  2800     		cmp r0, #0
005BD14A  D004     		beq #8 ; 0x005BD156


005BD14E  200A     		mov r0, #10 ; 10
005BD150  F8DF 71A0		ldr r7, [pc, #+416] ; 0x190
005BD154  55F0     		strb r0, [r6, +r7]

005BD156  E08F     		b #286 ; 0x005BD278


005BD15A  2001     		mov r0, #1 ; 1
005BD15C  F8DF 7120		ldr r7, [pc, #+288] ; 0x12F
005BD160  55F0     		strb r0, [r6, +r7]

005BD162  F8DF 7170		ldr r7, [pc, #+368] ; 0x17E
005BD166  5DF0     		ldrb r0, [r6, +r7]
005BD168  F8DF 7120		ldr r7, [pc, #+288] ; 0x138
005BD16C  55F0     		strb r0, [r6, +r7]

005BD16E  F8DF 7168		ldr r7, [pc, #+360] ; 0x17F
005BD172  5DF0     		ldrb r0, [r6, +r7]
005BD174  F8DF 7118		ldr r7, [pc, #+280] ; 0x139
005BD178  55F0     		strb r0, [r6, +r7]

005BD17A  F8DF 7160		ldr r7, [pc, #+352] ; 0x180
005BD17E  5DF0     		ldrb r0, [r6, +r7]
005BD180  F8DF 7110		ldr r7, [pc, #+272] ; 0x13A
005BD184  55F0     		strb r0, [r6, +r7]

005BD186  F8DF 715C		ldr r7, [pc, #+348] ; 0x184
005BD18A  5BF0     		ldrh r0, [r6, +r7]
005BD18C  F8DF 7108		ldr r7, [pc, #+264] ; 0x13C
005BD190  53F0     		strh r0, [r6, +r7]

005BD192  F8DF 714C		ldr r7, [pc, #+332] ; 0x181
005BD196  5DF0     		ldrb r0, [r6, +r7]
005BD198  F8DF 7100		ldr r7, [pc, #+256] ; 0x140
005BD19C  51F0     		str r0, [r6, +r7]

005BD19E  F8DF 714C		ldr r7, [pc, #+332] ; 0x188
005BD1A2  59F0     		ldr r0, [r6, +r7]
005BD1A4  F8DF 70F8		ldr r7, [pc, #+248] ; 0x144
005BD1A8  51F0     		str r0, [r6, +r7]

005BD1AA  F8DF 713C		ldr r7, [pc, #+316] ; 0x186
005BD1AE  5BF0     		ldrh r0, [r6, +r7]
005BD1B0  F8DF 70F4		ldr r7, [pc, #+244] ; 0x14C
005BD1B4  53F0     		strh r0, [r6, +r7]

005BD1B6  F8DF 713C		ldr r7, [pc, #+316] ; 0x190
005BD1BA  5DF0     		ldrb r0, [r6, +r7]

005BD1BC  1C40     		add r0, r0, #1

005BD1BE  F8DF 7134		ldr r7, [pc, #+308] ; 0x190
005BD1C2  55F0     		strb r0, [r6, +r7]

005BD1C4  E058     		b #176 ; 0x005BD278


005BD1C8  F8DF 70E4		ldr r7, [pc, #+228] ; 0x150
005BD1CC  5DF0     		ldrb r0, [r6, +r7]

005BD1CE  2800     		cmp r0, #0
005BD1D0  BF08 2001		eqmov r0, #1
005BD1D4  BF18 2000		nemov r0, #0

005BD1D8  2800     		cmp r0, #0
005BD1DA  D002     		beq #4 ; 0x005BD1E2


005BD1DE  E04C     		b #152 ; 0x005BD27A


005BD1E2  2000     		mov r0, #0 ; 0
005BD1E4  F8DF 7098		ldr r7, [pc, #+152] ; 0x12F
005BD1E8  55F0     		strb r0, [r6, +r7]

005BD1EA  2000     		mov r0, #0 ; 0
005BD1EC  F8DF 70CC		ldr r7, [pc, #+204] ; 0x178
005BD1F0  55F0     		strb r0, [r6, +r7]

005BD1F2  F8DF 7100		ldr r7, [pc, #+256] ; 0x190
005BD1F6  5DF0     		ldrb r0, [r6, +r7]

005BD1F8  1C40     		add r0, r0, #1

005BD1FA  F8DF 70F8		ldr r7, [pc, #+248] ; 0x190
005BD1FE  55F0     		strb r0, [r6, +r7]

005BD200  E03B     		b #118 ; 0x005BD27A


005BD204  E038     		b #112 ; 0x005BD278


005BD208  F8DF 70B8		ldr r7, [pc, #+184] ; 0x17A
005BD20C  5DF0     		ldrb r0, [r6, +r7]

005BD20E  2800     		cmp r0, #0
005BD210  BF08 2001		eqmov r0, #1
005BD214  BF18 2000		nemov r0, #0

005BD218  2800     		cmp r0, #0
005BD21A  D006     		beq #12 ; 0x005BD22A


005BD21E  2000     		mov r0, #0 ; 0
005BD220  F8DF 70D0		ldr r7, [pc, #+208] ; 0x190
005BD224  55F0     		strb r0, [r6, +r7]

005BD226  E008     		b #16 ; 0x005BD23A


005BD22A  2000     		mov r0, #0 ; 0
005BD22C  F8DF 7094		ldr r7, [pc, #+148] ; 0x17A
005BD230  55F0     		strb r0, [r6, +r7]

005BD232  200A     		mov r0, #10 ; 10
005BD234  F8DF 70BC		ldr r7, [pc, #+188] ; 0x190
005BD238  55F0     		strb r0, [r6, +r7]

005BD23A  E01D     		b #58 ; 0x005BD278


005BD23E  F8DF 7090		ldr r7, [pc, #+144] ; 0x17D
005BD242  5DF0     		ldrb r0, [r6, +r7]

005BD244  1C40     		add r0, r0, #1

005BD246  F8DF 7088		ldr r7, [pc, #+136] ; 0x17D
005BD24A  55F0     		strb r0, [r6, +r7]

005BD24C  F8DF 7080		ldr r7, [pc, #+128] ; 0x17D
005BD250  5DF0     		ldrb r0, [r6, +r7]

005BD252  F8DF 7078		ldr r7, [pc, #+120] ; 0x17C
005BD256  5DF7     		ldrb r7, [r6, +r7]
005BD258  42B8     		cmp r0, r7
005BD25A  BFB8 2000		ltmov r0, #0
005BD25E  BFA8 2001		gemov r0, #1

005BD262  2800     		cmp r0, #0
005BD264  D004     		beq #8 ; 0x005BD270


005BD268  2000     		mov r0, #0 ; 0
005BD26A  F8DF 7064		ldr r7, [pc, #+100] ; 0x17D
005BD26E  55F0     		strb r0, [r6, +r7]

005BD270  2000     		mov r0, #0 ; 0
005BD272  F8DF 7080		ldr r7, [pc, #+128] ; 0x190
005BD276  55F0     		strb r0, [r6, +r7]

005BD278  E6F4     		b #-536 ; 0x005BD064

005BD27A  E8BD 4040		ldmia sp!, { r6, lr }

005BD27E  4770     		bx lr

005BD280  0000012F		; 0x0000012F
005BD284  00000130		; 0x00000130
005BD288  00000134		; 0x00000134
005BD28C  00000138		; 0x00000138
005BD290  00000139		; 0x00000139
005BD294  0000013A		; 0x0000013A
005BD298  0000013C		; 0x0000013C
005BD29C  00000140		; 0x00000140
005BD2A0  00000144		; 0x00000144
005BD2A4  00000148		; 0x00000148
005BD2A8  0000014C		; 0x0000014C
005BD2AC  0000014E		; 0x0000014E
005BD2B0  00000150		; 0x00000150
005BD2B4  00000151		; 0x00000151
005BD2B8  00000152		; 0x00000152
005BD2BC  00000178		; 0x00000178
005BD2C0  00000179		; 0x00000179
005BD2C4  0000017A		; 0x0000017A
005BD2C8  0000017B		; 0x0000017B
005BD2CC  0000017C		; 0x0000017C
005BD2D0  0000017D		; 0x0000017D
005BD2D4  0000017E		; 0x0000017E
005BD2D8  0000017F		; 0x0000017F
005BD2DC  00000180		; 0x00000180
005BD2E0  00000181		; 0x00000181
005BD2E4  00000184		; 0x00000184
005BD2E8  00000186		; 0x00000186
005BD2EC  00000188		; 0x00000188
005BD2F0  0000018C		; 0x0000018C
005BD2F4  00000190		; 0x00000190
005BD2F8  00000191		; 0x00000191
005BD2FC  00000192		; 0x00000192
005BD300  00000193		; 0x00000193
005BD304  00000194		; 0x00000194
005BD308  00000198		; 0x00000198
005BD30C  0000019C		; 0x0000019C
005BD310  0000019E		; 0x0000019E
005BD314  0000019F		; 0x0000019F
005BD318  000001A0		; 0x000001A0
005BD31C  00490561		; 0x00490561
005BD320  005BA55C		; 0x005BA55C
005BD324  005BA57C		; 0x005BA57C
005BD328  005BA678		; 0x005BA678
005BD32C  20412E8C		; 0x20412E8C


Frame allocation:

	0000       : FB MMdb
	0178       : STRU MMData
	0190       : VAR CaseNr
	0191       : VAR i
	0192 bit  0: VAR Enable
	0193 bit  0: VAR SpyOn
	0194       : VAR File
	0198       : VAR IFTime
	019C       : VAR Delay
	019E bit  0: VAR Enabled
	019F bit  0: VAR Fault
	01A0       : STRU MMID

END_FUNCTION_BLOCK
**************************************************
	List function block: EastronSDM120_v1
**************************************************

FUNCTION_BLOCK EastronSDM120_v1

	{ DE:"(eLLabMdbDevsLib_A200), Eastron SDM 120" }

        VAR_INPUT
Enable : BOOL;	{ DE:"FB enable" }
MMID : @_MMODBUSCOREDATA;	{ DE:"Modbus manager ID" }
Node : USINT;	{ DE:"Node address" }
Timeout : UINT := 200;	{ DE:"Timeout time (mS)" }
	END_VAR

        VAR_OUTPUT
Done : BOOL;	{ DE:"FB done" }
Fault : BOOL;	{ DE:"FB fault" }
Errors : UDINT;	{ DE:"Communication errors" }
Voltage : REAL;	{ DE:"Line voltage (Volts)" }
Current : REAL;	{ DE:"Line current (Amps)" }
Frequency : REAL;	{ DE:"Line frequency (Hertz)" }
AcPower : REAL;	{ DE:"Active power (Watts)" }
ApPower : REAL;	{ DE:"Apparent power (VA)" }
RePower : REAL;	{ DE:"Reactive power (VAr)" }
PwFactor : REAL;	{ DE:"Power factor (None)" }
IAcEnergy : REAL;	{ DE:"Import active energy (kWh)" }
EAcEnergy : REAL;	{ DE:"Export active energy (kWh)" }
TAcEnergy : REAL;	{ DE:"Total active energy (kWh)" }
	END_VAR

        VAR_EXTERNAL
	{G:"System_variables"}
SysActTaskID AT %MB0.64 : USINT;	{ DE:"System active task ID" }
	END_VAR

        VAR
DaughterIDx : USINT;	{ DE:"Indice FB figlia" }
Init : BOOL := TRUE;	{ DE:"Inizializzazione FB" }
MIDx : USINT;	{ DE:"Modbus index" }
MValue : UDINT;	{ DE:"Modbus value" }
Ptr : ARRAY[ 0..1 ] OF @BYTE;	{ DE:"Auxiliary pointer" }
i : USINT;	{ DE:"Auxiliary counter" }
	END_VAR

END_FUNCTION_BLOCK

005BD330  E92D 4040		stmdb sp!, { r6, lr }
005BD334  462E     		mov r6, r5

005BD336  2000     		mov r0, #0 ; 0
005BD338  F8DF 762C		ldr r7, [pc, #+1580] ; 0x1D
005BD33C  55F0     		strb r0, [r6, +r7]

005BD33E  2000     		mov r0, #0 ; 0
005BD340  F8DF 7620		ldr r7, [pc, #+1568] ; 0x1C
005BD344  55F0     		strb r0, [r6, +r7]

005BD346  F8DF 766C		ldr r7, [pc, #+1644] ; 0x20412E8C
005BD34A  7838     		ldrb r0, [r7]

005BD34C  2801     		cmp r0, #1
005BD34E  BF08 2000		eqmov r0, #0
005BD352  BF18 2001		nemov r0, #1

005BD356  2800     		cmp r0, #0
005BD358  D012     		beq #36 ; 0x005BD380


005BD35C  F8DF 763C		ldr r7, [pc, #+1596] ; 0x5BA554
005BD360  6838     		ldr r0, [r7]

005BD362  4600     		mov r0, r0
005BD364  F8DF 4630		ldr r4, [pc, #+1584] ; 0x490561
005BD368  F044 0401		orr r4, r4, #1
005BD36C  47A0     		blx r4

005BD36E  F8DF 75E0		ldr r7, [pc, #+1504] ; 0x10
005BD372  55F0     		strb r0, [r6, +r7]

005BD374  2001     		mov r0, #1 ; 1
005BD376  F8DF 75F0		ldr r7, [pc, #+1520] ; 0x1D
005BD37A  55F0     		strb r0, [r6, +r7]

005BD37C  E2CF     		b #1438 ; 0x005BD91E


005BD380  F8DF 75D4		ldr r7, [pc, #+1492] ; 0x14
005BD384  59F0     		ldr r0, [r6, +r7]

005BD386  2800     		cmp r0, #0
005BD388  BF18 2000		nemov r0, #0
005BD38C  BF08 2001		eqmov r0, #1

005BD390  2800     		cmp r0, #0
005BD392  D012     		beq #36 ; 0x005BD3BA


005BD396  F8DF 7608		ldr r7, [pc, #+1544] ; 0x5BA558
005BD39A  6838     		ldr r0, [r7]

005BD39C  4600     		mov r0, r0
005BD39E  F8DF 45F8		ldr r4, [pc, #+1528] ; 0x490561
005BD3A2  F044 0401		orr r4, r4, #1
005BD3A6  47A0     		blx r4

005BD3A8  F8DF 75A4		ldr r7, [pc, #+1444] ; 0x10
005BD3AC  55F0     		strb r0, [r6, +r7]

005BD3AE  2001     		mov r0, #1 ; 1
005BD3B0  F8DF 75B4		ldr r7, [pc, #+1460] ; 0x1D
005BD3B4  55F0     		strb r0, [r6, +r7]

005BD3B6  E2B2     		b #1380 ; 0x005BD91E


005BD3BA  F8DF 759C		ldr r7, [pc, #+1436] ; 0x14
005BD3BE  F856 C007		ldr r12, [r6, +r7]
005BD3C2  F8DF 7594		ldr r7, [pc, #+1428] ; 0x14
005BD3C6  F85C 0007		ldr r0, [r12, +r7]

005BD3CA  F8DF 75D8		ldr r7, [pc, #+1496] ; 0x5BA55C
005BD3CE  683F     		ldr r7, [r7]
005BD3D0  42B8     		cmp r0, r7
005BD3D2  BF08 2000		eqmov r0, #0
005BD3D6  BF18 2001		nemov r0, #1

005BD3DA  2800     		cmp r0, #0
005BD3DC  D012     		beq #36 ; 0x005BD404


005BD3E0  F8DF 75C4		ldr r7, [pc, #+1476] ; 0x5BA560
005BD3E4  6838     		ldr r0, [r7]

005BD3E6  4600     		mov r0, r0
005BD3E8  F8DF 45AC		ldr r4, [pc, #+1452] ; 0x490561
005BD3EC  F044 0401		orr r4, r4, #1
005BD3F0  47A0     		blx r4

005BD3F2  F8DF 755C		ldr r7, [pc, #+1372] ; 0x10
005BD3F6  55F0     		strb r0, [r6, +r7]

005BD3F8  2001     		mov r0, #1 ; 1
005BD3FA  F8DF 756C		ldr r7, [pc, #+1388] ; 0x1D
005BD3FE  55F0     		strb r0, [r6, +r7]

005BD400  E28D     		b #1306 ; 0x005BD91E


005BD404  F8DF 751C		ldr r7, [pc, #+1308] ; 0x1
005BD408  5DF0     		ldrb r0, [r6, +r7]

005BD40A  2800     		cmp r0, #0
005BD40C  D040     		beq #128 ; 0x005BD490


005BD410  2000     		mov r0, #0 ; 0
005BD412  F8DF 7510		ldr r7, [pc, #+1296] ; 0x1
005BD416  55F0     		strb r0, [r6, +r7]

005BD418  F8DF 753C		ldr r7, [pc, #+1340] ; 0x14
005BD41C  F856 C007		ldr r12, [r6, +r7]
005BD420  F8DF 750C		ldr r7, [pc, #+1292] ; 0x4
005BD424  F81C 0007		ldrb r0, [r12, +r7]
005BD428  7030     		strb r0, [r6]

005BD42A  F8DF 752C		ldr r7, [pc, #+1324] ; 0x14
005BD42E  F856 C007		ldr r12, [r6, +r7]
005BD432  F8DF 74FC		ldr r7, [pc, #+1276] ; 0x4
005BD436  F81C 0007		ldrb r0, [r12, +r7]

005BD43A  28FF     		cmp r0, #255
005BD43C  BF18 2000		nemov r0, #0
005BD440  BF08 2001		eqmov r0, #1

005BD444  2800     		cmp r0, #0
005BD446  D012     		beq #36 ; 0x005BD46E


005BD44A  F8DF 7560		ldr r7, [pc, #+1376] ; 0x5BA564
005BD44E  6838     		ldr r0, [r7]

005BD450  4600     		mov r0, r0
005BD452  F8DF 4544		ldr r4, [pc, #+1348] ; 0x490561
005BD456  F044 0401		orr r4, r4, #1
005BD45A  47A0     		blx r4

005BD45C  F8DF 74F0		ldr r7, [pc, #+1264] ; 0x10
005BD460  55F0     		strb r0, [r6, +r7]

005BD462  2001     		mov r0, #1 ; 1
005BD464  F8DF 7500		ldr r7, [pc, #+1280] ; 0x1D
005BD468  55F0     		strb r0, [r6, +r7]

005BD46A  E258     		b #1200 ; 0x005BD91E


005BD46E  F8DF 74E8		ldr r7, [pc, #+1256] ; 0x14
005BD472  F856 C007		ldr r12, [r6, +r7]
005BD476  F8DF 74B8		ldr r7, [pc, #+1208] ; 0x4
005BD47A  F81C 0007		ldrb r0, [r12, +r7]

005BD47E  1C40     		add r0, r0, #1

005BD480  F8DF 74D4		ldr r7, [pc, #+1236] ; 0x14
005BD484  F856 C007		ldr r12, [r6, +r7]
005BD488  F8DF 74A4		ldr r7, [pc, #+1188] ; 0x4
005BD48C  F80C 0007		strb r0, [r12, +r7]

005BD490  F8DF 74C4		ldr r7, [pc, #+1220] ; 0x14
005BD494  F856 C007		ldr r12, [r6, +r7]
005BD498  F8DF 7498		ldr r7, [pc, #+1176] ; 0x5
005BD49C  F81C 0007		ldrb r0, [r12, +r7]

005BD4A0  7837     		ldrb r7, [r6]
005BD4A2  42B8     		cmp r0, r7
005BD4A4  BF08 2000		eqmov r0, #0
005BD4A8  BF18 2001		nemov r0, #1

005BD4AC  2800     		cmp r0, #0
005BD4AE  D006     		beq #12 ; 0x005BD4BE


005BD4B2  2000     		mov r0, #0 ; 0
005BD4B4  F8DF 7470		ldr r7, [pc, #+1136] ; 0x2
005BD4B8  55F0     		strb r0, [r6, +r7]

005BD4BA  E230     		b #1120 ; 0x005BD91E


005BD4BE  F8DF 7494		ldr r7, [pc, #+1172] ; 0x11
005BD4C2  5DF0     		ldrb r0, [r6, +r7]

005BD4C4  2800     		cmp r0, #0
005BD4C6  BF08 2001		eqmov r0, #1
005BD4CA  BF18 2000		nemov r0, #0

005BD4CE  2800     		cmp r0, #0
005BD4D0  D002     		beq #4 ; 0x005BD4D8


005BD4D4  E223     		b #1094 ; 0x005BD91E


005BD4D8  F8DF 747C		ldr r7, [pc, #+1148] ; 0x14
005BD4DC  F856 C007		ldr r12, [r6, +r7]
005BD4E0  F89C 0000		ldrb r0, [r12]

005BD4E4  2800     		cmp r0, #0
005BD4E6  F000 8179		beq #754 ; 0x005BD7DC


005BD4EA  F8DF 746C		ldr r7, [pc, #+1132] ; 0x14
005BD4EE  F856 C007		ldr r12, [r6, +r7]
005BD4F2  F8DF 7430		ldr r7, [pc, #+1072] ; 0x1
005BD4F6  F81C 0007		ldrb r0, [r12, +r7]

005BD4FA  2800     		cmp r0, #0
005BD4FC  D002     		beq #4 ; 0x005BD504


005BD500  E20D     		b #1050 ; 0x005BD91E


005BD504  2001     		mov r0, #1 ; 1
005BD506  F8DF 7450		ldr r7, [pc, #+1104] ; 0x14
005BD50A  F856 C007		ldr r12, [r6, +r7]
005BD50E  F8DF 7414		ldr r7, [pc, #+1044] ; 0x1
005BD512  F80C 0007		strb r0, [r12, +r7]

005BD516  2000     		mov r0, #0 ; 0
005BD518  F8DF 743C		ldr r7, [pc, #+1084] ; 0x14
005BD51C  F856 C007		ldr r12, [r6, +r7]
005BD520  F8DF 7414		ldr r7, [pc, #+1044] ; 0x6
005BD524  F80C 0007		strb r0, [r12, +r7]

005BD528  F8DF 7430		ldr r7, [pc, #+1072] ; 0x18
005BD52C  5DF0     		ldrb r0, [r6, +r7]
005BD52E  F8DF 7428		ldr r7, [pc, #+1064] ; 0x14
005BD532  F856 C007		ldr r12, [r6, +r7]
005BD536  F8DF 7404		ldr r7, [pc, #+1028] ; 0x7
005BD53A  F80C 0007		strb r0, [r12, +r7]

005BD53E  2004     		mov r0, #4 ; 4
005BD540  F8DF 7414		ldr r7, [pc, #+1044] ; 0x14
005BD544  F856 C007		ldr r12, [r6, +r7]
005BD548  F8DF 73F4		ldr r7, [pc, #+1012] ; 0x8
005BD54C  F80C 0007		strb r0, [r12, +r7]

005BD550  4630     		mov r0, r6
005BD552  F8DF 73DC		ldr r7, [pc, #+988] ; 0x4
005BD556  19C0     		add r0, r0, r7

005BD558  F8DF 73FC		ldr r7, [pc, #+1020] ; 0x14
005BD55C  F856 C007		ldr r12, [r6, +r7]
005BD560  F8DF 73EC		ldr r7, [pc, #+1004] ; 0x10
005BD564  F84C 0007		str r0, [r12, +r7]

005BD568  2002     		mov r0, #2 ; 2
005BD56A  F8DF 73EC		ldr r7, [pc, #+1004] ; 0x14
005BD56E  F856 C007		ldr r12, [r6, +r7]
005BD572  F8DF 73D0		ldr r7, [pc, #+976] ; 0x9
005BD576  F80C 0007		strb r0, [r12, +r7]

005BD57A  F8DF 73E4		ldr r7, [pc, #+996] ; 0x1A
005BD57E  5BF0     		ldrh r0, [r6, +r7]
005BD580  F8DF 73D4		ldr r7, [pc, #+980] ; 0x14
005BD584  F856 C007		ldr r12, [r6, +r7]
005BD588  F8DF 73C0		ldr r7, [pc, #+960] ; 0xE
005BD58C  F82C 0007		strh r0, [r12, +r7]

005BD590  F8DF 7394		ldr r7, [pc, #+916] ; 0x2
005BD594  5DF0     		ldrb r0, [r6, +r7]

005BD596  2800     		cmp r0, #0
005BD598  BF18 2000		nemov r0, #0
005BD59C  BF08 2001		eqmov r0, #1

005BD5A0  2800     		cmp r0, #0
005BD5A2  D165     		bne #202 ; 0x005BD670


005BD5A6  F8DF 7380		ldr r7, [pc, #+896] ; 0x2
005BD5AA  5DF0     		ldrb r0, [r6, +r7]

005BD5AC  2801     		cmp r0, #1
005BD5AE  BF18 2000		nemov r0, #0
005BD5B2  BF08 2001		eqmov r0, #1

005BD5B6  2800     		cmp r0, #0
005BD5B8  D16C     		bne #216 ; 0x005BD694


005BD5BC  F8DF 7368		ldr r7, [pc, #+872] ; 0x2
005BD5C0  5DF0     		ldrb r0, [r6, +r7]

005BD5C2  2802     		cmp r0, #2
005BD5C4  BF18 2000		nemov r0, #0
005BD5C8  BF08 2001		eqmov r0, #1

005BD5CC  2800     		cmp r0, #0
005BD5CE  D173     		bne #230 ; 0x005BD6B8


005BD5D2  F8DF 7354		ldr r7, [pc, #+852] ; 0x2
005BD5D6  5DF0     		ldrb r0, [r6, +r7]

005BD5D8  2803     		cmp r0, #3
005BD5DA  BF18 2000		nemov r0, #0
005BD5DE  BF08 2001		eqmov r0, #1

005BD5E2  2800     		cmp r0, #0
005BD5E4  D17A     		bne #244 ; 0x005BD6DC


005BD5E8  F8DF 733C		ldr r7, [pc, #+828] ; 0x2
005BD5EC  5DF0     		ldrb r0, [r6, +r7]

005BD5EE  2804     		cmp r0, #4
005BD5F0  BF18 2000		nemov r0, #0
005BD5F4  BF08 2001		eqmov r0, #1

005BD5F8  2800     		cmp r0, #0
005BD5FA  F040 8081		bne #258 ; 0x005BD700


005BD5FE  F8DF 7328		ldr r7, [pc, #+808] ; 0x2
005BD602  5DF0     		ldrb r0, [r6, +r7]

005BD604  2805     		cmp r0, #5
005BD606  BF18 2000		nemov r0, #0
005BD60A  BF08 2001		eqmov r0, #1

005BD60E  2800     		cmp r0, #0
005BD610  F040 8088		bne #272 ; 0x005BD724


005BD614  F8DF 7310		ldr r7, [pc, #+784] ; 0x2
005BD618  5DF0     		ldrb r0, [r6, +r7]

005BD61A  2806     		cmp r0, #6
005BD61C  BF18 2000		nemov r0, #0
005BD620  BF08 2001		eqmov r0, #1

005BD624  2800     		cmp r0, #0
005BD626  F040 808F		bne #286 ; 0x005BD748


005BD62A  F8DF 72FC		ldr r7, [pc, #+764] ; 0x2
005BD62E  5DF0     		ldrb r0, [r6, +r7]

005BD630  2807     		cmp r0, #7
005BD632  BF18 2000		nemov r0, #0
005BD636  BF08 2001		eqmov r0, #1

005BD63A  2800     		cmp r0, #0
005BD63C  F040 8096		bne #300 ; 0x005BD76C


005BD640  F8DF 72E4		ldr r7, [pc, #+740] ; 0x2
005BD644  5DF0     		ldrb r0, [r6, +r7]

005BD646  2808     		cmp r0, #8
005BD648  BF18 2000		nemov r0, #0
005BD64C  BF08 2001		eqmov r0, #1

005BD650  2800     		cmp r0, #0
005BD652  F040 809D		bne #314 ; 0x005BD790


005BD656  F8DF 72D0		ldr r7, [pc, #+720] ; 0x2
005BD65A  5DF0     		ldrb r0, [r6, +r7]

005BD65C  2809     		cmp r0, #9
005BD65E  BF18 2000		nemov r0, #0
005BD662  BF08 2001		eqmov r0, #1

005BD666  2800     		cmp r0, #0
005BD668  F040 80A4		bne #328 ; 0x005BD7B4


005BD66C  E0B4     		b #360 ; 0x005BD7D8


005BD670  2001     		mov r0, #1 ; 1
005BD672  F8DF 72E4		ldr r7, [pc, #+740] ; 0x14
005BD676  F856 C007		ldr r12, [r6, +r7]
005BD67A  F8DF 72CC		ldr r7, [pc, #+716] ; 0xC
005BD67E  F82C 0007		strh r0, [r12, +r7]

005BD682  4630     		mov r0, r6
005BD684  F8DF 72E8		ldr r7, [pc, #+744] ; 0x24
005BD688  19C0     		add r0, r0, r7

005BD68A  F8DF 72B4		ldr r7, [pc, #+692] ; 0x8
005BD68E  51F0     		str r0, [r6, +r7]

005BD690  E0A2     		b #324 ; 0x005BD7D8


005BD694  200D     		mov r0, #13 ; 13
005BD696  F8DF 72C0		ldr r7, [pc, #+704] ; 0x14
005BD69A  F856 C007		ldr r12, [r6, +r7]
005BD69E  F8DF 72A8		ldr r7, [pc, #+680] ; 0xC
005BD6A2  F82C 0007		strh r0, [r12, +r7]

005BD6A6  4630     		mov r0, r6
005BD6A8  F8DF 72D0		ldr r7, [pc, #+720] ; 0x30
005BD6AC  19C0     		add r0, r0, r7

005BD6AE  F8DF 7290		ldr r7, [pc, #+656] ; 0x8
005BD6B2  51F0     		str r0, [r6, +r7]

005BD6B4  E090     		b #288 ; 0x005BD7D8


005BD6B8  2007     		mov r0, #7 ; 7
005BD6BA  F8DF 729C		ldr r7, [pc, #+668] ; 0x14
005BD6BE  F856 C007		ldr r12, [r6, +r7]
005BD6C2  F8DF 7284		ldr r7, [pc, #+644] ; 0xC
005BD6C6  F82C 0007		strh r0, [r12, +r7]

005BD6CA  4630     		mov r0, r6
005BD6CC  F8DF 72A4		ldr r7, [pc, #+676] ; 0x28
005BD6D0  19C0     		add r0, r0, r7

005BD6D2  F8DF 726C		ldr r7, [pc, #+620] ; 0x8
005BD6D6  51F0     		str r0, [r6, +r7]

005BD6D8  E07E     		b #252 ; 0x005BD7D8


005BD6DC  2013     		mov r0, #19 ; 19
005BD6DE  F8DF 7278		ldr r7, [pc, #+632] ; 0x14
005BD6E2  F856 C007		ldr r12, [r6, +r7]
005BD6E6  F8DF 7260		ldr r7, [pc, #+608] ; 0xC
005BD6EA  F82C 0007		strh r0, [r12, +r7]

005BD6EE  4630     		mov r0, r6
005BD6F0  F8DF 728C		ldr r7, [pc, #+652] ; 0x34
005BD6F4  19C0     		add r0, r0, r7

005BD6F6  F8DF 7248		ldr r7, [pc, #+584] ; 0x8
005BD6FA  51F0     		str r0, [r6, +r7]

005BD6FC  E06C     		b #216 ; 0x005BD7D8


005BD700  2019     		mov r0, #25 ; 25
005BD702  F8DF 7254		ldr r7, [pc, #+596] ; 0x14
005BD706  F856 C007		ldr r12, [r6, +r7]
005BD70A  F8DF 723C		ldr r7, [pc, #+572] ; 0xC
005BD70E  F82C 0007		strh r0, [r12, +r7]

005BD712  4630     		mov r0, r6
005BD714  F8DF 726C		ldr r7, [pc, #+620] ; 0x38
005BD718  19C0     		add r0, r0, r7

005BD71A  F8DF 7224		ldr r7, [pc, #+548] ; 0x8
005BD71E  51F0     		str r0, [r6, +r7]

005BD720  E05A     		b #180 ; 0x005BD7D8


005BD724  201F     		mov r0, #31 ; 31
005BD726  F8DF 7230		ldr r7, [pc, #+560] ; 0x14
005BD72A  F856 C007		ldr r12, [r6, +r7]
005BD72E  F8DF 7218		ldr r7, [pc, #+536] ; 0xC
005BD732  F82C 0007		strh r0, [r12, +r7]

005BD736  4630     		mov r0, r6
005BD738  F8DF 724C		ldr r7, [pc, #+588] ; 0x3C
005BD73C  19C0     		add r0, r0, r7

005BD73E  F8DF 7200		ldr r7, [pc, #+512] ; 0x8
005BD742  51F0     		str r0, [r6, +r7]

005BD744  E048     		b #144 ; 0x005BD7D8


005BD748  2047     		mov r0, #71 ; 71
005BD74A  F8DF 720C		ldr r7, [pc, #+524] ; 0x14
005BD74E  F856 C007		ldr r12, [r6, +r7]
005BD752  F8DF 71F4		ldr r7, [pc, #+500] ; 0xC
005BD756  F82C 0007		strh r0, [r12, +r7]

005BD75A  4630     		mov r0, r6
005BD75C  F8DF 7218		ldr r7, [pc, #+536] ; 0x2C
005BD760  19C0     		add r0, r0, r7

005BD762  F8DF 71DC		ldr r7, [pc, #+476] ; 0x8
005BD766  51F0     		str r0, [r6, +r7]

005BD768  E036     		b #108 ; 0x005BD7D8


005BD76C  2049     		mov r0, #73 ; 73
005BD76E  F8DF 71E8		ldr r7, [pc, #+488] ; 0x14
005BD772  F856 C007		ldr r12, [r6, +r7]
005BD776  F8DF 71D0		ldr r7, [pc, #+464] ; 0xC
005BD77A  F82C 0007		strh r0, [r12, +r7]

005BD77E  4630     		mov r0, r6
005BD780  F8DF 7208		ldr r7, [pc, #+520] ; 0x40
005BD784  19C0     		add r0, r0, r7

005BD786  F8DF 71B8		ldr r7, [pc, #+440] ; 0x8
005BD78A  51F0     		str r0, [r6, +r7]

005BD78C  E024     		b #72 ; 0x005BD7D8


005BD790  204B     		mov r0, #75 ; 75
005BD792  F8DF 71C4		ldr r7, [pc, #+452] ; 0x14
005BD796  F856 C007		ldr r12, [r6, +r7]
005BD79A  F8DF 71AC		ldr r7, [pc, #+428] ; 0xC
005BD79E  F82C 0007		strh r0, [r12, +r7]

005BD7A2  4630     		mov r0, r6
005BD7A4  F8DF 71E8		ldr r7, [pc, #+488] ; 0x44
005BD7A8  19C0     		add r0, r0, r7

005BD7AA  F8DF 7194		ldr r7, [pc, #+404] ; 0x8
005BD7AE  51F0     		str r0, [r6, +r7]

005BD7B0  E012     		b #36 ; 0x005BD7D8


005BD7B4  F8DF 71F8		ldr r7, [pc, #+504] ; 0x5BA568
005BD7B8  8838     		ldrh r0, [r7]
005BD7BA  F8DF 719C		ldr r7, [pc, #+412] ; 0x14
005BD7BE  F856 C007		ldr r12, [r6, +r7]
005BD7C2  F8DF 7184		ldr r7, [pc, #+388] ; 0xC
005BD7C6  F82C 0007		strh r0, [r12, +r7]

005BD7CA  4630     		mov r0, r6
005BD7CC  F8DF 71C4		ldr r7, [pc, #+452] ; 0x48
005BD7D0  19C0     		add r0, r0, r7

005BD7D2  F8DF 716C		ldr r7, [pc, #+364] ; 0x8
005BD7D6  51F0     		str r0, [r6, +r7]

005BD7D8  E0A1     		b #322 ; 0x005BD91E


005BD7DC  F8DF 7178		ldr r7, [pc, #+376] ; 0x14
005BD7E0  F856 C007		ldr r12, [r6, +r7]
005BD7E4  F8DF 713C		ldr r7, [pc, #+316] ; 0x1
005BD7E8  F81C 0007		ldrb r0, [r12, +r7]

005BD7EC  2800     		cmp r0, #0
005BD7EE  BF08 2001		eqmov r0, #1
005BD7F2  BF18 2000		nemov r0, #0

005BD7F6  2800     		cmp r0, #0
005BD7F8  D002     		beq #4 ; 0x005BD800


005BD7FC  E08F     		b #286 ; 0x005BD91E


005BD800  2000     		mov r0, #0 ; 0
005BD802  F8DF 7154		ldr r7, [pc, #+340] ; 0x14
005BD806  F856 C007		ldr r12, [r6, +r7]
005BD80A  F8DF 7118		ldr r7, [pc, #+280] ; 0x1
005BD80E  F80C 0007		strb r0, [r12, +r7]

005BD812  F8DF 7144		ldr r7, [pc, #+324] ; 0x14
005BD816  F856 C007		ldr r12, [r6, +r7]
005BD81A  F8DF 7110		ldr r7, [pc, #+272] ; 0x3
005BD81E  F81C 0007		ldrb r0, [r12, +r7]

005BD822  2800     		cmp r0, #0
005BD824  BF08 2001		eqmov r0, #1
005BD828  BF18 2000		nemov r0, #0

005BD82C  2800     		cmp r0, #0
005BD82E  D009     		beq #18 ; 0x005BD844


005BD832  F8DF 7138		ldr r7, [pc, #+312] ; 0x20
005BD836  59F0     		ldr r0, [r6, +r7]

005BD838  1C40     		add r0, r0, #1

005BD83A  F8DF 7130		ldr r7, [pc, #+304] ; 0x20
005BD83E  51F0     		str r0, [r6, +r7]

005BD840  E041     		b #130 ; 0x005BD8C6


005BD844  F8DF 70E8		ldr r7, [pc, #+232] ; 0x4
005BD848  59F0     		ldr r0, [r6, +r7]

005BD84A  0C07     		lsr r7, r0, #16
005BD84C  EA47 4000		orr r0, r7, r0, lsl #16

005BD850  F8DF 70DC		ldr r7, [pc, #+220] ; 0x4
005BD854  51F0     		str r0, [r6, +r7]

005BD856  4630     		mov r0, r6
005BD858  F8DF 70D4		ldr r7, [pc, #+212] ; 0x4
005BD85C  19C0     		add r0, r0, r7

005BD85E  F8DF 70E8		ldr r7, [pc, #+232] ; 0xC
005BD862  51F0     		str r0, [r6, +r7]

005BD864  2000     		mov r0, #0 ; 0

005BD866  F8DF 70E8		ldr r7, [pc, #+232] ; 0x10
005BD86A  55F0     		strb r0, [r6, +r7]

005BD86C  F8DF 70E0		ldr r7, [pc, #+224] ; 0x10
005BD870  5DF0     		ldrb r0, [r6, +r7]

005BD872  2803     		cmp r0, #3
005BD874  BFD8 2000		lemov r0, #0
005BD878  BFC8 2001		gtmov r0, #1

005BD87C  2800     		cmp r0, #0
005BD87E  D122     		bne #68 ; 0x005BD8C6


005BD882  F8DF 70C4		ldr r7, [pc, #+196] ; 0xC
005BD886  F856 C007		ldr r12, [r6, +r7]
005BD88A  F89C 0000		ldrb r0, [r12]
005BD88E  F8DF 70B0		ldr r7, [pc, #+176] ; 0x8
005BD892  F856 C007		ldr r12, [r6, +r7]
005BD896  F88C 0000		strb r0, [r12]

005BD89A  F8DF 70A4		ldr r7, [pc, #+164] ; 0x8
005BD89E  59F0     		ldr r0, [r6, +r7]

005BD8A0  1C40     		add r0, r0, #1

005BD8A2  F8DF 709C		ldr r7, [pc, #+156] ; 0x8
005BD8A6  51F0     		str r0, [r6, +r7]

005BD8A8  F8DF 709C		ldr r7, [pc, #+156] ; 0xC
005BD8AC  59F0     		ldr r0, [r6, +r7]

005BD8AE  1C40     		add r0, r0, #1

005BD8B0  F8DF 7094		ldr r7, [pc, #+148] ; 0xC
005BD8B4  51F0     		str r0, [r6, +r7]

005BD8B6  F8DF 7098		ldr r7, [pc, #+152] ; 0x10
005BD8BA  5DF0     		ldrb r0, [r6, +r7]

005BD8BC  1C40     		add r0, r0, #1

005BD8BE  F8DF 7090		ldr r7, [pc, #+144] ; 0x10
005BD8C2  55F0     		strb r0, [r6, +r7]

005BD8C4  E7D2     		b #-92 ; 0x005BD86C

005BD8C6  F8DF 7060		ldr r7, [pc, #+96] ; 0x2
005BD8CA  5DF0     		ldrb r0, [r6, +r7]

005BD8CC  1C40     		add r0, r0, #1

005BD8CE  F8DF 7058		ldr r7, [pc, #+88] ; 0x2
005BD8D2  55F0     		strb r0, [r6, +r7]

005BD8D4  F8DF 7050		ldr r7, [pc, #+80] ; 0x2
005BD8D8  5DF0     		ldrb r0, [r6, +r7]

005BD8DA  B082     		sub sp, sp, #8
005BD8DC  F8CD 0000		str r0, [sp]
005BD8E0  2009     		mov r0, #9 ; 9

005BD8E2  1C40     		add r0, r0, #1

005BD8E4  4607     		mov r7, r0
005BD8E6  F8DD 0000		ldr r0, [sp]
005BD8EA  B002     		add sp, sp, #8
005BD8EC  42B8     		cmp r0, r7
005BD8EE  BFB8 2000		ltmov r0, #0
005BD8F2  BFA8 2001		gemov r0, #1

005BD8F6  2800     		cmp r0, #0
005BD8F8  D011     		beq #34 ; 0x005BD91E


005BD8FC  2001     		mov r0, #1 ; 1
005BD8FE  F8DF 7064		ldr r7, [pc, #+100] ; 0x1C
005BD902  55F0     		strb r0, [r6, +r7]

005BD904  2000     		mov r0, #0 ; 0
005BD906  F8DF 7020		ldr r7, [pc, #+32] ; 0x2
005BD90A  55F0     		strb r0, [r6, +r7]

005BD90C  2001     		mov r0, #1 ; 1
005BD90E  F8DF 7048		ldr r7, [pc, #+72] ; 0x14
005BD912  F856 C007		ldr r12, [r6, +r7]
005BD916  F8DF 7010		ldr r7, [pc, #+16] ; 0x2
005BD91A  F80C 0007		strb r0, [r12, +r7]

005BD91E  E8BD 4040		ldmia sp!, { r6, lr }

005BD922  4770     		bx lr

005BD924  00000001		; 0x00000001
005BD928  00000002		; 0x00000002
005BD92C  00000003		; 0x00000003
005BD930  00000004		; 0x00000004
005BD934  00000005		; 0x00000005
005BD938  00000006		; 0x00000006
005BD93C  00000007		; 0x00000007
005BD940  00000008		; 0x00000008
005BD944  00000009		; 0x00000009
005BD948  0000000C		; 0x0000000C
005BD94C  0000000E		; 0x0000000E
005BD950  00000010		; 0x00000010
005BD954  00000011		; 0x00000011
005BD958  00000014		; 0x00000014
005BD95C  00000018		; 0x00000018
005BD960  0000001A		; 0x0000001A
005BD964  0000001C		; 0x0000001C
005BD968  0000001D		; 0x0000001D
005BD96C  00000020		; 0x00000020
005BD970  00000024		; 0x00000024
005BD974  00000028		; 0x00000028
005BD978  0000002C		; 0x0000002C
005BD97C  00000030		; 0x00000030
005BD980  00000034		; 0x00000034
005BD984  00000038		; 0x00000038
005BD988  0000003C		; 0x0000003C
005BD98C  00000040		; 0x00000040
005BD990  00000044		; 0x00000044
005BD994  00000048		; 0x00000048
005BD998  00490561		; 0x00490561
005BD99C  005BA554		; 0x005BA554
005BD9A0  005BA558		; 0x005BA558
005BD9A4  005BA55C		; 0x005BA55C
005BD9A8  005BA560		; 0x005BA560
005BD9AC  005BA564		; 0x005BA564
005BD9B0  005BA568		; 0x005BA568
005BD9B4  20412E8C		; 0x20412E8C


Frame allocation:

	0000       : VAR DaughterIDx
	0001 bit  0: VAR Init
	0002       : VAR MIDx
	0004       : VAR MValue
	0008       : VAR Ptr
	0010       : VAR i
	0011 bit  0: VAR Enable
	0014       : STRU MMID
	0018       : VAR Node
	001A       : VAR Timeout
	001C bit  0: VAR Done
	001D bit  0: VAR Fault
	0020       : VAR Errors
	0024       : VAR Voltage
	0028       : VAR Current
	002C       : VAR Frequency
	0030       : VAR AcPower
	0034       : VAR ApPower
	0038       : VAR RePower
	003C       : VAR PwFactor
	0040       : VAR IAcEnergy
	0044       : VAR EAcEnergy
	0048       : VAR TAcEnergy

END_FUNCTION_BLOCK
**************************************************
	List function block: _HTTPGetPage
**************************************************

FUNCTION_BLOCK _HTTPGetPage

	{ DE:"(eLLabRESTSvcLib_A500) HTTP get page (Private)" }

        VAR_INPUT
Enable : BOOL;	{ DE:"FB enable" }
SpyOn : BOOL;	{ DE:"Spy active" }
HostAddress : @BYTE;	{ DE:"Host address" }
HostName : @BYTE;	{ DE:"Host name" }
HostPort : UINT;	{ DE:"Host port" }
Page : @BYTE;	{ DE:"Page to request" }
Request : @BYTE;	{ DE:"Request string" }
Filename : STRING[ 32 ];	{ DE:"Path and name of file where to log" }
PBuffer : @BYTE;	{ DE:"Page buffer" }
PBLength : UDINT;	{ DE:"Page buffer length" }
Timeout : UDINT;	{ DE:"Execution timeout (mS)" }
	END_VAR

        VAR_OUTPUT
Done : BOOL;	{ DE:"Execution done" }
Ok : BOOL;	{ DE:"Page loaded" }
Fault : BOOL;	{ DE:"Execution fault" }
HTTPStatus : STRING[ 64 ];	{ DE:"HTPP Status received" }
PLength : UDINT;	{ DE:"Received page length" }
PLTime : REAL;	{ DE:"Page load time (S)" }
	END_VAR

        VAR_EXTERNAL
	{G:"System_variables"}
SysActTaskID AT %MB0.64 : USINT;	{ DE:"System active task ID" }
	END_VAR

        VAR
CaseBk : USINT;	{ DE:"Case back" }
CaseNr : USINT;	{ DE:"Case gestione" }
DBPtr : @BYTE;	{ DE:"Data buffer pointer (SysRMalloc)" }
ErrorNr : UDINT;	{ DE:"Error number" }
Fp : UDINT;	{ DE:"File pointer" }
i : UDINT;	{ DE:"Auxiliary variable" }
LBf : ARRAY[ 0..4 ] OF UDINT;	{ DE:"Length buffer" }
Ptr : @BYTE;	{ DE:"Auxiliary pointer" }
SBPtr : @BYTE;	{ DE:"Spy buffer pointer (SysRMAlloc)" }
TCPClient : SysTCPClient;	{ DE:"TCP client" }
TimeBf : ARRAY[ 0..1 ] OF UDINT;	{ DE:"Time buffer" }
	END_VAR

        VAR CONSTANT
DBSize : UINT := 512;	{ DE:"Data buffer size (SysRMalloc)" }
SBSize : UINT := 128;	{ DE:"Spy buffer size (SysRMAlloc)" }
	END_VAR

END_FUNCTION_BLOCK

005BD9B8  E92D 4040		stmdb sp!, { r6, lr }
005BD9BC  462E     		mov r6, r5

#0		{SRC:_HTTPGetPage}
#1
#2
#3
#4		{L:46}
(*) BOOL
005BD9BE  2000     		mov r0, #0 ; 0
005BD9C0  F8DF 7838		ldr r7, [pc, #+2104] ; 0xA9
005BD9C4  55F0     		strb r0, [r6, +r7]

#5
#6
#7		{L:47}
(*) BOOL
005BD9C6  2000     		mov r0, #0 ; 0
005BD9C8  F8DF 7834		ldr r7, [pc, #+2100] ; 0xAA
005BD9CC  55F0     		strb r0, [r6, +r7]

#8
#9
#10
#11		{L:48}
(*) UNDEF
005BD9CE  F8DF 7898		ldr r7, [pc, #+2200] ; 0x20412E8C
005BD9D2  7838     		ldrb r0, [r7]

#12		{L:48}
(*) USINT
005BD9D4  2801     		cmp r0, #1
005BD9D6  BF08 2000		eqmov r0, #0
005BD9DA  BF18 2001		nemov r0, #1

#13		{L:48}
(-) BOOL
005BD9DE  2800     		cmp r0, #0
005BD9E0  D012     		beq #36 ; 0x005BDA08


#14
#15
#16
#17
#18		{L:48}
(*) UNDEF
005BD9E4  F8DF 7868		ldr r7, [pc, #+2152] ; 0x5BA094
005BD9E8  6838     		ldr r0, [r7]

#19		{L:48}
(-) UDINT
005BD9EA  4600     		mov r0, r0
005BD9EC  F8DF 4838		ldr r4, [pc, #+2104] ; 0x490561
005BD9F0  F044 0401		orr r4, r4, #1
005BD9F4  47A0     		blx r4

#20		{L:48}
(*) BOOL
005BD9F6  F8DF 77D4		ldr r7, [pc, #+2004] ; 0x10
005BD9FA  51F0     		str r0, [r6, +r7]

#21
#22
#23		{L:48}
(*) BOOL
005BD9FC  2001     		mov r0, #1 ; 1
005BD9FE  F8DF 7800		ldr r7, [pc, #+2048] ; 0xAA
005BDA02  55F0     		strb r0, [r6, +r7]

#24
#25
#26
#27
(-) BOOL
005BDA04  F002 BADC		b #9656 ; 0x005BFFC0


#28
#29
#30
#31
#32		{L:49}
(*) BOOL
005BDA08  E92D 0021		stmdb sp!, { r0, r5 }
005BDA0C  F8DF 77CC		ldr r7, [pc, #+1996] ; 0x30
005BDA10  19F0     		add r0, r6, r7
005BDA12  F8DF 4800		ldr r4, [pc, #+2048] ; 0x48EB99
005BDA16  F044 0401		orr r4, r4, #1
005BDA1A  47A0     		blx r4
005BDA1C  E8BD 0021		ldmia sp!, { r0, r5 }

#33
#34
#35
#36		{L:56}
(*) UNDEF
005BDA20  F8DF 77CC		ldr r7, [pc, #+1996] ; 0x61
005BDA24  5DF0     		ldrb r0, [r6, +r7]

#37		{L:56}
(-) BOOL
005BDA26  2800     		cmp r0, #0
005BDA28  D014     		beq #40 ; 0x005BDA54


#38
#39
#40
#41
#42
#43		{L:56}
(-) UNDEF
005BDA2C  2000     		mov r0, #0 ; 0

#44		{L:56}
(-) USINT
005BDA2E  2300     		mov r3, #0 ; 0
005BDA30  2200     		mov r2, #0 ; 0
005BDA32  2100     		mov r1, #0 ; 0
005BDA34  4600     		mov r0, r0
005BDA36  F8DF 47E8		ldr r4, [pc, #+2024] ; 0x48FE35
005BDA3A  F044 0401		orr r4, r4, #1
005BDA3E  47A0     		blx r4

#45		{L:56}
(*) BOOL
005BDA40  2800     		cmp r0, #0
005BDA42  BF08 2001		eqmov r0, #1
005BDA46  BF18 2000		nemov r0, #0

#46		{L:56}
(-) BOOL
005BDA4A  2800     		cmp r0, #0
005BDA4C  D002     		beq #4 ; 0x005BDA54


#47
#48
#49
#50
#51
#52
(-) BOOL
005BDA50  F002 BAB6		b #9580 ; 0x005BFFC0


#53
#54
#55
#56
#57
#58
#59
#60
#61		{L:60}
(*) UNDEF
005BDA54  F8DF 7780		ldr r7, [pc, #+1920] ; 0x2C
005BDA58  59F0     		ldr r0, [r6, +r7]

#62		{L:60}
(*) @BYTE
005BDA5A  2700     		mov r7, #0 ; 0
005BDA5C  42B8     		cmp r0, r7
005BDA5E  BF18 2000		nemov r0, #0
005BDA62  BF08 2001		eqmov r0, #1

#63		{L:60}
(*) BOOL
005BDA66  F8DF 7788		ldr r7, [pc, #+1928] ; 0x61
005BDA6A  5DF7     		ldrb r7, [r6, +r7]
005BDA6C  4038     		and r0, r0, r7

#64		{L:60}
(-) BOOL
005BDA6E  2800     		cmp r0, #0
005BDA70  D014     		beq #40 ; 0x005BDA9C


#65
#66
#67
#68
#69		{L:60}
(*) BOOL
005BDA74  4630     		mov r0, r6
005BDA76  F8DF 7760		ldr r7, [pc, #+1888] ; 0x2C
005BDA7A  19C0     		add r0, r0, r7

#70		{L:60}
(*) DWORD
005BDA7C  F8DF 7784		ldr r7, [pc, #+1924] ; 0xF4
005BDA80  51F0     		str r0, [r6, +r7]

#71		{L:60}
(-) UNDEF
005BDA82  2080     		mov r0, #128 ; 128

#72		{L:60}
(-) UINT
005BDA84  F8DF 777C		ldr r7, [pc, #+1916] ; 0xF4
005BDA88  59F1     		ldr r1, [r6, +r7]
005BDA8A  4600     		mov r0, r0
005BDA8C  F8DF 479C		ldr r4, [pc, #+1948] ; 0x4905B1
005BDA90  F044 0401		orr r4, r4, #1
005BDA94  47A0     		blx r4

#73		{L:60}
(*) BOOL
005BDA96  F8DF 7734		ldr r7, [pc, #+1844] ; 0x10
005BDA9A  51F0     		str r0, [r6, +r7]

#74
#75
#76
#77
#78
#79
#80		{L:61}
(*) UNDEF
005BDA9C  F8DF 7738		ldr r7, [pc, #+1848] ; 0x2C
005BDAA0  59F0     		ldr r0, [r6, +r7]

#81		{L:61}
(*) @BYTE
005BDAA2  2700     		mov r7, #0 ; 0
005BDAA4  42B8     		cmp r0, r7
005BDAA6  BF08 2000		eqmov r0, #0
005BDAAA  BF18 2001		nemov r0, #1

#82		{L:61}
(*) BOOL
005BDAAE  B082     		sub sp, sp, #8
005BDAB0  F8CD 0000		str r0, [sp]
005BDAB4  F8DF 7738		ldr r7, [pc, #+1848] ; 0x61
005BDAB8  5DF0     		ldrb r0, [r6, +r7]

#83		{L:61}
(*) BOOL
005BDABA  2800     		cmp r0, #0
005BDABC  BF08 2001		eqmov r0, #1
005BDAC0  BF18 2000		nemov r0, #0

#84		{L:61}
(*) BOOL
005BDAC4  4607     		mov r7, r0
005BDAC6  F8DD 0000		ldr r0, [sp]
005BDACA  B002     		add sp, sp, #8
005BDACC  4038     		and r0, r0, r7

#85		{L:61}
(-) BOOL
005BDACE  2800     		cmp r0, #0
005BDAD0  D00D     		beq #26 ; 0x005BDAEE


#86
#87
#88
#89
#90		{L:61}
(*) BOOL
005BDAD4  4630     		mov r0, r6
005BDAD6  F8DF 7700		ldr r7, [pc, #+1792] ; 0x2C
005BDADA  19C0     		add r0, r0, r7

#91		{L:61}
(-) DWORD
005BDADC  4600     		mov r0, r0
005BDADE  F8DF 4750		ldr r4, [pc, #+1872] ; 0x4905F5
005BDAE2  F044 0401		orr r4, r4, #1
005BDAE6  47A0     		blx r4

#92		{L:61}
(*) BOOL
005BDAE8  F8DF 76E0		ldr r7, [pc, #+1760] ; 0x10
005BDAEC  51F0     		str r0, [r6, +r7]

#93
#94
#95
#96
#97
#98
#99		{L:68}
(*) UNDEF
005BDAEE  F8DF 76D8		ldr r7, [pc, #+1752] ; 0x8
005BDAF2  59F0     		ldr r0, [r6, +r7]

#100		{L:68}
(*) UDINT
005BDAF4  2800     		cmp r0, #0
005BDAF6  BF08 2000		eqmov r0, #0
005BDAFA  BF18 2001		nemov r0, #1

#101		{L:68}
(-) BOOL
005BDAFE  2800     		cmp r0, #0
005BDB00  F000 8097		beq #302 ; 0x005BDC32


#102
#103
#104
#105
#106
#107		{L:69}
(*) UNDEF
005BDB04  F8DF 76D0		ldr r7, [pc, #+1744] ; 0x2C
005BDB08  59F0     		ldr r0, [r6, +r7]

#108		{L:69}
(*) @BYTE
005BDB0A  2700     		mov r7, #0 ; 0
005BDB0C  42B8     		cmp r0, r7
005BDB0E  BF08 2000		eqmov r0, #0
005BDB12  BF18 2001		nemov r0, #1

#109		{L:69}
(-) BOOL
005BDB16  2800     		cmp r0, #0
005BDB18  D071     		beq #226 ; 0x005BDBFE


#110
#111
#112
#113
#114		{L:70}
(*) BOOL
005BDB1C  4630     		mov r0, r6
005BDB1E  F8DF 76A8		ldr r7, [pc, #+1704] ; 0x8
005BDB22  19C0     		add r0, r0, r7

#115		{L:70}
(*) DWORD
005BDB24  F8DF 76DC		ldr r7, [pc, #+1756] ; 0xF4
005BDB28  51F0     		str r0, [r6, +r7]

#116		{L:70}
(*) UNDEF
005BDB2A  F8DF 76AC		ldr r7, [pc, #+1708] ; 0x2C
005BDB2E  59F0     		ldr r0, [r6, +r7]

#117		{L:70}
(-) @BYTE
005BDB30  B082     		sub sp, sp, #8
005BDB32  F8DF 76D0		ldr r7, [pc, #+1744] ; 0xF4
005BDB36  59F7     		ldr r7, [r6, +r7]
005BDB38  F8CD 7000		str r7, [sp]
005BDB3C  232A     		mov r3, #42 ; 42
005BDB3E  F8DF 7714		ldr r7, [pc, #+1812] ; 0x5BA098
005BDB42  463A     		mov r2, r7
005BDB44  2180     		mov r1, #128 ; 128
005BDB46  4600     		mov r0, r0
005BDB48  F8DF 46CC		ldr r4, [pc, #+1740] ; 0x48F96D
005BDB4C  F044 0401		orr r4, r4, #1
005BDB50  47A0     		blx r4
005BDB52  B002     		add sp, sp, #8

#118		{L:70}
(*) INT
005BDB54  F8DF 7674		ldr r7, [pc, #+1652] ; 0x10
005BDB58  51F0     		str r0, [r6, +r7]

#119
#120
#121		{L:71}
(*) INT
005BDB5A  4630     		mov r0, r6
005BDB5C  F8DF 7660		ldr r7, [pc, #+1632] ; 0x1
005BDB60  19C0     		add r0, r0, r7

#122		{L:71}
(*) DWORD
005BDB62  F8DF 76A0		ldr r7, [pc, #+1696] ; 0xF4
005BDB66  51F0     		str r0, [r6, +r7]

#123		{L:71}
(*) UNDEF
005BDB68  F8DF 766C		ldr r7, [pc, #+1644] ; 0x2C
005BDB6C  59F0     		ldr r0, [r6, +r7]

#124		{L:71}
(-) @BYTE
005BDB6E  B082     		sub sp, sp, #8
005BDB70  F8DF 7690		ldr r7, [pc, #+1680] ; 0xF4
005BDB74  59F7     		ldr r7, [r6, +r7]
005BDB76  F8CD 7000		str r7, [sp]
005BDB7A  2316     		mov r3, #22 ; 22
005BDB7C  F8DF 76D8		ldr r7, [pc, #+1752] ; 0x5BA0A4
005BDB80  463A     		mov r2, r7
005BDB82  2180     		mov r1, #128 ; 128
005BDB84  4600     		mov r0, r0
005BDB86  F8DF 4694		ldr r4, [pc, #+1684] ; 0x48FB19
005BDB8A  F044 0401		orr r4, r4, #1
005BDB8E  47A0     		blx r4
005BDB90  B002     		add sp, sp, #8

#125		{L:71}
(*) INT
005BDB92  F8DF 7638		ldr r7, [pc, #+1592] ; 0x10
005BDB96  51F0     		str r0, [r6, +r7]

#126
#127
#128		{L:72}
(-) INT
005BDB98  4630     		mov r0, r6

#129		{L:72}
(*) DWORD
005BDB9A  F8DF 7668		ldr r7, [pc, #+1640] ; 0xF4
005BDB9E  51F0     		str r0, [r6, +r7]

#130		{L:72}
(*) UNDEF
005BDBA0  F8DF 7634		ldr r7, [pc, #+1588] ; 0x2C
005BDBA4  59F0     		ldr r0, [r6, +r7]

#131		{L:72}
(-) @BYTE
005BDBA6  B082     		sub sp, sp, #8
005BDBA8  F8DF 7658		ldr r7, [pc, #+1624] ; 0xF4
005BDBAC  59F7     		ldr r7, [r6, +r7]
005BDBAE  F8CD 7000		str r7, [sp]
005BDBB2  2316     		mov r3, #22 ; 22
005BDBB4  F8DF 76A4		ldr r7, [pc, #+1700] ; 0x5BA0B4
005BDBB8  463A     		mov r2, r7
005BDBBA  2180     		mov r1, #128 ; 128
005BDBBC  4600     		mov r0, r0
005BDBBE  F8DF 465C		ldr r4, [pc, #+1628] ; 0x48FB19
005BDBC2  F044 0401		orr r4, r4, #1
005BDBC6  47A0     		blx r4
005BDBC8  B002     		add sp, sp, #8

#132		{L:72}
(*) INT
005BDBCA  F8DF 7600		ldr r7, [pc, #+1536] ; 0x10
005BDBCE  51F0     		str r0, [r6, +r7]

#133
#134
#135		{L:73}
(*) INT
005BDBD0  F8DF 068C		ldr r0, [pc, #+1676] ; 0x5BA0C0

#136		{L:73}
(*) DWORD
005BDBD4  F8DF 762C		ldr r7, [pc, #+1580] ; 0xF4
005BDBD8  51F0     		str r0, [r6, +r7]

#137		{L:73}
(-) UNDEF
005BDBDA  2001     		mov r0, #1 ; 1

#138		{L:73}
(-) USINT
005BDBDC  F8DF 75F8		ldr r7, [pc, #+1528] ; 0x2C
005BDBE0  59F3     		ldr r3, [r6, +r7]
005BDBE2  F8DF 7620		ldr r7, [pc, #+1568] ; 0xF4
005BDBE6  59F2     		ldr r2, [r6, +r7]
005BDBE8  F04F 4180		mov r1, #1073741824 ; 1073741824
005BDBEC  4600     		mov r0, r0
005BDBEE  F8DF 4630		ldr r4, [pc, #+1584] ; 0x48FE35
005BDBF2  F044 0401		orr r4, r4, #1
005BDBF6  47A0     		blx r4

#139		{L:73}
(*) BOOL
005BDBF8  F8DF 75D0		ldr r7, [pc, #+1488] ; 0x10
005BDBFC  51F0     		str r0, [r6, +r7]

#140
#141
#142
#143
#144
#145		{L:78}
(*) UNDEF
005BDBFE  F8DF 75C8		ldr r7, [pc, #+1480] ; 0x8
005BDC02  59F0     		ldr r0, [r6, +r7]

#146		{L:78}
(-) UDINT
005BDC04  4600     		mov r0, r0
005BDC06  F8DF 4620		ldr r4, [pc, #+1568] ; 0x490561
005BDC0A  F044 0401		orr r4, r4, #1
005BDC0E  47A0     		blx r4

#147		{L:78}
(*) BOOL
005BDC10  F8DF 75B8		ldr r7, [pc, #+1464] ; 0x10
005BDC14  51F0     		str r0, [r6, +r7]

#148
#149
#150		{L:79}
(*) BOOL
005BDC16  2000     		mov r0, #0 ; 0
005BDC18  F8DF 75AC		ldr r7, [pc, #+1452] ; 0x8
005BDC1C  51F0     		str r0, [r6, +r7]

#151
#152
#153		{L:80}
(*) UDINT
005BDC1E  2001     		mov r0, #1 ; 1
005BDC20  F8DF 75DC		ldr r7, [pc, #+1500] ; 0xAA
005BDC24  55F0     		strb r0, [r6, +r7]

#154
#155
#156		{L:81}
(*) BOOL
005BDC26  2001     		mov r0, #1 ; 1
005BDC28  F8DF 75CC		ldr r7, [pc, #+1484] ; 0xA8
005BDC2C  55F0     		strb r0, [r6, +r7]

#157
#158
#159
#160
(-) BOOL
005BDC2E  F002 B9C7		b #9102 ; 0x005BFFC0


#161
#162
#163
#164
#165
#166		{L:91}
(*) UNDEF
005BDC32  F8DF 758C		ldr r7, [pc, #+1420] ; 0x1
005BDC36  5DF0     		ldrb r0, [r6, +r7]

#167		{L:91}
(*) USINT
005BDC38  2800     		cmp r0, #0
005BDC3A  BF18 2000		nemov r0, #0
005BDC3E  BF08 2001		eqmov r0, #1

#168		{L:91}
(*) BOOL
005BDC42  B082     		sub sp, sp, #8
005BDC44  F8CD 0000		str r0, [sp]
005BDC48  F8DF 75A0		ldr r7, [pc, #+1440] ; 0x60
005BDC4C  5DF0     		ldrb r0, [r6, +r7]

#169		{L:91}
(*) BOOL
005BDC4E  2800     		cmp r0, #0
005BDC50  BF08 2001		eqmov r0, #1
005BDC54  BF18 2000		nemov r0, #0

#170		{L:91}
(*) BOOL
005BDC58  4607     		mov r7, r0
005BDC5A  F8DD 0000		ldr r0, [sp]
005BDC5E  B002     		add sp, sp, #8
005BDC60  4038     		and r0, r0, r7

#171		{L:91}
(-) BOOL
005BDC62  2800     		cmp r0, #0
005BDC64  D01F     		beq #62 ; 0x005BDCA6


#172
#173
#174
#175
#176
#177		{L:92}
(*) UNDEF
005BDC68  F8DF 7558		ldr r7, [pc, #+1368] ; 0x4
005BDC6C  59F0     		ldr r0, [r6, +r7]

#178		{L:92}
(*) @BYTE
005BDC6E  2700     		mov r7, #0 ; 0
005BDC70  42B8     		cmp r0, r7
005BDC72  BF08 2000		eqmov r0, #0
005BDC76  BF18 2001		nemov r0, #1

#179		{L:92}
(-) BOOL
005BDC7A  2800     		cmp r0, #0
005BDC7C  D00D     		beq #26 ; 0x005BDC9A


#180
#181
#182
#183
#184		{L:92}
(*) BOOL
005BDC80  4630     		mov r0, r6
005BDC82  F8DF 7540		ldr r7, [pc, #+1344] ; 0x4
005BDC86  19C0     		add r0, r0, r7

#185		{L:92}
(-) DWORD
005BDC88  4600     		mov r0, r0
005BDC8A  F8DF 45A4		ldr r4, [pc, #+1444] ; 0x4905F5
005BDC8E  F044 0401		orr r4, r4, #1
005BDC92  47A0     		blx r4

#186		{L:92}
(*) BOOL
005BDC94  F8DF 7534		ldr r7, [pc, #+1332] ; 0x10
005BDC98  51F0     		str r0, [r6, +r7]

#187
#188
#189
#190
#191
#192		{L:93}
(*) UDINT
005BDC9A  2000     		mov r0, #0 ; 0
005BDC9C  F8DF 7558		ldr r7, [pc, #+1368] ; 0xA8
005BDCA0  55F0     		strb r0, [r6, +r7]

#193
#194
#195
#196
(-) BOOL
005BDCA2  F002 B98D		b #8986 ; 0x005BFFC0


#197
#198
#199
#200
#201
#202		{L:99}
(*) UNDEF
005BDCA6  F8DF 7550		ldr r7, [pc, #+1360] ; 0xA8
005BDCAA  5DF0     		ldrb r0, [r6, +r7]

#203		{L:99}
(-) BOOL
005BDCAC  2800     		cmp r0, #0
005BDCAE  D023     		beq #70 ; 0x005BDCF8


#204
#205
#206
#207
#208
#209		{L:100}
(*) UNDEF
005BDCB2  F8DF 7510		ldr r7, [pc, #+1296] ; 0x4
005BDCB6  59F0     		ldr r0, [r6, +r7]

#210		{L:100}
(*) @BYTE
005BDCB8  2700     		mov r7, #0 ; 0
005BDCBA  42B8     		cmp r0, r7
005BDCBC  BF08 2000		eqmov r0, #0
005BDCC0  BF18 2001		nemov r0, #1

#211		{L:100}
(-) BOOL
005BDCC4  2800     		cmp r0, #0
005BDCC6  D00D     		beq #26 ; 0x005BDCE4


#212
#213
#214
#215
#216		{L:100}
(*) BOOL
005BDCCA  4630     		mov r0, r6
005BDCCC  F8DF 74F4		ldr r7, [pc, #+1268] ; 0x4
005BDCD0  19C0     		add r0, r0, r7

#217		{L:100}
(-) DWORD
005BDCD2  4600     		mov r0, r0
005BDCD4  F8DF 4558		ldr r4, [pc, #+1368] ; 0x4905F5
005BDCD8  F044 0401		orr r4, r4, #1
005BDCDC  47A0     		blx r4

#218		{L:100}
(*) BOOL
005BDCDE  F8DF 74EC		ldr r7, [pc, #+1260] ; 0x10
005BDCE2  51F0     		str r0, [r6, +r7]

#219
#220
#221
#222
#223
#224		{L:101}
(*) UDINT
005BDCE4  2000     		mov r0, #0 ; 0
005BDCE6  F8DF 74F8		ldr r7, [pc, #+1272] ; 0x38
005BDCEA  55F0     		strb r0, [r6, +r7]

#225
#226
#227		{L:102}
(*) BOOL
005BDCEC  2000     		mov r0, #0 ; 0
005BDCEE  F8DF 74D0		ldr r7, [pc, #+1232] ; 0x1
005BDCF2  55F0     		strb r0, [r6, +r7]

#228
#229
#230
#231
(-) USINT
005BDCF4  F002 B964		b #8904 ; 0x005BFFC0


#232
#233
#234
#235
#236
#237		{L:111}
(*) UNDEF
005BDCF8  F8DF 74C4		ldr r7, [pc, #+1220] ; 0x1
005BDCFC  5DF0     		ldrb r0, [r6, +r7]

#238		{L:111}
(*) USINT
005BDCFE  2800     		cmp r0, #0
005BDD00  BF18 2000		nemov r0, #0
005BDD04  BF08 2001		eqmov r0, #1

#239		{L:111}
(-) BOOL
005BDD08  2800     		cmp r0, #0
005BDD0A  D00A     		beq #20 ; 0x005BDD22


#240
#241
#242
#243
#244		{L:111}
(-) UNDEF
005BDD0E  2001     		mov r0, #1 ; 1

#245		{L:111}
(-) BOOL
005BDD10  4600     		mov r0, r0
005BDD12  F8DF 4510		ldr r4, [pc, #+1296] ; 0x490519
005BDD16  F044 0401		orr r4, r4, #1
005BDD1A  47A0     		blx r4

#246		{L:111}
(*) UDINT
005BDD1C  F8DF 74C8		ldr r7, [pc, #+1224] ; 0x58
005BDD20  51F0     		str r0, [r6, +r7]

#247
#248
#249
#250
#251
#252
#253		{L:112}
(-) UNDEF
005BDD22  2001     		mov r0, #1 ; 1

#254		{L:112}
(-) BOOL
005BDD24  4600     		mov r0, r0
005BDD26  F8DF 44FC		ldr r4, [pc, #+1276] ; 0x490519
005BDD2A  F044 0401		orr r4, r4, #1
005BDD2E  47A0     		blx r4

#255		{L:112}
(*) UDINT
005BDD30  F8DF 74B4		ldr r7, [pc, #+1204] ; 0x58
005BDD34  59F7     		ldr r7, [r6, +r7]
005BDD36  1BC0     		sub r0, r0, r7

#256		{L:112}
(*) UDINT
005BDD38  F8DF 74CC		ldr r7, [pc, #+1228] ; 0xF8
005BDD3C  51F0     		str r0, [r6, +r7]

#257		{L:112}
(*) UNDEF
005BDD3E  F8DF 74B4		ldr r7, [pc, #+1204] ; 0xA4
005BDD42  59F0     		ldr r0, [r6, +r7]

#258		{L:112}
(*) UDINT
005BDD44  F44F 777A		mov r7, #1000 ; 1000
005BDD48  4378     		mul r0, r0, r7

#259		{L:112}
(*) UDINT
005BDD4A  F8DF 74C0		ldr r7, [pc, #+1216] ; 0xFC
005BDD4E  51F0     		str r0, [r6, +r7]

#260		{L:112}
(*) UNDEF
005BDD50  F8DF 74B4		ldr r7, [pc, #+1204] ; 0xF8
005BDD54  59F0     		ldr r0, [r6, +r7]

#261		{L:112}
(*) UDINT
005BDD56  F8DF 74B4		ldr r7, [pc, #+1204] ; 0xFC
005BDD5A  59F7     		ldr r7, [r6, +r7]
005BDD5C  42B8     		cmp r0, r7
005BDD5E  BF98 2000		lsmov r0, #0
005BDD62  BF88 2001		himov r0, #1

#262		{L:112}
(-) BOOL
005BDD66  2800     		cmp r0, #0
005BDD68  D008     		beq #16 ; 0x005BDD7C


#263
#264
#265
#266
#267		{L:112}
(*) BOOL
005BDD6C  F8DF 74F4		ldr r7, [pc, #+1268] ; 0x5BA0C4
005BDD70  6838     		ldr r0, [r7]
005BDD72  F8DF 7454		ldr r7, [pc, #+1108] ; 0x8
005BDD76  51F0     		str r0, [r6, +r7]

#268
#269
#270
#271
(-) UDINT
005BDD78  F002 B922		b #8772 ; 0x005BFFC0


#272
#273
#274
#275
#276
#277		{L:120}
(*) UNDEF
005BDD7C  F8DF 7440		ldr r7, [pc, #+1088] ; 0x1
005BDD80  5DF0     		ldrb r0, [r6, +r7]

#278		{L:120}
(*) USINT
005BDD82  2864     		cmp r0, #100
005BDD84  BFA8 2000		gemov r0, #0
005BDD88  BFB8 2001		ltmov r0, #1

#279		{L:120}
(*) BOOL
005BDD8C  B082     		sub sp, sp, #8
005BDD8E  F8CD 0000		str r0, [sp]
005BDD92  F8DF 742C		ldr r7, [pc, #+1068] ; 0x1
005BDD96  5DF0     		ldrb r0, [r6, +r7]

#280		{L:120}
(*) USINT
005BDD98  280A     		cmp r0, #10
005BDD9A  BFB8 2000		ltmov r0, #0
005BDD9E  BFA8 2001		gemov r0, #1

#281		{L:120}
(*) BOOL
005BDDA2  4607     		mov r7, r0
005BDDA4  F8DD 0000		ldr r0, [sp]
005BDDA8  B002     		add sp, sp, #8
005BDDAA  4038     		and r0, r0, r7

#282		{L:120}
(-) BOOL
005BDDAC  2800     		cmp r0, #0
005BDDAE  F000 8098		beq #304 ; 0x005BDEE2


#283
#284
#285
#286
#287		{L:124}
(*) UNDEF
005BDDB2  F8DF 7410		ldr r7, [pc, #+1040] ; 0x4
005BDDB6  59F0     		ldr r0, [r6, +r7]

#288		{L:124}
(-) @BYTE
005BDDB8  4600     		mov r0, r0
005BDDBA  F8DF 4480		ldr r4, [pc, #+1152] ; 0x4909F1
005BDDBE  F044 0401		orr r4, r4, #1
005BDDC2  47A0     		blx r4

#289		{L:124}
(*) UDINT
005BDDC4  F8DF 7408		ldr r7, [pc, #+1032] ; 0x14
005BDDC8  51F0     		str r0, [r6, +r7]

#290
#291
#292		{L:125}
(*) UNDEF
005BDDCA  F8DF 7418		ldr r7, [pc, #+1048] ; 0x54
005BDDCE  59F0     		ldr r0, [r6, +r7]

#293		{L:125}
(-) UDINT
005BDDD0  4600     		mov r0, r0
005BDDD2  F8DF 4478		ldr r4, [pc, #+1144] ; 0x490CBD
005BDDD6  F044 0401		orr r4, r4, #1
005BDDDA  47A0     		blx r4

#294		{L:125}
(*) INT
005BDDDC  F8DF 73F4		ldr r7, [pc, #+1012] ; 0x18
005BDDE0  51F0     		str r0, [r6, +r7]

#295
#296
#297
#298		{L:126}
(*) UNDEF
005BDDE2  F8DF 73F0		ldr r7, [pc, #+1008] ; 0x18
005BDDE6  59F0     		ldr r0, [r6, +r7]

#299		{L:126}
(*) UDINT
005BDDE8  2800     		cmp r0, #0
005BDDEA  BF98 2000		lsmov r0, #0
005BDDEE  BF88 2001		himov r0, #1

#300		{L:126}
(*) BOOL
005BDDF2  B082     		sub sp, sp, #8
005BDDF4  F8CD 0000		str r0, [sp]
005BDDF8  F8DF 73D4		ldr r7, [pc, #+980] ; 0x14
005BDDFC  59F0     		ldr r0, [r6, +r7]

#301		{L:126}
(*) UDINT
005BDDFE  2800     		cmp r0, #0
005BDE00  BF98 2000		lsmov r0, #0
005BDE04  BF88 2001		himov r0, #1

#302		{L:126}
(*) BOOL
005BDE08  4607     		mov r7, r0
005BDE0A  F8DD 0000		ldr r0, [sp]
005BDE0E  B002     		add sp, sp, #8
005BDE10  4038     		and r0, r0, r7

#303		{L:126}
(-) BOOL
005BDE12  2800     		cmp r0, #0
005BDE14  D049     		beq #146 ; 0x005BDEAA


#304
#305
#306
#307
#308
#309		{L:128}
(*) UNDEF
005BDE18  F8DF 73B8		ldr r7, [pc, #+952] ; 0x18
005BDE1C  59F0     		ldr r0, [r6, +r7]

#310		{L:128}
(*) UDINT
005BDE1E  F8DF 73B0		ldr r7, [pc, #+944] ; 0x14
005BDE22  59F7     		ldr r7, [r6, +r7]
005BDE24  42B8     		cmp r0, r7
005BDE26  BF28 2000		hsmov r0, #0
005BDE2A  BF38 2001		lomov r0, #1

#311		{L:128}
(-) BOOL
005BDE2E  2800     		cmp r0, #0
005BDE30  D006     		beq #12 ; 0x005BDE40


#312
#313
#314
#315
#316		{L:128}
(*) BOOL
005BDE34  F8DF 739C		ldr r7, [pc, #+924] ; 0x18
005BDE38  59F0     		ldr r0, [r6, +r7]
005BDE3A  F8DF 7394		ldr r7, [pc, #+916] ; 0x14
005BDE3E  51F0     		str r0, [r6, +r7]

#317
#318
#319
#320
#321
#322		{L:129}
(*) UNDEF
005BDE40  F8DF 738C		ldr r7, [pc, #+908] ; 0x14
005BDE44  59F0     		ldr r0, [r6, +r7]

#323		{L:129}
(-) UDINT
#324		{L:129}
(*) INT
005BDE46  F8DF 73C8		ldr r7, [pc, #+968] ; 0x100
005BDE4A  53F0     		strh r0, [r6, +r7]

#325		{L:129}
(*) UNDEF
005BDE4C  F8DF 7374		ldr r7, [pc, #+884] ; 0x4
005BDE50  59F0     		ldr r0, [r6, +r7]

#326		{L:129}
(-) @BYTE
005BDE52  F8DF 7390		ldr r7, [pc, #+912] ; 0x54
005BDE56  59F3     		ldr r3, [r6, +r7]
005BDE58  2201     		mov r2, #1 ; 1
005BDE5A  F8DF 73B4		ldr r7, [pc, #+948] ; 0x100
005BDE5E  5FF1     		ldrsh r1, [r6, +r7]
005BDE60  4600     		mov r0, r0
005BDE62  F8DF 43E0		ldr r4, [pc, #+992] ; 0x490C01
005BDE66  F044 0401		orr r4, r4, #1
005BDE6A  47A0     		blx r4

#327		{L:129}
(*) INT
005BDE6C  F8DF 735C		ldr r7, [pc, #+860] ; 0x10
005BDE70  51F0     		str r0, [r6, +r7]

#328
#329
#330		{L:130}
(*) UNDEF
005BDE72  F8DF 7350		ldr r7, [pc, #+848] ; 0x4
005BDE76  59F0     		ldr r0, [r6, +r7]

#331		{L:130}
(*) @BYTE
005BDE78  F8DF 7354		ldr r7, [pc, #+852] ; 0x14
005BDE7C  59F7     		ldr r7, [r6, +r7]
005BDE7E  19C0     		add r0, r0, r7

#332		{L:130}
(*) @BYTE
005BDE80  F8DF 7380		ldr r7, [pc, #+896] ; 0xF4
005BDE84  51F0     		str r0, [r6, +r7]

#333		{L:130}
(*) UNDEF
005BDE86  F8DF 733C		ldr r7, [pc, #+828] ; 0x4
005BDE8A  59F0     		ldr r0, [r6, +r7]

#334		{L:130}
(-) @BYTE
005BDE8C  F8DF 7340		ldr r7, [pc, #+832] ; 0x14
005BDE90  59F2     		ldr r2, [r6, +r7]
005BDE92  F8DF 7370		ldr r7, [pc, #+880] ; 0xF4
005BDE96  59F1     		ldr r1, [r6, +r7]
005BDE98  4600     		mov r0, r0
005BDE9A  F8DF 439C		ldr r4, [pc, #+924] ; 0x4907E5
005BDE9E  F044 0401		orr r4, r4, #1
005BDEA2  47A0     		blx r4

#335		{L:130}
(*) @USINT
005BDEA4  F8DF 7324		ldr r7, [pc, #+804] ; 0x10
005BDEA8  51F0     		str r0, [r6, +r7]

#336
#337
#338
#339
#340
#341
#342		{L:136}
(*) UNDEF
005BDEAA  F8DF 7318		ldr r7, [pc, #+792] ; 0x4
005BDEAE  59F0     		ldr r0, [r6, +r7]

#343		{L:136}
(-) @BYTE
005BDEB0  4600     		mov r0, r0
005BDEB2  F8DF 4388		ldr r4, [pc, #+904] ; 0x4909F1
005BDEB6  F044 0401		orr r4, r4, #1
005BDEBA  47A0     		blx r4

#344		{L:136}
(*) UDINT
005BDEBC  F8DF 734C		ldr r7, [pc, #+844] ; 0xFC
005BDEC0  51F0     		str r0, [r6, +r7]

#345		{L:136}
(*) UNDEF
005BDEC2  F44F 7000		mov r0, #512 ; 512

#346		{L:136}
(*) UINT
005BDEC6  F8DF 7344		ldr r7, [pc, #+836] ; 0xFC
005BDECA  59F7     		ldr r7, [r6, +r7]
005BDECC  1BC0     		sub r0, r0, r7

#347		{L:136}
(*) UDINT
005BDECE  2880     		cmp r0, #128
005BDED0  BF28 2000		hsmov r0, #0
005BDED4  BF38 2001		lomov r0, #1

#348		{L:136}
(-) BOOL
005BDED8  2800     		cmp r0, #0
005BDEDA  D002     		beq #4 ; 0x005BDEE2


#349
#350
#351
#352
#353
#354
(-) BOOL
005BDEDE  F002 B86F		b #8414 ; 0x005BFFC0


#355
#356
#357
#358
#359
#360
#361
#362
#363		{L:144}
(*) UNDEF
005BDEE2  F8DF 72DC		ldr r7, [pc, #+732] ; 0x1
005BDEE6  5DF0     		ldrb r0, [r6, +r7]

#364		{L:144}
(*) USINT
005BDEE8  2864     		cmp r0, #100
005BDEEA  BFB8 2000		ltmov r0, #0
005BDEEE  BFA8 2001		gemov r0, #1

#365		{L:144}
(-) BOOL
005BDEF2  2800     		cmp r0, #0
005BDEF4  F000 809C		beq #312 ; 0x005BE030


#366
#367
#368
#369
#370		{L:148}
(*) UNDEF
005BDEF8  F8DF 72E8		ldr r7, [pc, #+744] ; 0x54
005BDEFC  59F0     		ldr r0, [r6, +r7]

#371		{L:148}
(-) UDINT
005BDEFE  4600     		mov r0, r0
005BDF00  F8DF 4344		ldr r4, [pc, #+836] ; 0x490C65
005BDF04  F044 0401		orr r4, r4, #1
005BDF08  47A0     		blx r4

#372		{L:148}
(*) INT
005BDF0A  F8DF 72C4		ldr r7, [pc, #+708] ; 0x14
005BDF0E  51F0     		str r0, [r6, +r7]

#373
#374
#375		{L:149}
(*) UNDEF
005BDF10  F8DF 72B0		ldr r7, [pc, #+688] ; 0x4
005BDF14  59F0     		ldr r0, [r6, +r7]

#376		{L:149}
(-) @BYTE
005BDF16  4600     		mov r0, r0
005BDF18  F8DF 4320		ldr r4, [pc, #+800] ; 0x4909F1
005BDF1C  F044 0401		orr r4, r4, #1
005BDF20  47A0     		blx r4

#377		{L:149}
(*) UDINT
005BDF22  F8DF 72E8		ldr r7, [pc, #+744] ; 0xFC
005BDF26  51F0     		str r0, [r6, +r7]

#378		{L:149}
(*) UNDEF
005BDF28  F44F 7000		mov r0, #512 ; 512

#379		{L:149}
(*) UINT
005BDF2C  F8DF 72DC		ldr r7, [pc, #+732] ; 0xFC
005BDF30  59F7     		ldr r7, [r6, +r7]
005BDF32  1BC0     		sub r0, r0, r7

#380		{L:149}
(-) UDINT
005BDF34  1E40     		sub r0, r0, #1

#381		{L:149}
(*) UDINT
005BDF36  F8DF 729C		ldr r7, [pc, #+668] ; 0x18
005BDF3A  51F0     		str r0, [r6, +r7]

#382
#383
#384
#385		{L:150}
(*) UNDEF
005BDF3C  F8DF 7294		ldr r7, [pc, #+660] ; 0x18
005BDF40  59F0     		ldr r0, [r6, +r7]

#386		{L:150}
(*) UDINT
005BDF42  2800     		cmp r0, #0
005BDF44  BF08 2000		eqmov r0, #0
005BDF48  BF18 2001		nemov r0, #1

#387		{L:150}
(*) BOOL
005BDF4C  B082     		sub sp, sp, #8
005BDF4E  F8CD 0000		str r0, [sp]
005BDF52  F8DF 727C		ldr r7, [pc, #+636] ; 0x14
005BDF56  59F0     		ldr r0, [r6, +r7]

#388		{L:150}
(*) UDINT
005BDF58  2800     		cmp r0, #0
005BDF5A  BF08 2000		eqmov r0, #0
005BDF5E  BF18 2001		nemov r0, #1

#389		{L:150}
(*) BOOL
005BDF62  4607     		mov r7, r0
005BDF64  F8DD 0000		ldr r0, [sp]
005BDF68  B002     		add sp, sp, #8
005BDF6A  4038     		and r0, r0, r7

#390		{L:150}
(-) BOOL
005BDF6C  2800     		cmp r0, #0
005BDF6E  D05F     		beq #190 ; 0x005BE030


#391
#392
#393
#394
#395
#396		{L:152}
(*) UNDEF
005BDF72  F8DF 7260		ldr r7, [pc, #+608] ; 0x18
005BDF76  59F0     		ldr r0, [r6, +r7]

#397		{L:152}
(*) UDINT
005BDF78  F8DF 7254		ldr r7, [pc, #+596] ; 0x14
005BDF7C  59F7     		ldr r7, [r6, +r7]
005BDF7E  42B8     		cmp r0, r7
005BDF80  BF28 2000		hsmov r0, #0
005BDF84  BF38 2001		lomov r0, #1

#398		{L:152}
(-) BOOL
005BDF88  2800     		cmp r0, #0
005BDF8A  D006     		beq #12 ; 0x005BDF9A


#399
#400
#401
#402
#403		{L:152}
(*) BOOL
005BDF8E  F8DF 7244		ldr r7, [pc, #+580] ; 0x18
005BDF92  59F0     		ldr r0, [r6, +r7]
005BDF94  F8DF 7238		ldr r7, [pc, #+568] ; 0x14
005BDF98  51F0     		str r0, [r6, +r7]

#404
#405
#406
#407
#408
#409		{L:153}
(*) UNDEF
005BDF9A  F8DF 7228		ldr r7, [pc, #+552] ; 0x4
005BDF9E  59F0     		ldr r0, [r6, +r7]

#410		{L:153}
(-) @BYTE
005BDFA0  4600     		mov r0, r0
005BDFA2  F8DF 4298		ldr r4, [pc, #+664] ; 0x4909F1
005BDFA6  F044 0401		orr r4, r4, #1
005BDFAA  47A0     		blx r4

#411		{L:153}
(*) UDINT
005BDFAC  F8DF 7224		ldr r7, [pc, #+548] ; 0x18
005BDFB0  51F0     		str r0, [r6, +r7]

#412
#413
#414		{L:154}
(*) UNDEF
005BDFB2  F8DF 7210		ldr r7, [pc, #+528] ; 0x4
005BDFB6  59F0     		ldr r0, [r6, +r7]

#415		{L:154}
(*) @BYTE
005BDFB8  F8DF 7218		ldr r7, [pc, #+536] ; 0x18
005BDFBC  59F7     		ldr r7, [r6, +r7]
005BDFBE  19C0     		add r0, r0, r7

#416		{L:154}
(*) @BYTE
005BDFC0  F8DF 7240		ldr r7, [pc, #+576] ; 0xF4
005BDFC4  51F0     		str r0, [r6, +r7]

#417		{L:154}
(*) UNDEF
005BDFC6  F8DF 7208		ldr r7, [pc, #+520] ; 0x14
005BDFCA  59F0     		ldr r0, [r6, +r7]

#418		{L:154}
(-) UDINT
#419		{L:154}
(*) INT
005BDFCC  F8DF 7240		ldr r7, [pc, #+576] ; 0x100
005BDFD0  53F0     		strh r0, [r6, +r7]

#420		{L:154}
(*) UNDEF
005BDFD2  F8DF 7230		ldr r7, [pc, #+560] ; 0xF4
005BDFD6  59F0     		ldr r0, [r6, +r7]

#421		{L:154}
(-) @UNDEF
005BDFD8  F8DF 7208		ldr r7, [pc, #+520] ; 0x54
005BDFDC  59F3     		ldr r3, [r6, +r7]
005BDFDE  2201     		mov r2, #1 ; 1
005BDFE0  F8DF 722C		ldr r7, [pc, #+556] ; 0x100
005BDFE4  5FF1     		ldrsh r1, [r6, +r7]
005BDFE6  4600     		mov r0, r0
005BDFE8  F8DF 4254		ldr r4, [pc, #+596] ; 0x490B9D
005BDFEC  F044 0401		orr r4, r4, #1
005BDFF0  47A0     		blx r4

#422		{L:154}
(*) INT
005BDFF2  F8DF 71D8		ldr r7, [pc, #+472] ; 0x10
005BDFF6  51F0     		str r0, [r6, +r7]

#423
#424
#425		{L:155}
(*) UNDEF
005BDFF8  F8DF 71C8		ldr r7, [pc, #+456] ; 0x4
005BDFFC  59F0     		ldr r0, [r6, +r7]

#426		{L:155}
(*) @BYTE
005BDFFE  F8DF 71D4		ldr r7, [pc, #+468] ; 0x18
005BE002  59F7     		ldr r7, [r6, +r7]
005BE004  19C0     		add r0, r0, r7

#427		{L:155}
(*) @BYTE
005BE006  F8DF 71C8		ldr r7, [pc, #+456] ; 0x14
005BE00A  59F7     		ldr r7, [r6, +r7]
005BE00C  19C0     		add r0, r0, r7

#428		{L:155}
(*) @BYTE
005BE00E  F8DF 71F4		ldr r7, [pc, #+500] ; 0xF4
005BE012  51F0     		str r0, [r6, +r7]

#429		{L:155}
(*) UNDEF
005BE014  F8DF 71EC		ldr r7, [pc, #+492] ; 0xF4
005BE018  59F0     		ldr r0, [r6, +r7]

#430		{L:155}
(-) @UNDEF
005BE01A  2201     		mov r2, #1 ; 1
005BE01C  2100     		mov r1, #0 ; 0
005BE01E  4600     		mov r0, r0
005BE020  F8DF 4210		ldr r4, [pc, #+528] ; 0x490795
005BE024  F044 0401		orr r4, r4, #1
005BE028  47A0     		blx r4

#431		{L:155}
(*) @USINT
005BE02A  F8DF 71A0		ldr r7, [pc, #+416] ; 0x10
005BE02E  51F0     		str r0, [r6, +r7]

#432
#433
#434
#435
#436
#437
#438
#439
#440
#441
#442
#443		{L:171}
(*) UNDEF
005BE030  F8DF 718C		ldr r7, [pc, #+396] ; 0x1
005BE034  5DF0     		ldrb r0, [r6, +r7]

#444		{L:171}
(*) USINT
005BE036  2800     		cmp r0, #0
005BE038  BF18 2000		nemov r0, #0
005BE03C  BF08 2001		eqmov r0, #1

#445
(-) BOOL
005BE040  2800     		cmp r0, #0
005BE042  F040 822A		bne #1108 ; 0x005BE49A


#446
#447
#448		{L:187}
(*) UNDEF
005BE046  F8DF 7178		ldr r7, [pc, #+376] ; 0x1
005BE04A  5DF0     		ldrb r0, [r6, +r7]

#449		{L:187}
(*) USINT
005BE04C  2801     		cmp r0, #1
005BE04E  BF18 2000		nemov r0, #0
005BE052  BF08 2001		eqmov r0, #1

#450
(-) BOOL
005BE056  2800     		cmp r0, #0
005BE058  F040 8253		bne #1190 ; 0x005BE502


#451
#452
#453		{L:197}
(*) UNDEF
005BE05C  F8DF 7160		ldr r7, [pc, #+352] ; 0x1
005BE060  5DF0     		ldrb r0, [r6, +r7]

#454		{L:197}
(*) USINT
005BE062  2802     		cmp r0, #2
005BE064  BF18 2000		nemov r0, #0
005BE068  BF08 2001		eqmov r0, #1

#455
(-) BOOL
005BE06C  2800     		cmp r0, #0
005BE06E  F040 8284		bne #1288 ; 0x005BE57A


#456
#457
#458		{L:222}
(*) UNDEF
005BE072  F8DF 714C		ldr r7, [pc, #+332] ; 0x1
005BE076  5DF0     		ldrb r0, [r6, +r7]

#459		{L:222}
(*) USINT
005BE078  280A     		cmp r0, #10
005BE07A  BF18 2000		nemov r0, #0
005BE07E  BF08 2001		eqmov r0, #1

#460
(-) BOOL
005BE082  2800     		cmp r0, #0
005BE084  F040 82F8		bne #1520 ; 0x005BE678


#461
#462
#463		{L:241}
(*) UNDEF
005BE088  F8DF 7134		ldr r7, [pc, #+308] ; 0x1
005BE08C  5DF0     		ldrb r0, [r6, +r7]

#464		{L:241}
(*) USINT
005BE08E  281E     		cmp r0, #30
005BE090  BF18 2000		nemov r0, #0
005BE094  BF08 2001		eqmov r0, #1

#465		{L:241}
(*) BOOL
005BE098  B082     		sub sp, sp, #8
005BE09A  F8CD 0000		str r0, [sp]
005BE09E  F8DF 7120		ldr r7, [pc, #+288] ; 0x1
005BE0A2  5DF0     		ldrb r0, [r6, +r7]

#466		{L:241}
(*) USINT
005BE0A4  2814     		cmp r0, #20
005BE0A6  BF18 2000		nemov r0, #0
005BE0AA  BF08 2001		eqmov r0, #1

#467		{L:241}
(*) BOOL
005BE0AE  4607     		mov r7, r0
005BE0B0  F8DD 0000		ldr r0, [sp]
005BE0B4  B002     		add sp, sp, #8
005BE0B6  4338     		orr r0, r0, r7

#468
(-) BOOL
005BE0B8  2800     		cmp r0, #0
005BE0BA  F040 836B		bne #1750 ; 0x005BE794


#469
#470
#471		{L:242}
(*) UNDEF
005BE0BE  F8DF 7100		ldr r7, [pc, #+256] ; 0x1
005BE0C2  5DF0     		ldrb r0, [r6, +r7]

#472		{L:242}
(*) USINT
005BE0C4  281F     		cmp r0, #31
005BE0C6  BF18 2000		nemov r0, #0
005BE0CA  BF08 2001		eqmov r0, #1

#473		{L:242}
(*) BOOL
005BE0CE  B082     		sub sp, sp, #8
005BE0D0  F8CD 0000		str r0, [sp]
005BE0D4  F8DF 70E8		ldr r7, [pc, #+232] ; 0x1
005BE0D8  5DF0     		ldrb r0, [r6, +r7]

#474		{L:242}
(*) USINT
005BE0DA  2815     		cmp r0, #21
005BE0DC  BF18 2000		nemov r0, #0
005BE0E0  BF08 2001		eqmov r0, #1

#475		{L:242}
(*) BOOL
005BE0E4  4607     		mov r7, r0
005BE0E6  F8DD 0000		ldr r0, [sp]
005BE0EA  B002     		add sp, sp, #8
005BE0EC  4338     		orr r0, r0, r7

#476
(-) BOOL
005BE0EE  2800     		cmp r0, #0
005BE0F0  F040 8372		bne #1764 ; 0x005BE7D8


#477
#478
#479		{L:244}
(*) UNDEF
005BE0F4  F8DF 70C8		ldr r7, [pc, #+200] ; 0x1
005BE0F8  5DF0     		ldrb r0, [r6, +r7]

#480		{L:244}
(*) USINT
005BE0FA  2820     		cmp r0, #32
005BE0FC  BF18 2000		nemov r0, #0
005BE100  BF08 2001		eqmov r0, #1

#481		{L:244}
(*) BOOL
005BE104  B082     		sub sp, sp, #8
005BE106  F8CD 0000		str r0, [sp]
005BE10A  F8DF 70B4		ldr r7, [pc, #+180] ; 0x1
005BE10E  5DF0     		ldrb r0, [r6, +r7]

#482		{L:244}
(*) USINT
005BE110  2816     		cmp r0, #22
005BE112  BF18 2000		nemov r0, #0
005BE116  BF08 2001		eqmov r0, #1

#483		{L:244}
(*) BOOL
005BE11A  4607     		mov r7, r0
005BE11C  F8DD 0000		ldr r0, [sp]
005BE120  B002     		add sp, sp, #8
005BE122  4338     		orr r0, r0, r7

#484
(-) BOOL
005BE124  2800     		cmp r0, #0
005BE126  F040 837E		bne #1788 ; 0x005BE826


#485
#486
#487		{L:245}
(*) UNDEF
005BE12A  F8DF 7094		ldr r7, [pc, #+148] ; 0x1
005BE12E  5DF0     		ldrb r0, [r6, +r7]

#488		{L:245}
(*) USINT
005BE130  2821     		cmp r0, #33
005BE132  BF18 2000		nemov r0, #0
005BE136  BF08 2001		eqmov r0, #1

#489		{L:245}
(*) BOOL
005BE13A  B082     		sub sp, sp, #8
005BE13C  F8CD 0000		str r0, [sp]
005BE140  F8DF 707C		ldr r7, [pc, #+124] ; 0x1
005BE144  5DF0     		ldrb r0, [r6, +r7]

#490		{L:245}
(*) USINT
005BE146  2817     		cmp r0, #23
005BE148  BF18 2000		nemov r0, #0
005BE14C  BF08 2001		eqmov r0, #1

#491		{L:245}
(*) BOOL
005BE150  4607     		mov r7, r0
005BE152  F8DD 0000		ldr r0, [sp]
005BE156  B002     		add sp, sp, #8
005BE158  4338     		orr r0, r0, r7

#492
(-) BOOL
005BE15A  2800     		cmp r0, #0
005BE15C  F040 838A		bne #1812 ; 0x005BE874


#493
#494
#495		{L:250}
(*) UNDEF
005BE160  F8DF 705C		ldr r7, [pc, #+92] ; 0x1
005BE164  5DF0     		ldrb r0, [r6, +r7]

#496		{L:250}
(*) USINT
005BE166  2822     		cmp r0, #34
005BE168  BF18 2000		nemov r0, #0
005BE16C  BF08 2001		eqmov r0, #1

#497		{L:250}
(*) BOOL
005BE170  B082     		sub sp, sp, #8
005BE172  F8CD 0000		str r0, [sp]
005BE176  F8DF 7048		ldr r7, [pc, #+72] ; 0x1
005BE17A  5DF0     		ldrb r0, [r6, +r7]

#498		{L:250}
(*) USINT
005BE17C  2818     		cmp r0, #24
005BE17E  BF18 2000		nemov r0, #0
005BE182  BF08 2001		eqmov r0, #1

#499		{L:250}
(*) BOOL
005BE186  4607     		mov r7, r0
005BE188  F8DD 0000		ldr r0, [sp]
005BE18C  B002     		add sp, sp, #8
005BE18E  4338     		orr r0, r0, r7

#500
(-) BOOL
005BE190  2800     		cmp r0, #0
005BE192  F040 8396		bne #1836 ; 0x005BE8C2


#501
#502
#503		{L:255}
(*) UNDEF
005BE196  F8DF 7028		ldr r7, [pc, #+40] ; 0x1
005BE19A  5DF0     		ldrb r0, [r6, +r7]

#504		{L:255}
(*) USINT
005BE19C  2823     		cmp r0, #35
005BE19E  BF18 2000		nemov r0, #0
005BE1A2  BF08 2001		eqmov r0, #1

#505		{L:255}
(*) BOOL
005BE1A6  B082     		sub sp, sp, #8
005BE1A8  F8CD 0000		str r0, [sp]
005BE1AC  F8DF 7010		ldr r7, [pc, #+16] ; 0x1
005BE1B0  5DF0     		ldrb r0, [r6, +r7]

#506		{L:255}
(*) USINT
005BE1B2  2819     		cmp r0, #25
005BE1B4  BF18 2000		nemov r0, #0
005BE1B8  BF08 2001		eqmov r0, #1

005BE1BC  E056     		b #172

005BE1C0  00000001		; 0x00000001
005BE1C4  00000004		; 0x00000004
005BE1C8  00000008		; 0x00000008
005BE1CC  00000010		; 0x00000010
005BE1D0  00000014		; 0x00000014
005BE1D4  00000018		; 0x00000018
005BE1D8  0000002C		; 0x0000002C
005BE1DC  00000030		; 0x00000030
005BE1E0  00000038		; 0x00000038
005BE1E4  00000054		; 0x00000054
005BE1E8  00000058		; 0x00000058
005BE1EC  00000060		; 0x00000060
005BE1F0  00000061		; 0x00000061
005BE1F4  000000A4		; 0x000000A4
005BE1F8  000000A8		; 0x000000A8
005BE1FC  000000A9		; 0x000000A9
005BE200  000000AA		; 0x000000AA
005BE204  000000F4		; 0x000000F4
005BE208  000000F8		; 0x000000F8
005BE20C  000000FC		; 0x000000FC
005BE210  00000100		; 0x00000100
005BE214  0048EB99		; 0x0048EB99
005BE218  0048F96D		; 0x0048F96D
005BE21C  0048FB19		; 0x0048FB19
005BE220  0048FE35		; 0x0048FE35
005BE224  00490519		; 0x00490519
005BE228  00490561		; 0x00490561
005BE22C  004905B1		; 0x004905B1
005BE230  004905F5		; 0x004905F5
005BE234  00490795		; 0x00490795
005BE238  004907E5		; 0x004907E5
005BE23C  004909F1		; 0x004909F1
005BE240  00490B9D		; 0x00490B9D
005BE244  00490C01		; 0x00490C01
005BE248  00490C65		; 0x00490C65
005BE24C  00490CBD		; 0x00490CBD
005BE250  005BA094		; 0x005BA094
005BE254  005BA098		; 0x005BA098
005BE258  005BA0A4		; 0x005BA0A4
005BE25C  005BA0B4		; 0x005BA0B4
005BE260  005BA0C0		; 0x005BA0C0
005BE264  005BA0C4		; 0x005BA0C4
005BE268  20412E8C		; 0x20412E8C

#507		{L:255}
(*) BOOL
005BE26C  4607     		mov r7, r0
005BE26E  F8DD 0000		ldr r0, [sp]
005BE272  B002     		add sp, sp, #8
005BE274  4338     		orr r0, r0, r7

#508
(-) BOOL
005BE276  2800     		cmp r0, #0
005BE278  F040 834A		bne #1684 ; 0x005BE910


#509
#510
#511		{L:260}
(*) UNDEF
005BE27C  F85F 70C0		ldr r7, [pc, #-192] ; 0x1
005BE280  5DF0     		ldrb r0, [r6, +r7]

#512		{L:260}
(*) USINT
005BE282  2824     		cmp r0, #36
005BE284  BF18 2000		nemov r0, #0
005BE288  BF08 2001		eqmov r0, #1

#513		{L:260}
(*) BOOL
005BE28C  B082     		sub sp, sp, #8
005BE28E  F8CD 0000		str r0, [sp]
005BE292  F85F 70D4		ldr r7, [pc, #-212] ; 0x1
005BE296  5DF0     		ldrb r0, [r6, +r7]

#514		{L:260}
(*) USINT
005BE298  281A     		cmp r0, #26
005BE29A  BF18 2000		nemov r0, #0
005BE29E  BF08 2001		eqmov r0, #1

#515		{L:260}
(*) BOOL
005BE2A2  4607     		mov r7, r0
005BE2A4  F8DD 0000		ldr r0, [sp]
005BE2A8  B002     		add sp, sp, #8
005BE2AA  4338     		orr r0, r0, r7

#516
(-) BOOL
005BE2AC  2800     		cmp r0, #0
005BE2AE  F040 8356		bne #1708 ; 0x005BE95E


#517
#518
#519		{L:267}
(*) UNDEF
005BE2B2  F85F 70F4		ldr r7, [pc, #-244] ; 0x1
005BE2B6  5DF0     		ldrb r0, [r6, +r7]

#520		{L:267}
(*) USINT
005BE2B8  281B     		cmp r0, #27
005BE2BA  BF18 2000		nemov r0, #0
005BE2BE  BF08 2001		eqmov r0, #1

#521
(-) BOOL
005BE2C2  2800     		cmp r0, #0
005BE2C4  F040 8372		bne #1764 ; 0x005BE9AC


#522
#523
#524		{L:278}
(*) UNDEF
005BE2C8  F85F 710C		ldr r7, [pc, #-268] ; 0x1
005BE2CC  5DF0     		ldrb r0, [r6, +r7]

#525		{L:278}
(*) USINT
005BE2CE  2825     		cmp r0, #37
005BE2D0  BF18 2000		nemov r0, #0
005BE2D4  BF08 2001		eqmov r0, #1

#526
(-) BOOL
005BE2D8  2800     		cmp r0, #0
005BE2DA  F040 838B		bne #1814 ; 0x005BE9F4


#527
#528
#529		{L:293}
(*) UNDEF
005BE2DE  F85F 7120		ldr r7, [pc, #-288] ; 0x1
005BE2E2  5DF0     		ldrb r0, [r6, +r7]

#530		{L:293}
(*) USINT
005BE2E4  2826     		cmp r0, #38
005BE2E6  BF18 2000		nemov r0, #0
005BE2EA  BF08 2001		eqmov r0, #1

#531
(-) BOOL
005BE2EE  2800     		cmp r0, #0
005BE2F0  F040 846A		bne #2260 ; 0x005BEBC8


#532
#533
#534		{L:309}
(*) UNDEF
005BE2F4  F85F 7138		ldr r7, [pc, #-312] ; 0x1
005BE2F8  5DF0     		ldrb r0, [r6, +r7]

#535		{L:309}
(*) USINT
005BE2FA  2863     		cmp r0, #99
005BE2FC  BF18 2000		nemov r0, #0
005BE300  BF08 2001		eqmov r0, #1

#536
(-) BOOL
005BE304  2800     		cmp r0, #0
005BE306  F040 84EC		bne #2520 ; 0x005BECE2


#537
#538
#539		{L:328}
(*) UNDEF
005BE30A  F85F 714C		ldr r7, [pc, #-332] ; 0x1
005BE30E  5DF0     		ldrb r0, [r6, +r7]

#540		{L:328}
(*) USINT
005BE310  2864     		cmp r0, #100
005BE312  BF18 2000		nemov r0, #0
005BE316  BF08 2001		eqmov r0, #1

#541
(-) BOOL
005BE31A  2800     		cmp r0, #0
005BE31C  F040 8530		bne #2656 ; 0x005BED80


#542
#543
#544		{L:356}
(*) UNDEF
005BE320  F85F 7164		ldr r7, [pc, #-356] ; 0x1
005BE324  5DF0     		ldrb r0, [r6, +r7]

#545		{L:356}
(*) USINT
005BE326  2865     		cmp r0, #101
005BE328  BF18 2000		nemov r0, #0
005BE32C  BF08 2001		eqmov r0, #1

#546
(-) BOOL
005BE330  2800     		cmp r0, #0
005BE332  F040 8603		bne #3078 ; 0x005BEF3C


#547
#548
#549		{L:407}
(*) UNDEF
005BE336  F85F 7178		ldr r7, [pc, #-376] ; 0x1
005BE33A  5DF0     		ldrb r0, [r6, +r7]

#550		{L:407}
(*) USINT
005BE33C  286E     		cmp r0, #110
005BE33E  BF18 2000		nemov r0, #0
005BE342  BF08 2001		eqmov r0, #1

#551
(-) BOOL
005BE346  2800     		cmp r0, #0
005BE348  F040 8705		bne #3594 ; 0x005BF156


#552
#553
#554		{L:420}
(*) UNDEF
005BE34C  F85F 7190		ldr r7, [pc, #-400] ; 0x1
005BE350  5DF0     		ldrb r0, [r6, +r7]

#555		{L:420}
(*) USINT
005BE352  286F     		cmp r0, #111
005BE354  BF18 2000		nemov r0, #0
005BE358  BF08 2001		eqmov r0, #1

#556
(-) BOOL
005BE35C  2800     		cmp r0, #0
005BE35E  F040 872F		bne #3678 ; 0x005BF1C0


#557
#558
#559		{L:437}
(*) UNDEF
005BE362  F85F 71A4		ldr r7, [pc, #-420] ; 0x1
005BE366  5DF0     		ldrb r0, [r6, +r7]

#560		{L:437}
(*) USINT
005BE368  2870     		cmp r0, #112
005BE36A  BF18 2000		nemov r0, #0
005BE36E  BF08 2001		eqmov r0, #1

#561
(-) BOOL
005BE372  2800     		cmp r0, #0
005BE374  F040 87AD		bne #3930 ; 0x005BF2D2


#562
#563
#564		{L:453}
(*) UNDEF
005BE378  F85F 71BC		ldr r7, [pc, #-444] ; 0x1
005BE37C  5DF0     		ldrb r0, [r6, +r7]

#565		{L:453}
(*) USINT
005BE37E  2878     		cmp r0, #120
005BE380  BF18 2000		nemov r0, #0
005BE384  BF08 2001		eqmov r0, #1

#566
(-) BOOL
005BE388  2800     		cmp r0, #0
005BE38A  F041 8022		bne #4164 ; 0x005BF3D2


#567
#568
#569		{L:467}
(*) UNDEF
005BE38E  F85F 71D0		ldr r7, [pc, #-464] ; 0x1
005BE392  5DF0     		ldrb r0, [r6, +r7]

#570		{L:467}
(*) USINT
005BE394  2879     		cmp r0, #121
005BE396  BF18 2000		nemov r0, #0
005BE39A  BF08 2001		eqmov r0, #1

#571
(-) BOOL
005BE39E  2800     		cmp r0, #0
005BE3A0  F041 8066		bne #4300 ; 0x005BF470


#572
#573
#574		{L:484}
(*) UNDEF
005BE3A4  F85F 71E8		ldr r7, [pc, #-488] ; 0x1
005BE3A8  5DF0     		ldrb r0, [r6, +r7]

#575		{L:484}
(*) USINT
005BE3AA  287A     		cmp r0, #122
005BE3AC  BF18 2000		nemov r0, #0
005BE3B0  BF08 2001		eqmov r0, #1

#576
(-) BOOL
005BE3B4  2800     		cmp r0, #0
005BE3B6  F041 80E4		bne #4552 ; 0x005BF582


#577
#578
#579		{L:504}
(*) UNDEF
005BE3BA  F85F 71FC		ldr r7, [pc, #-508] ; 0x1
005BE3BE  5DF0     		ldrb r0, [r6, +r7]

#580		{L:504}
(*) USINT
005BE3C0  2896     		cmp r0, #150
005BE3C2  BF18 2000		nemov r0, #0
005BE3C6  BF08 2001		eqmov r0, #1

#581
(-) BOOL
005BE3CA  2800     		cmp r0, #0
005BE3CC  F041 8131		bne #4706 ; 0x005BF632


#582
#583
#584		{L:520}
(*) UNDEF
005BE3D0  F85F 7214		ldr r7, [pc, #-532] ; 0x1
005BE3D4  5DF0     		ldrb r0, [r6, +r7]

#585		{L:520}
(*) USINT
005BE3D6  2897     		cmp r0, #151
005BE3D8  BF18 2000		nemov r0, #0
005BE3DC  BF08 2001		eqmov r0, #1

#586
(-) BOOL
005BE3E0  2800     		cmp r0, #0
005BE3E2  F041 8163		bne #4806 ; 0x005BF6AC


#587
#588
#589		{L:554}
(*) UNDEF
005BE3E6  F85F 7228		ldr r7, [pc, #-552] ; 0x1
005BE3EA  5DF0     		ldrb r0, [r6, +r7]

#590		{L:554}
(*) USINT
005BE3EC  2898     		cmp r0, #152
005BE3EE  BF18 2000		nemov r0, #0
005BE3F2  BF08 2001		eqmov r0, #1

#591
(-) BOOL
005BE3F6  2800     		cmp r0, #0
005BE3F8  F041 8238		bne #5232 ; 0x005BF86C


#592
#593
#594		{L:571}
(*) UNDEF
005BE3FC  F85F 7240		ldr r7, [pc, #-576] ; 0x1
005BE400  5DF0     		ldrb r0, [r6, +r7]

#595		{L:571}
(*) USINT
005BE402  2899     		cmp r0, #153
005BE404  BF18 2000		nemov r0, #0
005BE408  BF08 2001		eqmov r0, #1

#596
(-) BOOL
005BE40C  2800     		cmp r0, #0
005BE40E  F041 82C8		bne #5520 ; 0x005BF9A2


#597
#598
#599		{L:580}
(*) UNDEF
005BE412  F85F 7254		ldr r7, [pc, #-596] ; 0x1
005BE416  5DF0     		ldrb r0, [r6, +r7]

#600		{L:580}
(*) USINT
005BE418  289B     		cmp r0, #155
005BE41A  BF18 2000		nemov r0, #0
005BE41E  BF08 2001		eqmov r0, #1

#601
(-) BOOL
005BE422  2800     		cmp r0, #0
005BE424  F041 82F2		bne #5604 ; 0x005BFA0C


#602
#603
#604		{L:596}
(*) UNDEF
005BE428  F85F 726C		ldr r7, [pc, #-620] ; 0x1
005BE42C  5DF0     		ldrb r0, [r6, +r7]

#605		{L:596}
(*) USINT
005BE42E  289C     		cmp r0, #156
005BE430  BF18 2000		nemov r0, #0
005BE434  BF08 2001		eqmov r0, #1

#606
(-) BOOL
005BE438  2800     		cmp r0, #0
005BE43A  F041 8361		bne #5826 ; 0x005BFB00


#607
#608
#609		{L:603}
(*) UNDEF
005BE43E  F85F 7280		ldr r7, [pc, #-640] ; 0x1
005BE442  5DF0     		ldrb r0, [r6, +r7]

#610		{L:603}
(*) USINT
005BE444  289D     		cmp r0, #157
005BE446  BF18 2000		nemov r0, #0
005BE44A  BF08 2001		eqmov r0, #1

#611
(-) BOOL
005BE44E  2800     		cmp r0, #0
005BE450  F041 8384		bne #5896 ; 0x005BFB5C


#612
#613
#614		{L:627}
(*) UNDEF
005BE454  F85F 7298		ldr r7, [pc, #-664] ; 0x1
005BE458  5DF0     		ldrb r0, [r6, +r7]

#615		{L:627}
(*) USINT
005BE45A  28C8     		cmp r0, #200
005BE45C  BF18 2000		nemov r0, #0
005BE460  BF08 2001		eqmov r0, #1

#616
(-) BOOL
005BE464  2800     		cmp r0, #0
005BE466  F041 83E6		bne #6092 ; 0x005BFC36


#617
#618
#619		{L:668}
(*) UNDEF
005BE46A  F85F 72AC		ldr r7, [pc, #-684] ; 0x1
005BE46E  5DF0     		ldrb r0, [r6, +r7]

#620		{L:668}
(*) USINT
005BE470  28FA     		cmp r0, #250
005BE472  BF18 2000		nemov r0, #0
005BE476  BF08 2001		eqmov r0, #1

#621
(-) BOOL
005BE47A  2800     		cmp r0, #0
005BE47C  F041 84E4		bne #6600 ; 0x005BFE48


#622
#623
#624		{L:685}
(*) UNDEF
005BE480  F85F 72C4		ldr r7, [pc, #-708] ; 0x1
005BE484  5DF0     		ldrb r0, [r6, +r7]

#625		{L:685}
(*) USINT
005BE486  28FB     		cmp r0, #251
005BE488  BF18 2000		nemov r0, #0
005BE48C  BF08 2001		eqmov r0, #1

#626
(-) BOOL
005BE490  2800     		cmp r0, #0
005BE492  F041 854B		bne #6806 ; 0x005BFF2C


#627
(-) BOOL
005BE496  F001 BD93		b #6950 ; 0x005BFFC0


#628
#629
#630
#631
#632
#633		{L:172}
(*) BOOL
005BE49A  F8DF 7620		ldr r7, [pc, #+1568] ; 0x64
005BE49E  59F0     		ldr r0, [r6, +r7]
005BE4A0  F8DF 75F0		ldr r7, [pc, #+1520] ; 0x3C
005BE4A4  51F0     		str r0, [r6, +r7]

#634
#635
#636		{L:173}
(*) @BYTE
005BE4A6  F8DF 761C		ldr r7, [pc, #+1564] ; 0x6C
005BE4AA  5BF0     		ldrh r0, [r6, +r7]
005BE4AC  F8DF 75E8		ldr r7, [pc, #+1512] ; 0x40
005BE4B0  53F0     		strh r0, [r6, +r7]

#637
#638
#639		{L:174}
(*) UINT
005BE4B2  F8DF 063C		ldr r0, [pc, #+1596] ; 0x5BA0C8

#640		{L:174}
(*) DWORD
005BE4B6  F8DF 75E4		ldr r7, [pc, #+1508] ; 0x44
005BE4BA  51F0     		str r0, [r6, +r7]

#641
#642
#643		{L:175}
(*) DWORD
005BE4BC  2000     		mov r0, #0 ; 0
005BE4BE  F8DF 75E0		ldr r7, [pc, #+1504] ; 0x48
005BE4C2  53F0     		strh r0, [r6, +r7]

#644
#645
#646		{L:176}
(*) UINT
005BE4C4  203C     		mov r0, #60 ; 60
005BE4C6  F8DF 75E0		ldr r7, [pc, #+1504] ; 0x4C
005BE4CA  53F0     		strh r0, [r6, +r7]

#647
#648
#649		{L:177}
(*) UINT
005BE4CC  2032     		mov r0, #50 ; 50
005BE4CE  F8DF 75D4		ldr r7, [pc, #+1492] ; 0x4A
005BE4D2  53F0     		strh r0, [r6, +r7]

#650
#651
#652		{L:178}
(*) UINT
005BE4D4  F44F 7000		mov r0, #512 ; 512
005BE4D8  F8DF 75D0		ldr r7, [pc, #+1488] ; 0x4E
005BE4DC  53F0     		strh r0, [r6, +r7]

#653
#654
#655		{L:179}
(*) UINT
005BE4DE  F44F 7000		mov r0, #512 ; 512
005BE4E2  F8DF 75CC		ldr r7, [pc, #+1484] ; 0x50
005BE4E6  53F0     		strh r0, [r6, +r7]

#656
#657
#658		{L:180}
(*) UINT
005BE4E8  2001     		mov r0, #1 ; 1
005BE4EA  F85F 730C		ldr r7, [pc, #-780] ; 0x38
005BE4EE  55F0     		strb r0, [r6, +r7]

#659
#660
#661		{L:181}
(*) UNDEF
005BE4F0  F85F 7334		ldr r7, [pc, #-820] ; 0x1
005BE4F4  5DF0     		ldrb r0, [r6, +r7]

#662		{L:181}
(-) USINT
005BE4F6  1C40     		add r0, r0, #1

#663		{L:181}
(*) USINT
005BE4F8  F85F 733C		ldr r7, [pc, #-828] ; 0x1
005BE4FC  55F0     		strb r0, [r6, +r7]

#664
(-) USINT
005BE4FE  F001 BD5F		b #6846 ; 0x005BFFC0


#665
#666
#667
#668
#669		{L:188}
(*) UNDEF
005BE502  F8DF 75B0		ldr r7, [pc, #+1456] ; 0x52
005BE506  5DF0     		ldrb r0, [r6, +r7]

#670		{L:188}
(*) BOOL
005BE508  2800     		cmp r0, #0
005BE50A  BF08 2001		eqmov r0, #1
005BE50E  BF18 2000		nemov r0, #0

#671		{L:188}
(-) BOOL
005BE512  2800     		cmp r0, #0
005BE514  D002     		beq #4 ; 0x005BE51C


#672
#673
#674
#675
#676
#677
(-) BOOL
005BE518  F001 BD52		b #6820 ; 0x005BFFC0


#678
#679
#680
#681
#682
#683		{L:189}
(*) UNDEF
005BE51C  F85F 733C		ldr r7, [pc, #-828] ; 0x54
005BE520  59F0     		ldr r0, [r6, +r7]

#684		{L:189}
(*) UDINT
005BE522  2700     		mov r7, #0 ; 0
005BE524  42B8     		cmp r0, r7
005BE526  BF18 2000		nemov r0, #0
005BE52A  BF08 2001		eqmov r0, #1

#685		{L:189}
(-) BOOL
005BE52E  2800     		cmp r0, #0
005BE530  D002     		beq #4 ; 0x005BE538


#686
#687
#688
#689
#690
#691
(-) BOOL
005BE534  F001 BD44		b #6792 ; 0x005BFFC0


#692
#693
#694
#695
#696		{L:190}
(*) UNDEF
005BE538  F85F 7358		ldr r7, [pc, #-856] ; 0x54
005BE53C  59F0     		ldr r0, [r6, +r7]

#697		{L:190}
(-) UDINT
005BE53E  4600     		mov r0, r0
005BE540  F8DF 45A0		ldr r4, [pc, #+1440] ; 0x490DC5
005BE544  F044 0401		orr r4, r4, #1
005BE548  47A0     		blx r4

#698		{L:190}
(*) BOOL
005BE54A  F85F 7380		ldr r7, [pc, #-896] ; 0x10
005BE54E  51F0     		str r0, [r6, +r7]

#699
#700
#701		{L:191}
(*) UNDEF
005BE550  F85F 7370		ldr r7, [pc, #-880] ; 0x54
005BE554  59F0     		ldr r0, [r6, +r7]

#702		{L:191}
(-) UDINT
005BE556  4600     		mov r0, r0
005BE558  F8DF 458C		ldr r4, [pc, #+1420] ; 0x490E1D
005BE55C  F044 0401		orr r4, r4, #1
005BE560  47A0     		blx r4

#703		{L:191}
(*) BOOL
005BE562  F85F 7398		ldr r7, [pc, #-920] ; 0x10
005BE566  51F0     		str r0, [r6, +r7]

#704
#705
#706		{L:192}
(*) UNDEF
005BE568  F85F 73AC		ldr r7, [pc, #-940] ; 0x1
005BE56C  5DF0     		ldrb r0, [r6, +r7]

#707		{L:192}
(-) USINT
005BE56E  1C40     		add r0, r0, #1

#708		{L:192}
(*) USINT
005BE570  F85F 73B4		ldr r7, [pc, #-948] ; 0x1
005BE574  55F0     		strb r0, [r6, +r7]

#709
(-) USINT
005BE576  F001 BD23		b #6726 ; 0x005BFFC0


#710
#711
#712
#713
#714		{L:198}
(*) USINT
005BE57A  4630     		mov r0, r6
005BE57C  F85F 73BC		ldr r7, [pc, #-956] ; 0x4
005BE580  19C0     		add r0, r0, r7

#715		{L:198}
(*) DWORD
005BE582  F85F 7380		ldr r7, [pc, #-896] ; 0xF4
005BE586  51F0     		str r0, [r6, +r7]

#716		{L:198}
(*) UNDEF
005BE588  F44F 7000		mov r0, #512 ; 512

#717		{L:198}
(-) UINT
005BE58C  F85F 738C		ldr r7, [pc, #-908] ; 0xF4
005BE590  59F1     		ldr r1, [r6, +r7]
005BE592  4600     		mov r0, r0
005BE594  F85F 436C		ldr r4, [pc, #-876] ; 0x4905B1
005BE598  F044 0401		orr r4, r4, #1
005BE59C  47A0     		blx r4

#718		{L:198}
(*) BOOL
005BE59E  2800     		cmp r0, #0
005BE5A0  BF08 2001		eqmov r0, #1
005BE5A4  BF18 2000		nemov r0, #0

#719		{L:198}
(-) BOOL
005BE5A8  2800     		cmp r0, #0
005BE5AA  D002     		beq #4 ; 0x005BE5B2


#720
#721
#722
#723
#724
#725
(-) BOOL
005BE5AE  F001 BD07		b #6670 ; 0x005BFFC0


#726
#727
#728
#729
#730		{L:199}
(*) UNDEF
005BE5B2  F85F 73F0		ldr r7, [pc, #-1008] ; 0x4
005BE5B6  59F0     		ldr r0, [r6, +r7]

#731		{L:199}
(-) @BYTE
005BE5B8  F44F 7200		mov r2, #512 ; 512
005BE5BC  2100     		mov r1, #0 ; 0
005BE5BE  4600     		mov r0, r0
005BE5C0  F85F 4390		ldr r4, [pc, #-912] ; 0x490795
005BE5C4  F044 0401		orr r4, r4, #1
005BE5C8  47A0     		blx r4

#732		{L:199}
(*) @USINT
005BE5CA  F85F 7400		ldr r7, [pc, #-1024] ; 0x10
005BE5CE  51F0     		str r0, [r6, +r7]

#733
#734
#735		{L:200}
(*) UNDEF
005BE5D0  F8DF 7500		ldr r7, [pc, #+1280] ; 0x9C
005BE5D4  59F0     		ldr r0, [r6, +r7]

#736		{L:200}
(-) @BYTE
005BE5D6  F8DF 7500		ldr r7, [pc, #+1280] ; 0xA0
005BE5DA  59F2     		ldr r2, [r6, +r7]
005BE5DC  2100     		mov r1, #0 ; 0
005BE5DE  4600     		mov r0, r0
005BE5E0  F85F 43B0		ldr r4, [pc, #-944] ; 0x490795
005BE5E4  F044 0401		orr r4, r4, #1
005BE5E8  47A0     		blx r4

#737		{L:200}
(*) @USINT
005BE5EA  F85F 7420		ldr r7, [pc, #-1056] ; 0x10
005BE5EE  51F0     		str r0, [r6, +r7]

#738
#739
#740		{L:201}
(*) UDINT
005BE5F0  4630     		mov r0, r6
005BE5F2  F8DF 74E8		ldr r7, [pc, #+1256] ; 0xAB
005BE5F6  19C0     		add r0, r0, r7

#741		{L:201}
(*) DWORD
005BE5F8  F85F 73F8		ldr r7, [pc, #-1016] ; 0xF4
005BE5FC  51F0     		str r0, [r6, +r7]

#742		{L:201}
(*) UNDEF
005BE5FE  F85F 73FC		ldr r7, [pc, #-1020] ; 0xF4
005BE602  59F0     		ldr r0, [r6, +r7]

#743		{L:201}
(-) @UNDEF
005BE604  2241     		mov r2, #65 ; 65
005BE606  2100     		mov r1, #0 ; 0
005BE608  4600     		mov r0, r0
005BE60A  F85F 43D8		ldr r4, [pc, #-984] ; 0x490795
005BE60E  F044 0401		orr r4, r4, #1
005BE612  47A0     		blx r4

#744		{L:201}
(*) @USINT
005BE614  F85F 744C		ldr r7, [pc, #-1100] ; 0x10
005BE618  51F0     		str r0, [r6, +r7]

#745
#746
#747		{L:202}
(-) UNDEF
005BE61A  2001     		mov r0, #1 ; 1

#748		{L:202}
(-) BOOL
005BE61C  4600     		mov r0, r0
005BE61E  F85F 43FC		ldr r4, [pc, #-1020] ; 0x490519
005BE622  F044 0401		orr r4, r4, #1
005BE626  47A0     		blx r4

#749		{L:202}
(*) UDINT
005BE628  F8DF 748C		ldr r7, [pc, #+1164] ; 0x5C
005BE62C  51F0     		str r0, [r6, +r7]

#750
#751
#752		{L:203}
(*) UDINT
005BE62E  200A     		mov r0, #10 ; 10
005BE630  F85F 7474		ldr r7, [pc, #-1140] ; 0x1
005BE634  55F0     		strb r0, [r6, +r7]

#753
#754
#755
#756		{L:207}
(*) UNDEF
005BE636  4630     		mov r0, r6
005BE638  F8DF 7494		ldr r7, [pc, #+1172] ; 0x78
005BE63C  19C0     		add r0, r0, r7

#757		{L:207}
(*) STRING
005BE63E  F8DF 44AC		ldr r4, [pc, #+1196] ; 0x4A4729
005BE642  F044 0401		orr r4, r4, #1
005BE646  47A0     		blx r4

#758		{L:207}
(*) UINT
005BE648  2800     		cmp r0, #0
005BE64A  BF18 2000		nemov r0, #0
005BE64E  BF08 2001		eqmov r0, #1

#759		{L:207}
(-) BOOL
005BE652  2800     		cmp r0, #0
005BE654  D002     		beq #4 ; 0x005BE65C


#760
#761
#762
#763
#764
#765
(-) BOOL
005BE658  F001 BCB2		b #6500 ; 0x005BFFC0


#766
#767
#768
#769
#770		{L:208}
(*) UNDEF
005BE65C  4630     		mov r0, r6
005BE65E  F8DF 7470		ldr r7, [pc, #+1136] ; 0x78
005BE662  19C0     		add r0, r0, r7

#771		{L:208}
(-) STRING
005BE664  F8DF 4478		ldr r4, [pc, #+1144] ; 0x48F461
005BE668  F044 0401		orr r4, r4, #1
005BE66C  47A0     		blx r4

#772		{L:208}
(*) BOOL
005BE66E  F85F 74A4		ldr r7, [pc, #-1188] ; 0x10
005BE672  51F0     		str r0, [r6, +r7]

#773
(-) BOOL
005BE674  F001 BCA4		b #6472 ; 0x005BFFC0


#774
#775
#776
#777
#778		{L:223}
(*) UNDEF
005BE678  F8DF 7450		ldr r7, [pc, #+1104] ; 0x74
005BE67C  59F0     		ldr r0, [r6, +r7]

#779		{L:223}
(*) @BYTE
005BE67E  2700     		mov r7, #0 ; 0
005BE680  42B8     		cmp r0, r7
005BE682  BF18 2000		nemov r0, #0
005BE686  BF08 2001		eqmov r0, #1

#780		{L:223}
(-) BOOL
005BE68A  2800     		cmp r0, #0
005BE68C  D041     		beq #130 ; 0x005BE712


#781
#782
#783
#784
#785		{L:224}
(*) UNDEF
005BE690  F85F 74D0		ldr r7, [pc, #-1232] ; 0x4
005BE694  59F0     		ldr r0, [r6, +r7]

#786		{L:224}
(-) @BYTE
005BE696  B082     		sub sp, sp, #8
005BE698  F8DF 742C		ldr r7, [pc, #+1068] ; 0x70
005BE69C  59F7     		ldr r7, [r6, +r7]
005BE69E  F8CD 7000		str r7, [sp]
005BE6A2  2332     		mov r3, #50 ; 50
005BE6A4  F8DF 744C		ldr r7, [pc, #+1100] ; 0x5BA0D0
005BE6A8  463A     		mov r2, r7
005BE6AA  F44F 7100		mov r1, #512 ; 512
005BE6AE  4600     		mov r0, r0
005BE6B0  F85F 4498		ldr r4, [pc, #-1176] ; 0x48FB19
005BE6B4  F044 0401		orr r4, r4, #1
005BE6B8  47A0     		blx r4
005BE6BA  B002     		add sp, sp, #8

#787		{L:224}
(*) INT
005BE6BC  F85F 74F4		ldr r7, [pc, #-1268] ; 0x10
005BE6C0  51F0     		str r0, [r6, +r7]

#788
#789
#790
#791		{L:225}
(*) UNDEF
005BE6C2  F85F 74EC		ldr r7, [pc, #-1260] ; 0x2C
005BE6C6  59F0     		ldr r0, [r6, +r7]

#792		{L:225}
(*) @BYTE
005BE6C8  2700     		mov r7, #0 ; 0
005BE6CA  42B8     		cmp r0, r7
005BE6CC  BF08 2000		eqmov r0, #0
005BE6D0  BF18 2001		nemov r0, #1

#793		{L:225}
(-) BOOL
005BE6D4  2800     		cmp r0, #0
005BE6D6  D016     		beq #44 ; 0x005BE706


#794
#795
#796
#797
#798		{L:225}
(*) BOOL
005BE6DA  F8DF 041C		ldr r0, [pc, #+1052] ; 0x5BA0E8

#799		{L:225}
(*) DWORD
005BE6DE  F85F 74DC		ldr r7, [pc, #-1244] ; 0xF4
005BE6E2  51F0     		str r0, [r6, +r7]

#800		{L:225}
(-) UNDEF
005BE6E4  2001     		mov r0, #1 ; 1

#801		{L:225}
(-) USINT
005BE6E6  F85F 7524		ldr r7, [pc, #-1316] ; 0x4
005BE6EA  59F3     		ldr r3, [r6, +r7]
005BE6EC  F85F 74EC		ldr r7, [pc, #-1260] ; 0xF4
005BE6F0  59F2     		ldr r2, [r6, +r7]
005BE6F2  2101     		mov r1, #1 ; 1
005BE6F4  4600     		mov r0, r0
005BE6F6  F85F 44D8		ldr r4, [pc, #-1240] ; 0x48FE35
005BE6FA  F044 0401		orr r4, r4, #1
005BE6FE  47A0     		blx r4

#802		{L:225}
(*) BOOL
005BE700  F85F 7538		ldr r7, [pc, #-1336] ; 0x10
005BE704  51F0     		str r0, [r6, +r7]

#803
#804
#805
#806
#807
#808		{L:226}
(*) UDINT
005BE706  2014     		mov r0, #20 ; 20
005BE708  F85F 754C		ldr r7, [pc, #-1356] ; 0x1
005BE70C  55F0     		strb r0, [r6, +r7]

#809
#810
#811
#812
(-) USINT
005BE70E  F001 BC57		b #6318 ; 0x005BFFC0


#813
#814
#815
#816
#817		{L:232}
(*) UNDEF
005BE712  F85F 7550		ldr r7, [pc, #-1360] ; 0x4
005BE716  59F0     		ldr r0, [r6, +r7]

#818		{L:232}
(-) @BYTE
005BE718  B082     		sub sp, sp, #8
005BE71A  F8DF 73AC		ldr r7, [pc, #+940] ; 0x70
005BE71E  59F7     		ldr r7, [r6, +r7]
005BE720  F8CD 7000		str r7, [sp]
005BE724  2332     		mov r3, #50 ; 50
005BE726  F8DF 73D4		ldr r7, [pc, #+980] ; 0x5BA0EC
005BE72A  463A     		mov r2, r7
005BE72C  F44F 7100		mov r1, #512 ; 512
005BE730  4600     		mov r0, r0
005BE732  F85F 4518		ldr r4, [pc, #-1304] ; 0x48FB19
005BE736  F044 0401		orr r4, r4, #1
005BE73A  47A0     		blx r4
005BE73C  B002     		add sp, sp, #8

#819		{L:232}
(*) INT
005BE73E  F85F 7574		ldr r7, [pc, #-1396] ; 0x10
005BE742  51F0     		str r0, [r6, +r7]

#820
#821
#822
#823		{L:233}
(*) UNDEF
005BE744  F85F 7570		ldr r7, [pc, #-1392] ; 0x2C
005BE748  59F0     		ldr r0, [r6, +r7]

#824		{L:233}
(*) @BYTE
005BE74A  2700     		mov r7, #0 ; 0
005BE74C  42B8     		cmp r0, r7
005BE74E  BF08 2000		eqmov r0, #0
005BE752  BF18 2001		nemov r0, #1

#825		{L:233}
(-) BOOL
005BE756  2800     		cmp r0, #0
005BE758  D016     		beq #44 ; 0x005BE788


#826
#827
#828
#829
#830		{L:233}
(*) BOOL
005BE75C  F8DF 0398		ldr r0, [pc, #+920] ; 0x5BA0E8

#831		{L:233}
(*) DWORD
005BE760  F85F 7560		ldr r7, [pc, #-1376] ; 0xF4
005BE764  51F0     		str r0, [r6, +r7]

#832		{L:233}
(-) UNDEF
005BE766  2001     		mov r0, #1 ; 1

#833		{L:233}
(-) USINT
005BE768  F85F 75A8		ldr r7, [pc, #-1448] ; 0x4
005BE76C  59F3     		ldr r3, [r6, +r7]
005BE76E  F85F 756C		ldr r7, [pc, #-1388] ; 0xF4
005BE772  59F2     		ldr r2, [r6, +r7]
005BE774  2101     		mov r1, #1 ; 1
005BE776  4600     		mov r0, r0
005BE778  F85F 455C		ldr r4, [pc, #-1372] ; 0x48FE35
005BE77C  F044 0401		orr r4, r4, #1
005BE780  47A0     		blx r4

#834		{L:233}
(*) BOOL
005BE782  F85F 75B8		ldr r7, [pc, #-1464] ; 0x10
005BE786  51F0     		str r0, [r6, +r7]

#835
#836
#837
#838
#839
#840		{L:234}
(*) UDINT
005BE788  201E     		mov r0, #30 ; 30
005BE78A  F85F 75CC		ldr r7, [pc, #-1484] ; 0x1
005BE78E  55F0     		strb r0, [r6, +r7]

#841
(-) USINT
005BE790  F001 BC16		b #6188 ; 0x005BFFC0


#842
#843
#844
#845		{L:241}
(*) UNDEF
005BE794  F85F 75D4		ldr r7, [pc, #-1492] ; 0x4
005BE798  59F0     		ldr r0, [r6, +r7]

#846		{L:241}
(-) @BYTE
005BE79A  B082     		sub sp, sp, #8
005BE79C  F8DF 7320		ldr r7, [pc, #+800] ; 0x68
005BE7A0  59F7     		ldr r7, [r6, +r7]
005BE7A2  F8CD 7000		str r7, [sp]
005BE7A6  2332     		mov r3, #50 ; 50
005BE7A8  F8DF 7354		ldr r7, [pc, #+852] ; 0x5BA104
005BE7AC  463A     		mov r2, r7
005BE7AE  F44F 7100		mov r1, #512 ; 512
005BE7B2  4600     		mov r0, r0
005BE7B4  F85F 459C		ldr r4, [pc, #-1436] ; 0x48FB19
005BE7B8  F044 0401		orr r4, r4, #1
005BE7BC  47A0     		blx r4
005BE7BE  B002     		add sp, sp, #8

#847		{L:241}
(*) INT
005BE7C0  F85F 75F8		ldr r7, [pc, #-1528] ; 0x10
005BE7C4  51F0     		str r0, [r6, +r7]

#848
#849
#850		{L:241}
(*) UNDEF
005BE7C6  F85F 7608		ldr r7, [pc, #-1544] ; 0x1
005BE7CA  5DF0     		ldrb r0, [r6, +r7]

#851		{L:241}
(-) USINT
005BE7CC  1C40     		add r0, r0, #1

#852		{L:241}
(*) USINT
005BE7CE  F85F 7610		ldr r7, [pc, #-1552] ; 0x1
005BE7D2  55F0     		strb r0, [r6, +r7]

#853
(-) USINT
005BE7D4  F001 BBF4		b #6120 ; 0x005BFFC0


#854
#855
#856
#857		{L:242}
(*) USINT
005BE7D8  F8DF 0328		ldr r0, [pc, #+808] ; 0x5BA114

#858		{L:242}
(*) DWORD
005BE7DC  F85F 75DC		ldr r7, [pc, #-1500] ; 0xF4
005BE7E0  51F0     		str r0, [r6, +r7]

#859		{L:242}
(*) UNDEF
005BE7E2  F85F 7620		ldr r7, [pc, #-1568] ; 0x4
005BE7E6  59F0     		ldr r0, [r6, +r7]

#860		{L:242}
(-) @BYTE
005BE7E8  B082     		sub sp, sp, #8
005BE7EA  F85F 75E8		ldr r7, [pc, #-1512] ; 0xF4
005BE7EE  59F7     		ldr r7, [r6, +r7]
005BE7F0  F8CD 7000		str r7, [sp]
005BE7F4  2332     		mov r3, #50 ; 50
005BE7F6  F8DF 7310		ldr r7, [pc, #+784] ; 0x5BA140
005BE7FA  463A     		mov r2, r7
005BE7FC  F44F 7100		mov r1, #512 ; 512
005BE800  4600     		mov r0, r0
005BE802  F85F 45E8		ldr r4, [pc, #-1512] ; 0x48FB19
005BE806  F044 0401		orr r4, r4, #1
005BE80A  47A0     		blx r4
005BE80C  B002     		add sp, sp, #8

#861		{L:242}
(*) INT
005BE80E  F85F 7644		ldr r7, [pc, #-1604] ; 0x10
005BE812  51F0     		str r0, [r6, +r7]

#862
#863
#864		{L:242}
(*) UNDEF
005BE814  F85F 7658		ldr r7, [pc, #-1624] ; 0x1
005BE818  5DF0     		ldrb r0, [r6, +r7]

#865		{L:242}
(-) USINT
005BE81A  1C40     		add r0, r0, #1

#866		{L:242}
(*) USINT
005BE81C  F85F 7660		ldr r7, [pc, #-1632] ; 0x1
005BE820  55F0     		strb r0, [r6, +r7]

#867
(-) USINT
005BE822  F001 BBCD		b #6042 ; 0x005BFFC0


#868
#869
#870
#871		{L:244}
(*) USINT
005BE826  F8DF 02E4		ldr r0, [pc, #+740] ; 0x5BA148

#872		{L:244}
(*) DWORD
005BE82A  F85F 7628		ldr r7, [pc, #-1576] ; 0xF4
005BE82E  51F0     		str r0, [r6, +r7]

#873		{L:244}
(*) UNDEF
005BE830  F85F 7670		ldr r7, [pc, #-1648] ; 0x4
005BE834  59F0     		ldr r0, [r6, +r7]

#874		{L:244}
(-) @BYTE
005BE836  B082     		sub sp, sp, #8
005BE838  F85F 7638		ldr r7, [pc, #-1592] ; 0xF4
005BE83C  59F7     		ldr r7, [r6, +r7]
005BE83E  F8CD 7000		str r7, [sp]
005BE842  2332     		mov r3, #50 ; 50
005BE844  F8DF 72C0		ldr r7, [pc, #+704] ; 0x5BA140
005BE848  463A     		mov r2, r7
005BE84A  F44F 7100		mov r1, #512 ; 512
005BE84E  4600     		mov r0, r0
005BE850  F85F 4638		ldr r4, [pc, #-1592] ; 0x48FB19
005BE854  F044 0401		orr r4, r4, #1
005BE858  47A0     		blx r4
005BE85A  B002     		add sp, sp, #8

#875		{L:244}
(*) INT
005BE85C  F85F 7694		ldr r7, [pc, #-1684] ; 0x10
005BE860  51F0     		str r0, [r6, +r7]

#876
#877
#878		{L:244}
(*) UNDEF
005BE862  F85F 76A4		ldr r7, [pc, #-1700] ; 0x1
005BE866  5DF0     		ldrb r0, [r6, +r7]

#879		{L:244}
(-) USINT
005BE868  1C40     		add r0, r0, #1

#880		{L:244}
(*) USINT
005BE86A  F85F 76AC		ldr r7, [pc, #-1708] ; 0x1
005BE86E  55F0     		strb r0, [r6, +r7]

#881
(-) USINT
005BE870  F001 BBA6		b #5964 ; 0x005BFFC0


#882
#883
#884
#885		{L:245}
(*) USINT
005BE874  F8DF 0298		ldr r0, [pc, #+664] ; 0x5BA160

#886		{L:245}
(*) DWORD
005BE878  F85F 7678		ldr r7, [pc, #-1656] ; 0xF4
005BE87C  51F0     		str r0, [r6, +r7]

#887		{L:245}
(*) UNDEF
005BE87E  F85F 76BC		ldr r7, [pc, #-1724] ; 0x4
005BE882  59F0     		ldr r0, [r6, +r7]

#888		{L:245}
(-) @BYTE
005BE884  B082     		sub sp, sp, #8
005BE886  F85F 7684		ldr r7, [pc, #-1668] ; 0xF4
005BE88A  59F7     		ldr r7, [r6, +r7]
005BE88C  F8CD 7000		str r7, [sp]
005BE890  2332     		mov r3, #50 ; 50
005BE892  F8DF 7274		ldr r7, [pc, #+628] ; 0x5BA140
005BE896  463A     		mov r2, r7
005BE898  F44F 7100		mov r1, #512 ; 512
005BE89C  4600     		mov r0, r0
005BE89E  F85F 4684		ldr r4, [pc, #-1668] ; 0x48FB19
005BE8A2  F044 0401		orr r4, r4, #1
005BE8A6  47A0     		blx r4
005BE8A8  B002     		add sp, sp, #8

#889		{L:245}
(*) INT
005BE8AA  F85F 76E0		ldr r7, [pc, #-1760] ; 0x10
005BE8AE  51F0     		str r0, [r6, +r7]

#890
#891
#892		{L:245}
(*) UNDEF
005BE8B0  F85F 76F4		ldr r7, [pc, #-1780] ; 0x1
005BE8B4  5DF0     		ldrb r0, [r6, +r7]

#893		{L:245}
(-) USINT
005BE8B6  1C40     		add r0, r0, #1

#894		{L:245}
(*) USINT
005BE8B8  F85F 76FC		ldr r7, [pc, #-1788] ; 0x1
005BE8BC  55F0     		strb r0, [r6, +r7]

#895
(-) USINT
005BE8BE  F001 BB7F		b #5886 ; 0x005BFFC0


#896
#897
#898
#899		{L:250}
(*) USINT
005BE8C2  F8DF 0250		ldr r0, [pc, #+592] ; 0x5BA180

#900		{L:250}
(*) DWORD
005BE8C6  F85F 76C4		ldr r7, [pc, #-1732] ; 0xF4
005BE8CA  51F0     		str r0, [r6, +r7]

#901		{L:250}
(*) UNDEF
005BE8CC  F85F 770C		ldr r7, [pc, #-1804] ; 0x4
005BE8D0  59F0     		ldr r0, [r6, +r7]

#902		{L:250}
(-) @BYTE
005BE8D2  B082     		sub sp, sp, #8
005BE8D4  F85F 76D4		ldr r7, [pc, #-1748] ; 0xF4
005BE8D8  59F7     		ldr r7, [r6, +r7]
005BE8DA  F8CD 7000		str r7, [sp]
005BE8DE  2332     		mov r3, #50 ; 50
005BE8E0  F8DF 7224		ldr r7, [pc, #+548] ; 0x5BA140
005BE8E4  463A     		mov r2, r7
005BE8E6  F44F 7100		mov r1, #512 ; 512
005BE8EA  4600     		mov r0, r0
005BE8EC  F85F 46D4		ldr r4, [pc, #-1748] ; 0x48FB19
005BE8F0  F044 0401		orr r4, r4, #1
005BE8F4  47A0     		blx r4
005BE8F6  B002     		add sp, sp, #8

#903		{L:250}
(*) INT
005BE8F8  F85F 7730		ldr r7, [pc, #-1840] ; 0x10
005BE8FC  51F0     		str r0, [r6, +r7]

#904
#905
#906		{L:250}
(*) UNDEF
005BE8FE  F85F 7740		ldr r7, [pc, #-1856] ; 0x1
005BE902  5DF0     		ldrb r0, [r6, +r7]

#907		{L:250}
(-) USINT
005BE904  1C40     		add r0, r0, #1

#908		{L:250}
(*) USINT
005BE906  F85F 7748		ldr r7, [pc, #-1864] ; 0x1
005BE90A  55F0     		strb r0, [r6, +r7]

#909
(-) USINT
005BE90C  F001 BB58		b #5808 ; 0x005BFFC0


#910
#911
#912
#913		{L:255}
(*) USINT
005BE910  F8DF 0204		ldr r0, [pc, #+516] ; 0x5BA198

#914		{L:255}
(*) DWORD
005BE914  F85F 7714		ldr r7, [pc, #-1812] ; 0xF4
005BE918  51F0     		str r0, [r6, +r7]

#915		{L:255}
(*) UNDEF
005BE91A  F85F 7758		ldr r7, [pc, #-1880] ; 0x4
005BE91E  59F0     		ldr r0, [r6, +r7]

#916		{L:255}
(-) @BYTE
005BE920  B082     		sub sp, sp, #8
005BE922  F85F 7720		ldr r7, [pc, #-1824] ; 0xF4
005BE926  59F7     		ldr r7, [r6, +r7]
005BE928  F8CD 7000		str r7, [sp]
005BE92C  2332     		mov r3, #50 ; 50
005BE92E  F8DF 71D8		ldr r7, [pc, #+472] ; 0x5BA140
005BE932  463A     		mov r2, r7
005BE934  F44F 7100		mov r1, #512 ; 512
005BE938  4600     		mov r0, r0
005BE93A  F85F 4720		ldr r4, [pc, #-1824] ; 0x48FB19
005BE93E  F044 0401		orr r4, r4, #1
005BE942  47A0     		blx r4
005BE944  B002     		add sp, sp, #8

#917		{L:255}
(*) INT
005BE946  F85F 777C		ldr r7, [pc, #-1916] ; 0x10
005BE94A  51F0     		str r0, [r6, +r7]

#918
#919
#920		{L:255}
(*) UNDEF
005BE94C  F85F 7790		ldr r7, [pc, #-1936] ; 0x1
005BE950  5DF0     		ldrb r0, [r6, +r7]

#921		{L:255}
(-) USINT
005BE952  1C40     		add r0, r0, #1

#922		{L:255}
(*) USINT
005BE954  F85F 7798		ldr r7, [pc, #-1944] ; 0x1
005BE958  55F0     		strb r0, [r6, +r7]

#923
(-) USINT
005BE95A  F001 BB31		b #5730 ; 0x005BFFC0


#924
#925
#926
#927		{L:260}
(*) USINT
005BE95E  F8DF 01BC		ldr r0, [pc, #+444] ; 0x5BA1B0

#928		{L:260}
(*) DWORD
005BE962  F85F 7760		ldr r7, [pc, #-1888] ; 0xF4
005BE966  51F0     		str r0, [r6, +r7]

#929		{L:260}
(*) UNDEF
005BE968  F85F 77A8		ldr r7, [pc, #-1960] ; 0x4
005BE96C  59F0     		ldr r0, [r6, +r7]

#930		{L:260}
(-) @BYTE
005BE96E  B082     		sub sp, sp, #8
005BE970  F85F 7770		ldr r7, [pc, #-1904] ; 0xF4
005BE974  59F7     		ldr r7, [r6, +r7]
005BE976  F8CD 7000		str r7, [sp]
005BE97A  2332     		mov r3, #50 ; 50
005BE97C  F8DF 7188		ldr r7, [pc, #+392] ; 0x5BA140
005BE980  463A     		mov r2, r7
005BE982  F44F 7100		mov r1, #512 ; 512
005BE986  4600     		mov r0, r0
005BE988  F85F 4770		ldr r4, [pc, #-1904] ; 0x48FB19
005BE98C  F044 0401		orr r4, r4, #1
005BE990  47A0     		blx r4
005BE992  B002     		add sp, sp, #8

#931		{L:260}
(*) INT
005BE994  F85F 77CC		ldr r7, [pc, #-1996] ; 0x10
005BE998  51F0     		str r0, [r6, +r7]

#932
#933
#934		{L:260}
(*) UNDEF
005BE99A  F85F 77DC		ldr r7, [pc, #-2012] ; 0x1
005BE99E  5DF0     		ldrb r0, [r6, +r7]

#935		{L:260}
(-) USINT
005BE9A0  1C40     		add r0, r0, #1

#936		{L:260}
(*) USINT
005BE9A2  F85F 77E4		ldr r7, [pc, #-2020] ; 0x1
005BE9A6  55F0     		strb r0, [r6, +r7]

#937
(-) USINT
005BE9A8  F001 BB0A		b #5652 ; 0x005BFFC0


#938
#939
#940
#941		{L:268}
(*) USINT
005BE9AC  F8DF 0170		ldr r0, [pc, #+368] ; 0x5BA1C4

#942		{L:268}
(*) DWORD
005BE9B0  F85F 77B0		ldr r7, [pc, #-1968] ; 0xF4
005BE9B4  51F0     		str r0, [r6, +r7]

#943		{L:268}
(*) UNDEF
005BE9B6  F85F 77F4		ldr r7, [pc, #-2036] ; 0x4
005BE9BA  59F0     		ldr r0, [r6, +r7]

#944		{L:268}
(-) @BYTE
005BE9BC  B082     		sub sp, sp, #8
005BE9BE  F85F 77BC		ldr r7, [pc, #-1980] ; 0xF4
005BE9C2  59F7     		ldr r7, [r6, +r7]
005BE9C4  F8CD 7000		str r7, [sp]
005BE9C8  2332     		mov r3, #50 ; 50
005BE9CA  F8DF 7158		ldr r7, [pc, #+344] ; 0x5BA1CC
005BE9CE  463A     		mov r2, r7
005BE9D0  F44F 7100		mov r1, #512 ; 512
005BE9D4  4600     		mov r0, r0
005BE9D6  F85F 47BC		ldr r4, [pc, #-1980] ; 0x48FB19
005BE9DA  F044 0401		orr r4, r4, #1
005BE9DE  47A0     		blx r4
005BE9E0  B002     		add sp, sp, #8

#945		{L:268}
(*) INT
005BE9E2  F85F 7818		ldr r7, [pc, #-2072] ; 0x10
005BE9E6  51F0     		str r0, [r6, +r7]

#946
#947
#948		{L:269}
(*) INT
005BE9E8  2063     		mov r0, #99 ; 99
005BE9EA  F85F 782C		ldr r7, [pc, #-2092] ; 0x1
005BE9EE  55F0     		strb r0, [r6, +r7]

#949
(-) USINT
005BE9F0  F001 BAE6		b #5580 ; 0x005BFFC0


#950
#951
#952
#953		{L:279}
(*) USINT
005BE9F4  F8DF 70D4		ldr r7, [pc, #+212] ; 0x74
005BE9F8  59F0     		ldr r0, [r6, +r7]
005BE9FA  F8DF 7094		ldr r7, [pc, #+148] ; 0x28
005BE9FE  51F0     		str r0, [r6, +r7]

#954
#955
#956		{L:280}
(*) UNDEF
005BEA00  F8DF 708C		ldr r7, [pc, #+140] ; 0x28
005BEA04  59F0     		ldr r0, [r6, +r7]

#957		{L:280}
(-) @BYTE
005BEA06  4600     		mov r0, r0
005BEA08  F85F 47D0		ldr r4, [pc, #-2000] ; 0x4909F1
005BEA0C  F044 0401		orr r4, r4, #1
005BEA10  47A0     		blx r4

#958		{L:280}
(*) UDINT
005BEA12  F85F 7844		ldr r7, [pc, #-2116] ; 0x14
005BEA16  51F0     		str r0, [r6, +r7]

#959
#960
#961		{L:284}
(*) UDINT
005BEA18  F8DF 010C		ldr r0, [pc, #+268] ; 0x5BA1D0

#962		{L:284}
(*) DWORD
005BEA1C  F85F 781C		ldr r7, [pc, #-2076] ; 0xF4
005BEA20  51F0     		str r0, [r6, +r7]

#963		{L:284}
(*) UNDEF
005BEA22  F85F 7860		ldr r7, [pc, #-2144] ; 0x4
005BEA26  59F0     		ldr r0, [r6, +r7]

#964		{L:284}
(-) @BYTE
005BEA28  B082     		sub sp, sp, #8
005BEA2A  F85F 7828		ldr r7, [pc, #-2088] ; 0xF4
005BEA2E  59F7     		ldr r7, [r6, +r7]
005BEA30  F8CD 7000		str r7, [sp]
005BEA34  2332     		mov r3, #50 ; 50
005BEA36  F8DF 70D0		ldr r7, [pc, #+208] ; 0x5BA140
005BEA3A  463A     		mov r2, r7
005BEA3C  F44F 7100		mov r1, #512 ; 512
005BEA40  4600     		mov r0, r0
005BEA42  F85F 4828		ldr r4, [pc, #-2088] ; 0x48FB19
005BEA46  F044 0401		orr r4, r4, #1
005BEA4A  47A0     		blx r4
005BEA4C  B002     		add sp, sp, #8

#965		{L:284}
(*) INT
005BEA4E  F85F 7884		ldr r7, [pc, #-2180] ; 0x10
005BEA52  51F0     		str r0, [r6, +r7]

#966
#967
#968		{L:285}
(*) INT
005BEA54  4630     		mov r0, r6
005BEA56  F85F 7888		ldr r7, [pc, #-2184] ; 0x14
005BEA5A  19C0     		add r0, r0, r7

#969		{L:285}
(*) DWORD
005BEA5C  F85F 785C		ldr r7, [pc, #-2140] ; 0xF4
005BEA60  51F0     		str r0, [r6, +r7]

#970		{L:285}
(*) UNDEF
005BEA62  F85F 78A0		ldr r7, [pc, #-2208] ; 0x4
005BEA66  59F0     		ldr r0, [r6, +r7]

#971		{L:285}
(-) @BYTE
005BEA68  B082     		sub sp, sp, #8
005BEA6A  F85F 7868		ldr r7, [pc, #-2152] ; 0xF4
005BEA6E  59F7     		ldr r7, [r6, +r7]
005BEA70  F8CD 7000		str r7, [sp]
005BEA74  232A     		mov r3, #42 ; 42
005BEA76  F8DF 70B4		ldr r7, [pc, #+180] ; 0x5BA200
005BEA7A  463A     		mov r2, r7
005BEA7C  F44F 7100		mov r1, #512 ; 512
005BEA80  4600     		mov r0, r0
005BEA82  F85F 4868		ldr r4, [pc, #-2152] ; 0x48FB19
005BEA86  F044 0401		orr r4, r4, #1
005BEA8A  47A0     		blx r4
005BEA8C  B002     		add sp, sp, #8

005BEA8E  E04F     		b #158

005BEA90  00000028		; 0x00000028
005BEA94  0000003C		; 0x0000003C
005BEA98  00000040		; 0x00000040
005BEA9C  00000044		; 0x00000044
005BEAA0  00000048		; 0x00000048
005BEAA4  0000004A		; 0x0000004A
005BEAA8  0000004C		; 0x0000004C
005BEAAC  0000004E		; 0x0000004E
005BEAB0  00000050		; 0x00000050
005BEAB4  00000052		; 0x00000052
005BEAB8  0000005C		; 0x0000005C
005BEABC  00000064		; 0x00000064
005BEAC0  00000068		; 0x00000068
005BEAC4  0000006C		; 0x0000006C
005BEAC8  00000070		; 0x00000070
005BEACC  00000074		; 0x00000074
005BEAD0  00000078		; 0x00000078
005BEAD4  0000009C		; 0x0000009C
005BEAD8  000000A0		; 0x000000A0
005BEADC  000000AB		; 0x000000AB
005BEAE0  0048F461		; 0x0048F461
005BEAE4  00490DC5		; 0x00490DC5
005BEAE8  00490E1D		; 0x00490E1D
005BEAEC  004A4729		; 0x004A4729
005BEAF0  005BA0C8		; 0x005BA0C8
005BEAF4  005BA0D0		; 0x005BA0D0
005BEAF8  005BA0E8		; 0x005BA0E8
005BEAFC  005BA0EC		; 0x005BA0EC
005BEB00  005BA104		; 0x005BA104
005BEB04  005BA114		; 0x005BA114
005BEB08  005BA140		; 0x005BA140
005BEB0C  005BA148		; 0x005BA148
005BEB10  005BA160		; 0x005BA160
005BEB14  005BA180		; 0x005BA180
005BEB18  005BA198		; 0x005BA198
005BEB1C  005BA1B0		; 0x005BA1B0
005BEB20  005BA1C4		; 0x005BA1C4
005BEB24  005BA1CC		; 0x005BA1CC
005BEB28  005BA1D0		; 0x005BA1D0
005BEB2C  005BA200		; 0x005BA200

#972		{L:285}
(*) INT
005BEB30  F85F 7968		ldr r7, [pc, #-2408] ; 0x10
005BEB34  51F0     		str r0, [r6, +r7]

#973
#974
#975		{L:286}
(*) INT
005BEB36  F85F 0018		ldr r0, [pc, #-24] ; 0x5BA1C4

#976		{L:286}
(*) DWORD
005BEB3A  F85F 7938		ldr r7, [pc, #-2360] ; 0xF4
005BEB3E  51F0     		str r0, [r6, +r7]

#977		{L:286}
(*) UNDEF
005BEB40  F85F 7980		ldr r7, [pc, #-2432] ; 0x4
005BEB44  59F0     		ldr r0, [r6, +r7]

#978		{L:286}
(-) @BYTE
005BEB46  B082     		sub sp, sp, #8
005BEB48  F85F 7948		ldr r7, [pc, #-2376] ; 0xF4
005BEB4C  59F7     		ldr r7, [r6, +r7]
005BEB4E  F8CD 7000		str r7, [sp]
005BEB52  2332     		mov r3, #50 ; 50
005BEB54  F85F 7034		ldr r7, [pc, #-52] ; 0x5BA1CC
005BEB58  463A     		mov r2, r7
005BEB5A  F44F 7100		mov r1, #512 ; 512
005BEB5E  4600     		mov r0, r0
005BEB60  F85F 4948		ldr r4, [pc, #-2376] ; 0x48FB19
005BEB64  F044 0401		orr r4, r4, #1
005BEB68  47A0     		blx r4
005BEB6A  B002     		add sp, sp, #8

#979		{L:286}
(*) INT
005BEB6C  F85F 79A4		ldr r7, [pc, #-2468] ; 0x10
005BEB70  51F0     		str r0, [r6, +r7]

#980
#981
#982
#983		{L:287}
(*) UNDEF
005BEB72  F85F 799C		ldr r7, [pc, #-2460] ; 0x2C
005BEB76  59F0     		ldr r0, [r6, +r7]

#984		{L:287}
(*) @BYTE
005BEB78  2700     		mov r7, #0 ; 0
005BEB7A  42B8     		cmp r0, r7
005BEB7C  BF08 2000		eqmov r0, #0
005BEB80  BF18 2001		nemov r0, #1

#985		{L:287}
(-) BOOL
005BEB84  2800     		cmp r0, #0
005BEB86  D016     		beq #44 ; 0x005BEBB6


#986
#987
#988
#989
#990		{L:287}
(*) BOOL
005BEB8A  F8DF 07FC		ldr r0, [pc, #+2044] ; 0x5BA218

#991		{L:287}
(*) DWORD
005BEB8E  F85F 798C		ldr r7, [pc, #-2444] ; 0xF4
005BEB92  51F0     		str r0, [r6, +r7]

#992		{L:287}
(-) UNDEF
005BEB94  2001     		mov r0, #1 ; 1

#993		{L:287}
(-) USINT
005BEB96  F85F 70CC		ldr r7, [pc, #-204] ; 0x74
005BEB9A  59F3     		ldr r3, [r6, +r7]
005BEB9C  F85F 799C		ldr r7, [pc, #-2460] ; 0xF4
005BEBA0  59F2     		ldr r2, [r6, +r7]
005BEBA2  2104     		mov r1, #4 ; 4
005BEBA4  4600     		mov r0, r0
005BEBA6  F85F 4988		ldr r4, [pc, #-2440] ; 0x48FE35
005BEBAA  F044 0401		orr r4, r4, #1
005BEBAE  47A0     		blx r4

#994		{L:287}
(*) BOOL
005BEBB0  F85F 79E8		ldr r7, [pc, #-2536] ; 0x10
005BEBB4  51F0     		str r0, [r6, +r7]

#995
#996
#997
#998
#999
#1000		{L:288}
(*) UNDEF
005BEBB6  F85F 79F8		ldr r7, [pc, #-2552] ; 0x1
005BEBBA  5DF0     		ldrb r0, [r6, +r7]

#1001		{L:288}
(-) USINT
005BEBBC  1C40     		add r0, r0, #1

#1002		{L:288}
(*) USINT
005BEBBE  F85F 7A00		ldr r7, [pc, #-2560] ; 0x1
005BEBC2  55F0     		strb r0, [r6, +r7]

#1003
(-) USINT
005BEBC4  F001 B9FC		b #5112 ; 0x005BFFC0


#1004
#1005
#1006
#1007		{L:294}
(*) UNDEF
005BEBC8  F85F 713C		ldr r7, [pc, #-316] ; 0x28
005BEBCC  59F0     		ldr r0, [r6, +r7]

#1008		{L:294}
(-) @BYTE
005BEBCE  4600     		mov r0, r0
005BEBD0  F85F 4998		ldr r4, [pc, #-2456] ; 0x4909F1
005BEBD4  F044 0401		orr r4, r4, #1
005BEBD8  47A0     		blx r4

#1009		{L:294}
(*) UDINT
005BEBDA  F85F 7A0C		ldr r7, [pc, #-2572] ; 0x14
005BEBDE  51F0     		str r0, [r6, +r7]

#1010
#1011
#1012		{L:295}
(*) UNDEF
005BEBE0  F85F 7A20		ldr r7, [pc, #-2592] ; 0x4
005BEBE4  59F0     		ldr r0, [r6, +r7]

#1013		{L:295}
(-) @BYTE
005BEBE6  4600     		mov r0, r0
005BEBE8  F85F 49B0		ldr r4, [pc, #-2480] ; 0x4909F1
005BEBEC  F044 0401		orr r4, r4, #1
005BEBF0  47A0     		blx r4

#1014		{L:295}
(*) UDINT
005BEBF2  F85F 79E8		ldr r7, [pc, #-2536] ; 0xFC
005BEBF6  51F0     		str r0, [r6, +r7]

#1015		{L:295}
(*) UNDEF
005BEBF8  F44F 7000		mov r0, #512 ; 512

#1016		{L:295}
(*) UINT
005BEBFC  F85F 79F4		ldr r7, [pc, #-2548] ; 0xFC
005BEC00  59F7     		ldr r7, [r6, +r7]
005BEC02  1BC0     		sub r0, r0, r7

#1017		{L:295}
(-) UDINT
005BEC04  1E40     		sub r0, r0, #1

#1018		{L:295}
(*) UDINT
005BEC06  F85F 7A34		ldr r7, [pc, #-2612] ; 0x18
005BEC0A  51F0     		str r0, [r6, +r7]

#1019
#1020
#1021
#1022		{L:296}
(*) UNDEF
005BEC0C  F85F 7A40		ldr r7, [pc, #-2624] ; 0x14
005BEC10  59F0     		ldr r0, [r6, +r7]

#1023		{L:296}
(*) UDINT
005BEC12  2800     		cmp r0, #0
005BEC14  BF18 2000		nemov r0, #0
005BEC18  BF08 2001		eqmov r0, #1

#1024		{L:296}
(-) BOOL
005BEC1C  2800     		cmp r0, #0
005BEC1E  D006     		beq #12 ; 0x005BEC2E


#1025
#1026
#1027
#1028
#1029		{L:296}
(*) BOOL
005BEC22  2063     		mov r0, #99 ; 99
005BEC24  F85F 7A68		ldr r7, [pc, #-2664] ; 0x1
005BEC28  55F0     		strb r0, [r6, +r7]

#1030
#1031
#1032
#1033
(-) USINT
005BEC2A  F001 B9C9		b #5010 ; 0x005BFFC0


#1034
#1035
#1036
#1037
#1038
#1039		{L:300}
(*) UNDEF
005BEC2E  F85F 7A5C		ldr r7, [pc, #-2652] ; 0x18
005BEC32  59F0     		ldr r0, [r6, +r7]

#1040		{L:300}
(*) UDINT
005BEC34  F85F 7A68		ldr r7, [pc, #-2664] ; 0x14
005BEC38  59F7     		ldr r7, [r6, +r7]
005BEC3A  42B8     		cmp r0, r7
005BEC3C  BF28 2000		hsmov r0, #0
005BEC40  BF38 2001		lomov r0, #1

#1041		{L:300}
(-) BOOL
005BEC44  2800     		cmp r0, #0
005BEC46  D006     		beq #12 ; 0x005BEC56


#1042
#1043
#1044
#1045
#1046		{L:300}
(*) BOOL
005BEC4A  F85F 7A78		ldr r7, [pc, #-2680] ; 0x18
005BEC4E  59F0     		ldr r0, [r6, +r7]
005BEC50  F85F 7A84		ldr r7, [pc, #-2692] ; 0x14
005BEC54  51F0     		str r0, [r6, +r7]

#1047
#1048
#1049
#1050
#1051
#1052		{L:301}
(*) UNDEF
005BEC56  F85F 7A94		ldr r7, [pc, #-2708] ; 0x4
005BEC5A  59F0     		ldr r0, [r6, +r7]

#1053		{L:301}
(-) @BYTE
005BEC5C  4600     		mov r0, r0
005BEC5E  F85F 4A24		ldr r4, [pc, #-2596] ; 0x4909F1
005BEC62  F044 0401		orr r4, r4, #1
005BEC66  47A0     		blx r4

#1054		{L:301}
(*) UDINT
005BEC68  F85F 7AA8		ldr r7, [pc, #-2728] ; 0x4
005BEC6C  59F7     		ldr r7, [r6, +r7]
005BEC6E  19C0     		add r0, r0, r7

#1055		{L:301}
(*) UDINT
005BEC70  F85F 7AA0		ldr r7, [pc, #-2720] ; 0x18
005BEC74  51F0     		str r0, [r6, +r7]

#1056
#1057
#1058		{L:302}
(*) UNDEF
005BEC76  F85F 7AA4		ldr r7, [pc, #-2724] ; 0x18
005BEC7A  59F0     		ldr r0, [r6, +r7]

#1059		{L:302}
(-) UDINT
005BEC7C  F85F 7AB0		ldr r7, [pc, #-2736] ; 0x14
005BEC80  59F2     		ldr r2, [r6, +r7]
005BEC82  F85F 71F4		ldr r7, [pc, #-500] ; 0x28
005BEC86  59F1     		ldr r1, [r6, +r7]
005BEC88  4600     		mov r0, r0
005BEC8A  F85F 4A54		ldr r4, [pc, #-2644] ; 0x4907E5
005BEC8E  F044 0401		orr r4, r4, #1
005BEC92  47A0     		blx r4

#1060		{L:302}
(*) @USINT
005BEC94  F85F 7ACC		ldr r7, [pc, #-2764] ; 0x10
005BEC98  51F0     		str r0, [r6, +r7]

#1061
#1062
#1063		{L:303}
(*) UNDEF
005BEC9A  F85F 7AC8		ldr r7, [pc, #-2760] ; 0x18
005BEC9E  59F0     		ldr r0, [r6, +r7]

#1064		{L:303}
(*) UDINT
005BECA0  F85F 7AD4		ldr r7, [pc, #-2772] ; 0x14
005BECA4  59F7     		ldr r7, [r6, +r7]
005BECA6  19C0     		add r0, r0, r7

#1065		{L:303}
(*) UDINT
005BECA8  F85F 7AA0		ldr r7, [pc, #-2720] ; 0xFC
005BECAC  51F0     		str r0, [r6, +r7]

#1066		{L:303}
(*) UNDEF
005BECAE  F85F 7AA4		ldr r7, [pc, #-2724] ; 0xFC
005BECB2  59F0     		ldr r0, [r6, +r7]

#1067		{L:303}
(-) UDINT
005BECB4  2201     		mov r2, #1 ; 1
005BECB6  2100     		mov r1, #0 ; 0
005BECB8  4600     		mov r0, r0
005BECBA  F85F 4A88		ldr r4, [pc, #-2696] ; 0x490795
005BECBE  F044 0401		orr r4, r4, #1
005BECC2  47A0     		blx r4

#1068		{L:303}
(*) @USINT
005BECC4  F85F 7AFC		ldr r7, [pc, #-2812] ; 0x10
005BECC8  51F0     		str r0, [r6, +r7]

#1069
#1070
#1071		{L:304}
(*) UNDEF
005BECCA  F85F 723C		ldr r7, [pc, #-572] ; 0x28
005BECCE  59F0     		ldr r0, [r6, +r7]

#1072		{L:304}
(*) @BYTE
005BECD0  F85F 7B04		ldr r7, [pc, #-2820] ; 0x14
005BECD4  59F7     		ldr r7, [r6, +r7]
005BECD6  19C0     		add r0, r0, r7

#1073		{L:304}
(*) @BYTE
005BECD8  F85F 724C		ldr r7, [pc, #-588] ; 0x28
005BECDC  51F0     		str r0, [r6, +r7]

#1074
(-) @BYTE
005BECDE  F001 B96F		b #4830 ; 0x005BFFC0


#1075
#1076
#1077
#1078		{L:310}
(*) UNDEF
005BECE2  F85F 7B00		ldr r7, [pc, #-2816] ; 0x54
005BECE6  59F0     		ldr r0, [r6, +r7]

#1079		{L:310}
(-) UDINT
005BECE8  4600     		mov r0, r0
005BECEA  F8DF 4698		ldr r4, [pc, #+1688] ; 0x490E75
005BECEE  F044 0401		orr r4, r4, #1
005BECF2  47A0     		blx r4

#1080		{L:310}
(*) BOOL
005BECF4  F85F 7B2C		ldr r7, [pc, #-2860] ; 0x10
005BECF8  51F0     		str r0, [r6, +r7]

#1081
#1082
#1083
#1084		{L:311}
(*) UNDEF
005BECFA  F85F 7B18		ldr r7, [pc, #-2840] ; 0x54
005BECFE  59F0     		ldr r0, [r6, +r7]

#1085		{L:311}
(-) UDINT
005BED00  4600     		mov r0, r0
005BED02  F85F 4AB8		ldr r4, [pc, #-2744] ; 0x490CBD
005BED06  F044 0401		orr r4, r4, #1
005BED0A  47A0     		blx r4

#1086		{L:311}
(*) INT
005BED0C  F85F 7B00		ldr r7, [pc, #-2816] ; 0x100
005BED10  53F0     		strh r0, [r6, +r7]

#1087		{L:311}
(*) UNDEF
005BED12  F85F 7B30		ldr r7, [pc, #-2864] ; 0x54
005BED16  59F0     		ldr r0, [r6, +r7]

#1088		{L:311}
(-) UDINT
005BED18  4600     		mov r0, r0
005BED1A  F8DF 4664		ldr r4, [pc, #+1636] ; 0x490D6D
005BED1E  F044 0401		orr r4, r4, #1
005BED22  47A0     		blx r4

#1089		{L:311}
(*) UDINT
005BED24  F85F 7B1C		ldr r7, [pc, #-2844] ; 0xFC
005BED28  51F0     		str r0, [r6, +r7]

#1090		{L:311}
(*) UNDEF
005BED2A  F85F 7B20		ldr r7, [pc, #-2848] ; 0xFC
005BED2E  59F0     		ldr r0, [r6, +r7]

#1091		{L:311}
(-) UDINT
#1092		{L:311}
(*) INT
005BED30  F8DF 7628		ldr r7, [pc, #+1576] ; 0x102
005BED34  53F0     		strh r0, [r6, +r7]

#1093		{L:311}
(*) UNDEF
005BED36  F85F 7B28		ldr r7, [pc, #-2856] ; 0x100
005BED3A  5FF0     		ldrsh r0, [r6, +r7]

#1094		{L:311}
(*) INT
005BED3C  F8DF 761C		ldr r7, [pc, #+1564] ; 0x102
005BED40  5FF7     		ldrsh r7, [r6, +r7]
005BED42  42B8     		cmp r0, r7
005BED44  BF08 2000		eqmov r0, #0
005BED48  BF18 2001		nemov r0, #1

#1095		{L:311}
(-) BOOL
005BED4C  2800     		cmp r0, #0
005BED4E  D002     		beq #4 ; 0x005BED56


#1096
#1097
#1098
#1099
#1100
#1101
(-) BOOL
005BED52  F001 B935		b #4714 ; 0x005BFFC0


#1102
#1103
#1104
#1105
#1106		{L:312}
(*) UNDEF
005BED56  F85F 7B94		ldr r7, [pc, #-2964] ; 0x4
005BED5A  59F0     		ldr r0, [r6, +r7]

#1107		{L:312}
(-) @BYTE
005BED5C  F44F 7200		mov r2, #512 ; 512
005BED60  2100     		mov r1, #0 ; 0
005BED62  4600     		mov r0, r0
005BED64  F85F 4B34		ldr r4, [pc, #-2868] ; 0x490795
005BED68  F044 0401		orr r4, r4, #1
005BED6C  47A0     		blx r4

#1108		{L:312}
(*) @USINT
005BED6E  F85F 7BA4		ldr r7, [pc, #-2980] ; 0x10
005BED72  51F0     		str r0, [r6, +r7]

#1109
#1110
#1111		{L:313}
(*) UDINT
005BED74  2064     		mov r0, #100 ; 100
005BED76  F85F 7BB8		ldr r7, [pc, #-3000] ; 0x1
005BED7A  55F0     		strb r0, [r6, +r7]

#1112
(-) USINT
005BED7C  F001 B920		b #4672 ; 0x005BFFC0


#1113
#1114
#1115
#1116		{L:329}
(*) USINT
005BED80  F85F 0264		ldr r0, [pc, #-612] ; 0x5BA1C4

#1117		{L:329}
(*) DWORD
005BED84  F85F 7B84		ldr r7, [pc, #-2948] ; 0xF4
005BED88  51F0     		str r0, [r6, +r7]

#1118		{L:329}
(*) UNDEF
005BED8A  F85F 7BC8		ldr r7, [pc, #-3016] ; 0x4
005BED8E  59F0     		ldr r0, [r6, +r7]

#1119		{L:329}
(-) @BYTE
005BED90  2204     		mov r2, #4 ; 4
005BED92  F85F 7B90		ldr r7, [pc, #-2960] ; 0xF4
005BED96  59F1     		ldr r1, [r6, +r7]
005BED98  4600     		mov r0, r0
005BED9A  F8DF 45E0		ldr r4, [pc, #+1504] ; 0x4908DD
005BED9E  F044 0401		orr r4, r4, #1
005BEDA2  47A0     		blx r4

#1120		{L:329}
(*) @USINT
005BEDA4  F85F 7318		ldr r7, [pc, #-792] ; 0x28
005BEDA8  51F0     		str r0, [r6, +r7]

#1121
#1122
#1123
#1124		{L:330}
(*) UNDEF
005BEDAA  F85F 731C		ldr r7, [pc, #-796] ; 0x28
005BEDAE  59F0     		ldr r0, [r6, +r7]

#1125		{L:330}
(*) @BYTE
005BEDB0  2700     		mov r7, #0 ; 0
005BEDB2  42B8     		cmp r0, r7
005BEDB4  BF18 2000		nemov r0, #0
005BEDB8  BF08 2001		eqmov r0, #1

#1126		{L:330}
(-) BOOL
005BEDBC  2800     		cmp r0, #0
005BEDBE  D002     		beq #4 ; 0x005BEDC6


#1127
#1128
#1129
#1130
#1131
#1132
(-) BOOL
005BEDC2  F001 B8FD		b #4602 ; 0x005BFFC0


#1133
#1134
#1135
#1136
#1137		{L:334}
(*) UNDEF
005BEDC6  F85F 7338		ldr r7, [pc, #-824] ; 0x28
005BEDCA  59F0     		ldr r0, [r6, +r7]

#1138		{L:334}
(*) @BYTE
005BEDCC  F85F 7C0C		ldr r7, [pc, #-3084] ; 0x4
005BEDD0  59F7     		ldr r7, [r6, +r7]
005BEDD2  1BC0     		sub r0, r0, r7

#1139		{L:334}
(*) @BYTE
005BEDD4  F85F 7C08		ldr r7, [pc, #-3080] ; 0x14
005BEDD8  51F0     		str r0, [r6, +r7]

#1140
#1141
#1142		{L:335}
(-) UNDEF
005BEDDA  2041     		mov r0, #65 ; 65

#1143		{L:335}
(-) UDINT
005BEDDC  1E40     		sub r0, r0, #1

#1144		{L:335}
(*) UDINT
005BEDDE  F85F 7C0C		ldr r7, [pc, #-3084] ; 0x18
005BEDE2  51F0     		str r0, [r6, +r7]

#1145
#1146
#1147
#1148		{L:336}
(*) UNDEF
005BEDE4  F85F 7C14		ldr r7, [pc, #-3092] ; 0x18
005BEDE8  59F0     		ldr r0, [r6, +r7]

#1149		{L:336}
(*) UDINT
005BEDEA  F85F 7C1C		ldr r7, [pc, #-3100] ; 0x14
005BEDEE  59F7     		ldr r7, [r6, +r7]
005BEDF0  42B8     		cmp r0, r7
005BEDF2  BF28 2000		hsmov r0, #0
005BEDF6  BF38 2001		lomov r0, #1

#1150		{L:336}
(-) BOOL
005BEDFA  2800     		cmp r0, #0
005BEDFC  D006     		beq #12 ; 0x005BEE0C


#1151
#1152
#1153
#1154
#1155		{L:336}
(*) BOOL
005BEE00  F85F 7C30		ldr r7, [pc, #-3120] ; 0x18
005BEE04  59F0     		ldr r0, [r6, +r7]
005BEE06  F85F 7C38		ldr r7, [pc, #-3128] ; 0x14
005BEE0A  51F0     		str r0, [r6, +r7]

#1156
#1157
#1158
#1159
#1160
#1161		{L:337}
(*) UDINT
005BEE0C  4630     		mov r0, r6
005BEE0E  F85F 7334		ldr r7, [pc, #-820] ; 0xAB
005BEE12  19C0     		add r0, r0, r7

#1162		{L:337}
(*) DWORD
005BEE14  F85F 7C14		ldr r7, [pc, #-3092] ; 0xF4
005BEE18  51F0     		str r0, [r6, +r7]

#1163		{L:337}
(*) UNDEF
005BEE1A  F85F 7C18		ldr r7, [pc, #-3096] ; 0xF4
005BEE1E  59F0     		ldr r0, [r6, +r7]

#1164		{L:337}
(-) @UNDEF
005BEE20  F85F 7C54		ldr r7, [pc, #-3156] ; 0x14
005BEE24  59F2     		ldr r2, [r6, +r7]
005BEE26  F85F 7C64		ldr r7, [pc, #-3172] ; 0x4
005BEE2A  59F1     		ldr r1, [r6, +r7]
005BEE2C  4600     		mov r0, r0
005BEE2E  F85F 4BF8		ldr r4, [pc, #-3064] ; 0x4907E5
005BEE32  F044 0401		orr r4, r4, #1
005BEE36  47A0     		blx r4

#1165		{L:337}
(*) @USINT
005BEE38  F85F 7C70		ldr r7, [pc, #-3184] ; 0x10
005BEE3C  51F0     		str r0, [r6, +r7]

#1166
#1167
#1168
#1169		{L:338}
(*) UNDEF
005BEE3E  F85F 7C68		ldr r7, [pc, #-3176] ; 0x2C
005BEE42  59F0     		ldr r0, [r6, +r7]

#1170		{L:338}
(*) @BYTE
005BEE44  2700     		mov r7, #0 ; 0
005BEE46  42B8     		cmp r0, r7
005BEE48  BF08 2000		eqmov r0, #0
005BEE4C  BF18 2001		nemov r0, #1

#1171		{L:338}
(-) BOOL
005BEE50  2800     		cmp r0, #0
005BEE52  D01D     		beq #58 ; 0x005BEE90


#1172
#1173
#1174
#1175
#1176		{L:338}
(*) BOOL
005BEE56  F8DF 0534		ldr r0, [pc, #+1332] ; 0x5BA21C

#1177		{L:338}
(*) DWORD
005BEE5A  F85F 7C58		ldr r7, [pc, #-3160] ; 0xF4
005BEE5E  51F0     		str r0, [r6, +r7]

#1178		{L:338}
(*) @UNDEF
005BEE60  4630     		mov r0, r6
005BEE62  F85F 7388		ldr r7, [pc, #-904] ; 0xAB
005BEE66  19C0     		add r0, r0, r7

#1179		{L:338}
(*) DWORD
005BEE68  F8DF 74F4		ldr r7, [pc, #+1268] ; 0x104
005BEE6C  51F0     		str r0, [r6, +r7]

#1180		{L:338}
(-) UNDEF
005BEE6E  2001     		mov r0, #1 ; 1

#1181		{L:338}
(-) USINT
005BEE70  F8DF 74EC		ldr r7, [pc, #+1260] ; 0x104
005BEE74  59F3     		ldr r3, [r6, +r7]
005BEE76  F85F 7C74		ldr r7, [pc, #-3188] ; 0xF4
005BEE7A  59F2     		ldr r2, [r6, +r7]
005BEE7C  2102     		mov r1, #2 ; 2
005BEE7E  4600     		mov r0, r0
005BEE80  F85F 4C64		ldr r4, [pc, #-3172] ; 0x48FE35
005BEE84  F044 0401		orr r4, r4, #1
005BEE88  47A0     		blx r4

#1182		{L:338}
(*) BOOL
005BEE8A  F85F 7CC0		ldr r7, [pc, #-3264] ; 0x10
005BEE8E  51F0     		str r0, [r6, +r7]

#1183
#1184
#1185
#1186
#1187
#1188		{L:342}
(*) UNDEF
005BEE90  F44F 7000		mov r0, #512 ; 512

#1189		{L:342}
(*) UINT
005BEE94  F85F 7CC8		ldr r7, [pc, #-3272] ; 0x14
005BEE98  59F7     		ldr r7, [r6, +r7]
005BEE9A  1BC0     		sub r0, r0, r7

#1190		{L:342}
(*) UDINT
005BEE9C  F85F 7C94		ldr r7, [pc, #-3220] ; 0xFC
005BEEA0  51F0     		str r0, [r6, +r7]

#1191		{L:342}
(*) UNDEF
005BEEA2  F85F 7CE0		ldr r7, [pc, #-3296] ; 0x4
005BEEA6  59F0     		ldr r0, [r6, +r7]

#1192		{L:342}
(-) @BYTE
005BEEA8  F85F 7CA0		ldr r7, [pc, #-3232] ; 0xFC
005BEEAC  59F2     		ldr r2, [r6, +r7]
005BEEAE  F85F 7420		ldr r7, [pc, #-1056] ; 0x28
005BEEB2  59F1     		ldr r1, [r6, +r7]
005BEEB4  4600     		mov r0, r0
005BEEB6  F85F 4C80		ldr r4, [pc, #-3200] ; 0x4907E5
005BEEBA  F044 0401		orr r4, r4, #1
005BEEBE  47A0     		blx r4

#1193		{L:342}
(*) @USINT
005BEEC0  F85F 7CF8		ldr r7, [pc, #-3320] ; 0x10
005BEEC4  51F0     		str r0, [r6, +r7]

#1194
#1195
#1196		{L:348}
(*) @USINT
005BEEC6  F85F 7D08		ldr r7, [pc, #-3336] ; 0x1
005BEECA  5DF0     		ldrb r0, [r6, +r7]
005BEECC  F8DF 7478		ldr r7, [pc, #+1144] ; 0x24
005BEED0  51F0     		str r0, [r6, +r7]

#1197
#1198
#1199		{L:349}
(*) USINT
005BEED2  4630     		mov r0, r6
005BEED4  F85F 73FC		ldr r7, [pc, #-1020] ; 0xAB
005BEED8  19C0     		add r0, r0, r7

#1200		{L:349}
(*) DWORD
005BEEDA  F85F 7CD8		ldr r7, [pc, #-3288] ; 0xF4
005BEEDE  51F0     		str r0, [r6, +r7]

#1201		{L:349}
(*) DWORD
005BEEE0  F8DF 04AC		ldr r0, [pc, #+1196] ; 0x5BA220

#1202		{L:349}
(*) DWORD
005BEEE4  F8DF 7478		ldr r7, [pc, #+1144] ; 0x104
005BEEE8  51F0     		str r0, [r6, +r7]

#1203		{L:349}
(*) UNDEF
005BEEEA  F85F 7CE8		ldr r7, [pc, #-3304] ; 0xF4
005BEEEE  59F0     		ldr r0, [r6, +r7]

#1204		{L:349}
(-) @UNDEF
005BEEF0  2204     		mov r2, #4 ; 4
005BEEF2  F8DF 746C		ldr r7, [pc, #+1132] ; 0x104
005BEEF6  59F1     		ldr r1, [r6, +r7]
005BEEF8  4600     		mov r0, r0
005BEEFA  F8DF 4480		ldr r4, [pc, #+1152] ; 0x4908DD
005BEEFE  F044 0401		orr r4, r4, #1
005BEF02  47A0     		blx r4

#1205		{L:349}
(*) @USINT
005BEF04  F85F 7478		ldr r7, [pc, #-1144] ; 0x28
005BEF08  51F0     		str r0, [r6, +r7]

#1206
#1207
#1208
#1209		{L:350}
(*) UNDEF
005BEF0A  F85F 747C		ldr r7, [pc, #-1148] ; 0x28
005BEF0E  59F0     		ldr r0, [r6, +r7]

#1210		{L:350}
(*) @BYTE
005BEF10  2700     		mov r7, #0 ; 0
005BEF12  42B8     		cmp r0, r7
005BEF14  BF08 2000		eqmov r0, #0
005BEF18  BF18 2001		nemov r0, #1

#1211		{L:350}
(-) BOOL
005BEF1C  2800     		cmp r0, #0
005BEF1E  D004     		beq #8 ; 0x005BEF2A


#1212
#1213
#1214
#1215
#1216		{L:350}
(*) BOOL
005BEF22  206E     		mov r0, #110 ; 110
005BEF24  F8DF 7420		ldr r7, [pc, #+1056] ; 0x24
005BEF28  51F0     		str r0, [r6, +r7]

#1217
#1218
#1219
#1220
#1221
#1222		{L:351}
(*) UNDEF
005BEF2A  F85F 7D6C		ldr r7, [pc, #-3436] ; 0x1
005BEF2E  5DF0     		ldrb r0, [r6, +r7]

#1223		{L:351}
(-) USINT
005BEF30  1C40     		add r0, r0, #1

#1224		{L:351}
(*) USINT
005BEF32  F85F 7D74		ldr r7, [pc, #-3444] ; 0x1
005BEF36  55F0     		strb r0, [r6, +r7]

#1225
(-) USINT
005BEF38  F001 B842		b #4228 ; 0x005BFFC0


#1226
#1227
#1228
#1229
#1230		{L:357}
(-) UNDEF
005BEF3C  2001     		mov r0, #1 ; 1

#1231		{L:357}
(-) BOOL
005BEF3E  2800     		cmp r0, #0
005BEF40  F000 8107		beq #526 ; 0x005BF152


#1232
#1233
#1234
#1235		{L:358}
(*) BOOL
005BEF44  F85F 0428		ldr r0, [pc, #-1064] ; 0x5BA1C4

#1236		{L:358}
(*) DWORD
005BEF48  F85F 7D48		ldr r7, [pc, #-3400] ; 0xF4
005BEF4C  51F0     		str r0, [r6, +r7]

#1237		{L:358}
(*) UNDEF
005BEF4E  F85F 7D8C		ldr r7, [pc, #-3468] ; 0x4
005BEF52  59F0     		ldr r0, [r6, +r7]

#1238		{L:358}
(-) @BYTE
005BEF54  2204     		mov r2, #4 ; 4
005BEF56  F85F 7D54		ldr r7, [pc, #-3412] ; 0xF4
005BEF5A  59F1     		ldr r1, [r6, +r7]
005BEF5C  4600     		mov r0, r0
005BEF5E  F8DF 441C		ldr r4, [pc, #+1052] ; 0x4908DD
005BEF62  F044 0401		orr r4, r4, #1
005BEF66  47A0     		blx r4

#1239		{L:358}
(*) @USINT
005BEF68  F85F 74DC		ldr r7, [pc, #-1244] ; 0x28
005BEF6C  51F0     		str r0, [r6, +r7]

#1240
#1241
#1242
#1243		{L:359}
(*) UNDEF
005BEF6E  F85F 74E0		ldr r7, [pc, #-1248] ; 0x28
005BEF72  59F0     		ldr r0, [r6, +r7]

#1244		{L:359}
(*) @BYTE
005BEF74  2700     		mov r7, #0 ; 0
005BEF76  42B8     		cmp r0, r7
005BEF78  BF18 2000		nemov r0, #0
005BEF7C  BF08 2001		eqmov r0, #1

#1245		{L:359}
(-) BOOL
005BEF80  2800     		cmp r0, #0
005BEF82  D002     		beq #4 ; 0x005BEF8A


#1246
#1247
#1248
#1249
#1250
#1251
(-) BOOL
005BEF86  F001 B81B		b #4150 ; 0x005BFFC0


#1252
#1253
#1254
#1255
#1256		{L:364}
(*) UNDEF
005BEF8A  F85F 74FC		ldr r7, [pc, #-1276] ; 0x28
005BEF8E  59F0     		ldr r0, [r6, +r7]

#1257		{L:364}
(*) @BYTE
005BEF90  F85F 7DD0		ldr r7, [pc, #-3536] ; 0x4
005BEF94  59F7     		ldr r7, [r6, +r7]
005BEF96  1BC0     		sub r0, r0, r7

#1258		{L:364}
(*) @BYTE
005BEF98  F85F 7DCC		ldr r7, [pc, #-3532] ; 0x14
005BEF9C  51F0     		str r0, [r6, +r7]

#1259
#1260
#1261
#1262		{L:365}
(*) UNDEF
005BEF9E  F85F 7DD0		ldr r7, [pc, #-3536] ; 0x14
005BEFA2  59F0     		ldr r0, [r6, +r7]

#1263		{L:365}
(*) UDINT
005BEFA4  2802     		cmp r0, #2
005BEFA6  BF18 2000		nemov r0, #0
005BEFAA  BF08 2001		eqmov r0, #1

#1264		{L:365}
(-) BOOL
005BEFAE  2800     		cmp r0, #0
005BEFB0  D039     		beq #114 ; 0x005BF026


#1265
#1266
#1267
#1268
#1269		{L:366}
(*) UNDEF
005BEFB4  F44F 7000		mov r0, #512 ; 512

#1270		{L:366}
(*) UINT
005BEFB8  F85F 7DEC		ldr r7, [pc, #-3564] ; 0x14
005BEFBC  59F7     		ldr r7, [r6, +r7]
005BEFBE  1BC0     		sub r0, r0, r7

#1271		{L:366}
(*) UDINT
005BEFC0  F85F 7DB8		ldr r7, [pc, #-3512] ; 0xFC
005BEFC4  51F0     		str r0, [r6, +r7]

#1272		{L:366}
(*) UNDEF
005BEFC6  F85F 7E04		ldr r7, [pc, #-3588] ; 0x4
005BEFCA  59F0     		ldr r0, [r6, +r7]

#1273		{L:366}
(-) @BYTE
005BEFCC  F85F 7DC4		ldr r7, [pc, #-3524] ; 0xFC
005BEFD0  59F2     		ldr r2, [r6, +r7]
005BEFD2  F85F 7544		ldr r7, [pc, #-1348] ; 0x28
005BEFD6  59F1     		ldr r1, [r6, +r7]
005BEFD8  4600     		mov r0, r0
005BEFDA  F85F 4DA4		ldr r4, [pc, #-3492] ; 0x4907E5
005BEFDE  F044 0401		orr r4, r4, #1
005BEFE2  47A0     		blx r4

#1274		{L:366}
(*) @USINT
005BEFE4  F85F 7E1C		ldr r7, [pc, #-3612] ; 0x10
005BEFE8  51F0     		str r0, [r6, +r7]

#1275
#1276
#1277
#1278		{L:371}
(*) UNDEF
005BEFEA  F8DF 735C		ldr r7, [pc, #+860] ; 0x24
005BEFEE  59F0     		ldr r0, [r6, +r7]

#1279		{L:371}
(*) UDINT
005BEFF0  F85F 7E34		ldr r7, [pc, #-3636] ; 0x1
005BEFF4  5DF7     		ldrb r7, [r6, +r7]
005BEFF6  42B8     		cmp r0, r7
005BEFF8  BF18 2000		nemov r0, #0
005BEFFC  BF08 2001		eqmov r0, #1

#1280		{L:371}
(-) BOOL
005BF000  2800     		cmp r0, #0
005BF002  D008     		beq #16 ; 0x005BF016


#1281
#1282
#1283
#1284
#1285		{L:371}
(*) BOOL
005BF006  F8DF 738C		ldr r7, [pc, #+908] ; 0x5BA22C
005BF00A  6838     		ldr r0, [r7]
005BF00C  F85F 7E48		ldr r7, [pc, #-3656] ; 0x8
005BF010  51F0     		str r0, [r6, +r7]

#1286
#1287
#1288
#1289
(-) UDINT
005BF012  F000 BFD5		b #4010 ; 0x005BFFC0


#1290
#1291
#1292
#1293
#1294		{L:372}
(*) UNDEF
005BF016  F8DF 7330		ldr r7, [pc, #+816] ; 0x24
005BF01A  59F0     		ldr r0, [r6, +r7]

#1295		{L:372}
(-) UDINT
#1296		{L:372}
(*) USINT
005BF01C  F85F 7E60		ldr r7, [pc, #-3680] ; 0x1
005BF020  55F0     		strb r0, [r6, +r7]

#1297
#1298
#1299
#1300
(-) USINT
005BF022  F000 BFCD		b #3994 ; 0x005BFFC0


#1301
#1302
#1303
#1304
#1305
#1306		{L:379}
(*) USINT
005BF026  F8DF 0370		ldr r0, [pc, #+880] ; 0x5BA230

#1307		{L:379}
(*) DWORD
005BF02A  F85F 7E28		ldr r7, [pc, #-3624] ; 0xF4
005BF02E  51F0     		str r0, [r6, +r7]

#1308		{L:379}
(*) UNDEF
005BF030  F85F 7E70		ldr r7, [pc, #-3696] ; 0x4
005BF034  59F0     		ldr r0, [r6, +r7]

#1309		{L:379}
(-) @BYTE
005BF036  2200     		mov r2, #0 ; 0
005BF038  F85F 7E38		ldr r7, [pc, #-3640] ; 0xF4
005BF03C  59F1     		ldr r1, [r6, +r7]
005BF03E  4600     		mov r0, r0
005BF040  F8DF 4338		ldr r4, [pc, #+824] ; 0x4908DD
005BF044  F044 0401		orr r4, r4, #1
005BF048  47A0     		blx r4

#1310		{L:379}
(*) @USINT
005BF04A  2700     		mov r7, #0 ; 0
005BF04C  42B8     		cmp r0, r7
005BF04E  BF08 2000		eqmov r0, #0
005BF052  BF18 2001		nemov r0, #1

#1311		{L:379}
(-) BOOL
005BF056  2800     		cmp r0, #0
005BF058  D040     		beq #128 ; 0x005BF0DC


#1312
#1313
#1314
#1315
#1316
#1317		{L:380}
(*) BOOL
005BF05C  F8DF 033C		ldr r0, [pc, #+828] ; 0x5BA240

#1318		{L:380}
(*) DWORD
005BF060  F85F 7E60		ldr r7, [pc, #-3680] ; 0xF4
005BF064  51F0     		str r0, [r6, +r7]

#1319		{L:380}
(*) UNDEF
005BF066  F85F 7EA4		ldr r7, [pc, #-3748] ; 0x4
005BF06A  59F0     		ldr r0, [r6, +r7]

#1320		{L:380}
(-) @BYTE
005BF06C  2204     		mov r2, #4 ; 4
005BF06E  F85F 7E6C		ldr r7, [pc, #-3692] ; 0xF4
005BF072  59F1     		ldr r1, [r6, +r7]
005BF074  4600     		mov r0, r0
005BF076  F8DF 4304		ldr r4, [pc, #+772] ; 0x4908DD
005BF07A  F044 0401		orr r4, r4, #1
005BF07E  47A0     		blx r4

#1321		{L:380}
(*) @USINT
005BF080  F8DF 72DC		ldr r7, [pc, #+732] ; 0x104
005BF084  51F0     		str r0, [r6, +r7]

#1322		{L:380}
(*) @USINT
005BF086  4630     		mov r0, r6
005BF088  F8DF 72B8		ldr r7, [pc, #+696] ; 0x20
005BF08C  19C0     		add r0, r0, r7

#1323		{L:380}
(*) DWORD
005BF08E  F8DF 72D4		ldr r7, [pc, #+724] ; 0x108
005BF092  51F0     		str r0, [r6, +r7]

#1324		{L:380}
(*) UNDEF
005BF094  F8DF 72C8		ldr r7, [pc, #+712] ; 0x104
005BF098  59F0     		ldr r0, [r6, +r7]

#1325		{L:380}
(-) @UNDEF
005BF09A  F8DF 72C8		ldr r7, [pc, #+712] ; 0x108
005BF09E  59F3     		ldr r3, [r6, +r7]
005BF0A0  222A     		mov r2, #42 ; 42
005BF0A2  F8DF 72FC		ldr r7, [pc, #+764] ; 0x5BA250
005BF0A6  4639     		mov r1, r7
005BF0A8  4600     		mov r0, r0
005BF0AA  F8DF 42C4		ldr r4, [pc, #+708] ; 0x48FBB1
005BF0AE  F044 0401		orr r4, r4, #1
005BF0B2  47A0     		blx r4

#1326		{L:380}
(*) BOOL
005BF0B4  2800     		cmp r0, #0
005BF0B6  BF08 2001		eqmov r0, #1
005BF0BA  BF18 2000		nemov r0, #0

#1327		{L:380}
(-) BOOL
005BF0BE  2800     		cmp r0, #0
005BF0C0  D008     		beq #16 ; 0x005BF0D4


#1328
#1329
#1330
#1331
#1332		{L:380}
(*) BOOL
005BF0C4  F8DF 72DC		ldr r7, [pc, #+732] ; 0x5BA254
005BF0C8  6838     		ldr r0, [r7]
005BF0CA  F85F 7F04		ldr r7, [pc, #-3844] ; 0x8
005BF0CE  51F0     		str r0, [r6, +r7]

#1333
#1334
#1335
#1336
(-) UDINT
005BF0D0  F000 BF76		b #3820 ; 0x005BFFC0


#1337
#1338
#1339
#1340
#1341		{L:381}
(*) UDINT
005BF0D4  2078     		mov r0, #120 ; 120
005BF0D6  F8DF 7270		ldr r7, [pc, #+624] ; 0x24
005BF0DA  51F0     		str r0, [r6, +r7]

#1342
#1343
#1344
#1345
#1346
#1347
#1348		{L:387}
(*) UDINT
005BF0DC  F8DF 02C8		ldr r0, [pc, #+712] ; 0x5BA258

#1349		{L:387}
(*) DWORD
005BF0E0  F85F 7EE0		ldr r7, [pc, #-3808] ; 0xF4
005BF0E4  51F0     		str r0, [r6, +r7]

#1350		{L:387}
(*) UNDEF
005BF0E6  F85F 7F24		ldr r7, [pc, #-3876] ; 0x4
005BF0EA  59F0     		ldr r0, [r6, +r7]

#1351		{L:387}
(-) @BYTE
005BF0EC  2200     		mov r2, #0 ; 0
005BF0EE  F85F 7EEC		ldr r7, [pc, #-3820] ; 0xF4
005BF0F2  59F1     		ldr r1, [r6, +r7]
005BF0F4  4600     		mov r0, r0
005BF0F6  F8DF 4284		ldr r4, [pc, #+644] ; 0x4908DD
005BF0FA  F044 0401		orr r4, r4, #1
005BF0FE  47A0     		blx r4

#1352		{L:387}
(*) @USINT
005BF100  2700     		mov r7, #0 ; 0
005BF102  42B8     		cmp r0, r7
005BF104  BF08 2000		eqmov r0, #0
005BF108  BF18 2001		nemov r0, #1

#1353		{L:387}
(-) BOOL
005BF10C  2800     		cmp r0, #0
005BF10E  D004     		beq #8 ; 0x005BF11A


#1354
#1355
#1356
#1357
#1358		{L:388}
(*) BOOL
005BF112  2096     		mov r0, #150 ; 150
005BF114  F8DF 7230		ldr r7, [pc, #+560] ; 0x24
005BF118  51F0     		str r0, [r6, +r7]

#1359
#1360
#1361
#1362
#1363
#1364		{L:393}
(*) UNDEF
005BF11A  F44F 7000		mov r0, #512 ; 512

#1365		{L:393}
(*) UINT
005BF11E  F85F 7F50		ldr r7, [pc, #-3920] ; 0x14
005BF122  59F7     		ldr r7, [r6, +r7]
005BF124  1BC0     		sub r0, r0, r7

#1366		{L:393}
(*) UDINT
005BF126  F85F 7F1C		ldr r7, [pc, #-3868] ; 0xFC
005BF12A  51F0     		str r0, [r6, +r7]

#1367		{L:393}
(*) UNDEF
005BF12C  F85F 7F6C		ldr r7, [pc, #-3948] ; 0x4
005BF130  59F0     		ldr r0, [r6, +r7]

#1368		{L:393}
(-) @BYTE
005BF132  F85F 7F28		ldr r7, [pc, #-3880] ; 0xFC
005BF136  59F2     		ldr r2, [r6, +r7]
005BF138  F85F 76AC		ldr r7, [pc, #-1708] ; 0x28
005BF13C  59F1     		ldr r1, [r6, +r7]
005BF13E  4600     		mov r0, r0
005BF140  F85F 4F0C		ldr r4, [pc, #-3852] ; 0x4907E5
005BF144  F044 0401		orr r4, r4, #1
005BF148  47A0     		blx r4

#1369		{L:393}
(*) @USINT
005BF14A  F85F 7F80		ldr r7, [pc, #-3968] ; 0x10
005BF14E  51F0     		str r0, [r6, +r7]

#1370
(-) @USINT
005BF150  E6F4     		b #-536 ; 0x005BEF3C

#1371
#1372
#1373
#1374
(-) @USINT
005BF152  F000 BF35		b #3690 ; 0x005BFFC0


#1375
#1376
#1377
#1378		{L:408}
(*) @USINT
005BF156  2000     		mov r0, #0 ; 0
005BF158  F8DF 71F4		ldr r7, [pc, #+500] ; 0xEC
005BF15C  51F0     		str r0, [r6, +r7]

#1379
#1380
#1381		{L:409}
(*) UNDEF
005BF15E  F85F 7FA0		ldr r7, [pc, #-4000] ; 0x1
005BF162  5DF0     		ldrb r0, [r6, +r7]

#1382		{L:409}
(-) USINT
005BF164  1C40     		add r0, r0, #1

#1383		{L:409}
(*) USINT
005BF166  F85F 7FA8		ldr r7, [pc, #-4008] ; 0x1
005BF16A  55F0     		strb r0, [r6, +r7]

#1384
#1385
#1386
#1387		{L:413}
(*) UNDEF
005BF16C  F85F 7F98		ldr r7, [pc, #-3992] ; 0x2C
005BF170  59F0     		ldr r0, [r6, +r7]

#1388		{L:413}
(*) @BYTE
005BF172  2700     		mov r7, #0 ; 0
005BF174  42B8     		cmp r0, r7
005BF176  BF08 2000		eqmov r0, #0
005BF17A  BF18 2001		nemov r0, #1

#1389		{L:413}
(-) BOOL
005BF17E  2800     		cmp r0, #0
005BF180  D01C     		beq #56 ; 0x005BF1BC


#1390
#1391
#1392
#1393
#1394		{L:414}
(*) BOOL
005BF184  F8DF 0224		ldr r0, [pc, #+548] ; 0x5BA278

#1395		{L:414}
(*) DWORD
005BF188  F85F 7F88		ldr r7, [pc, #-3976] ; 0xF4
005BF18C  51F0     		str r0, [r6, +r7]

#1396		{L:414}
(*) @UNDEF
005BF18E  F8DF 0220		ldr r0, [pc, #+544] ; 0x5BA27C

#1397		{L:414}
(*) DWORD
005BF192  F8DF 71CC		ldr r7, [pc, #+460] ; 0x104
005BF196  51F0     		str r0, [r6, +r7]

#1398		{L:414}
(-) UNDEF
005BF198  2001     		mov r0, #1 ; 1

#1399		{L:414}
(-) USINT
005BF19A  F8DF 71C4		ldr r7, [pc, #+452] ; 0x104
005BF19E  59F3     		ldr r3, [r6, +r7]
005BF1A0  F85F 7FA0		ldr r7, [pc, #-4000] ; 0xF4
005BF1A4  59F2     		ldr r2, [r6, +r7]
005BF1A6  F04F 6100		mov r1, #134217728 ; 134217728
005BF1AA  4600     		mov r0, r0
005BF1AC  F85F 4F90		ldr r4, [pc, #-3984] ; 0x48FE35
005BF1B0  F044 0401		orr r4, r4, #1
005BF1B4  47A0     		blx r4

#1400		{L:414}
(*) BOOL
005BF1B6  F85F 7FEC		ldr r7, [pc, #-4076] ; 0x10
005BF1BA  51F0     		str r0, [r6, +r7]

#1401
#1402
#1403
#1404
(-) UDINT
005BF1BC  F000 BF00		b #3584 ; 0x005BFFC0


#1405
#1406
#1407
#1408		{L:421}
(*) UNDEF
005BF1C0  F8DF 7174		ldr r7, [pc, #+372] ; 0x4
005BF1C4  59F0     		ldr r0, [r6, +r7]

#1409		{L:421}
(-) @BYTE
005BF1C6  4600     		mov r0, r0
005BF1C8  F85F 4F90		ldr r4, [pc, #-3984] ; 0x4909F1
005BF1CC  F044 0401		orr r4, r4, #1
005BF1D0  47A0     		blx r4

#1410		{L:421}
(*) UDINT
005BF1D2  F8DF 716C		ldr r7, [pc, #+364] ; 0x1C
005BF1D6  51F0     		str r0, [r6, +r7]

#1411
#1412
#1413
#1414		{L:422}
(*) UNDEF
005BF1D8  F8DF 7164		ldr r7, [pc, #+356] ; 0x1C
005BF1DC  59F0     		ldr r0, [r6, +r7]

#1415		{L:422}
(*) UDINT
005BF1DE  2800     		cmp r0, #0
005BF1E0  BF18 2000		nemov r0, #0
005BF1E4  BF08 2001		eqmov r0, #1

#1416		{L:422}
(-) BOOL
005BF1E8  2800     		cmp r0, #0
005BF1EA  D002     		beq #4 ; 0x005BF1F2


#1417
#1418
#1419
#1420
#1421
#1422
(-) BOOL
005BF1EE  F000 BEE7		b #3534 ; 0x005BFFC0


#1423
#1424
#1425
#1426
#1427		{L:423}
(*) UNDEF
005BF1F2  F8DF 7140		ldr r7, [pc, #+320] ; 0x1
005BF1F6  5DF0     		ldrb r0, [r6, +r7]

#1428		{L:423}
(-) USINT
005BF1F8  1C40     		add r0, r0, #1

#1429		{L:423}
(-) USINT
005BF1FA  7030     		strb r0, [r6]

#1430
#1431
#1432		{L:424}
(*) USINT
005BF1FC  20C8     		mov r0, #200 ; 200
005BF1FE  F8DF 7134		ldr r7, [pc, #+308] ; 0x1
005BF202  55F0     		strb r0, [r6, +r7]

#1433
#1434
#1435
#1436		{L:428}
(*) UNDEF
005BF204  F8DF 7144		ldr r7, [pc, #+324] ; 0x2C
005BF208  59F0     		ldr r0, [r6, +r7]

#1437		{L:428}
(*) @BYTE
005BF20A  2700     		mov r7, #0 ; 0
005BF20C  42B8     		cmp r0, r7
005BF20E  BF08 2000		eqmov r0, #0
005BF212  BF18 2001		nemov r0, #1

#1438		{L:428}
(-) BOOL
005BF216  2800     		cmp r0, #0
005BF218  D059     		beq #178 ; 0x005BF2CE


#1439
#1440
#1441
#1442
#1443		{L:429}
(*) BOOL
005BF21C  4630     		mov r0, r6
005BF21E  F8DF 7120		ldr r7, [pc, #+288] ; 0x1C
005BF222  19C0     		add r0, r0, r7

#1444		{L:429}
(*) DWORD
005BF224  F8DF 712C		ldr r7, [pc, #+300] ; 0xF4
005BF228  51F0     		str r0, [r6, +r7]

#1445		{L:429}
(*) UNDEF
005BF22A  F8DF 7120		ldr r7, [pc, #+288] ; 0x2C
005BF22E  59F0     		ldr r0, [r6, +r7]

#1446		{L:429}
(-) @BYTE
005BF230  B082     		sub sp, sp, #8
005BF232  F8DF 7120		ldr r7, [pc, #+288] ; 0xF4
005BF236  59F7     		ldr r7, [r6, +r7]
005BF238  F8CD 7000		str r7, [sp]
005BF23C  232A     		mov r3, #42 ; 42
005BF23E  F8DF 7174		ldr r7, [pc, #+372] ; 0x5BA2A0
005BF242  463A     		mov r2, r7
005BF244  2180     		mov r1, #128 ; 128
005BF246  4600     		mov r0, r0
005BF248  F8DF 411C		ldr r4, [pc, #+284] ; 0x48F96D
005BF24C  F044 0401		orr r4, r4, #1
005BF250  47A0     		blx r4
005BF252  B002     		add sp, sp, #8

#1447		{L:429}
(*) INT
005BF254  F8DF 70E4		ldr r7, [pc, #+228] ; 0x10
005BF258  51F0     		str r0, [r6, +r7]

#1448
#1449
#1450		{L:430}
(*) UNDEF
005BF25A  F8DF 70DC		ldr r7, [pc, #+220] ; 0x4
005BF25E  59F0     		ldr r0, [r6, +r7]

#1451		{L:430}
(*) @BYTE
005BF260  F8DF 70DC		ldr r7, [pc, #+220] ; 0x1C
005BF264  59F7     		ldr r7, [r6, +r7]
005BF266  19C0     		add r0, r0, r7

#1452		{L:430}
(-) @BYTE
005BF268  3814     		sub r0, r0, #20

#1453		{L:430}
(*) @BYTE
005BF26A  F8DF 70E8		ldr r7, [pc, #+232] ; 0xF4
005BF26E  51F0     		str r0, [r6, +r7]

#1454		{L:430}
(*) UNDEF
005BF270  F8DF 70D8		ldr r7, [pc, #+216] ; 0x2C
005BF274  59F0     		ldr r0, [r6, +r7]

#1455		{L:430}
(-) @BYTE
005BF276  B082     		sub sp, sp, #8
005BF278  F8DF 70D8		ldr r7, [pc, #+216] ; 0xF4
005BF27C  59F7     		ldr r7, [r6, +r7]
005BF27E  F8CD 7000		str r7, [sp]
005BF282  2332     		mov r3, #50 ; 50
005BF284  F8DF 7130		ldr r7, [pc, #+304] ; 0x5BA2B0
005BF288  463A     		mov r2, r7
005BF28A  2180     		mov r1, #128 ; 128
005BF28C  4600     		mov r0, r0
005BF28E  F8DF 40DC		ldr r4, [pc, #+220] ; 0x48FB19
005BF292  F044 0401		orr r4, r4, #1
005BF296  47A0     		blx r4
005BF298  B002     		add sp, sp, #8

#1456		{L:430}
(*) INT
005BF29A  F8DF 70A0		ldr r7, [pc, #+160] ; 0x10
005BF29E  51F0     		str r0, [r6, +r7]

#1457
#1458
#1459		{L:431}
(*) INT
005BF2A0  F8DF 0108		ldr r0, [pc, #+264] ; 0x5BA278

#1460		{L:431}
(*) DWORD
005BF2A4  F8DF 70AC		ldr r7, [pc, #+172] ; 0xF4
005BF2A8  51F0     		str r0, [r6, +r7]

#1461		{L:431}
(-) UNDEF
005BF2AA  2001     		mov r0, #1 ; 1

#1462		{L:431}
(-) USINT
005BF2AC  F8DF 709C		ldr r7, [pc, #+156] ; 0x2C
005BF2B0  59F3     		ldr r3, [r6, +r7]
005BF2B2  F8DF 70A0		ldr r7, [pc, #+160] ; 0xF4
005BF2B6  59F2     		ldr r2, [r6, +r7]
005BF2B8  F04F 6100		mov r1, #134217728 ; 134217728
005BF2BC  4600     		mov r0, r0
005BF2BE  F8DF 40B4		ldr r4, [pc, #+180] ; 0x48FE35
005BF2C2  F044 0401		orr r4, r4, #1
005BF2C6  47A0     		blx r4

#1463		{L:431}
(*) BOOL
005BF2C8  F8DF 7070		ldr r7, [pc, #+112] ; 0x10
005BF2CC  51F0     		str r0, [r6, +r7]

#1464
#1465
#1466
#1467
(-) UDINT
005BF2CE  F000 BE77		b #3310 ; 0x005BFFC0


#1468
#1469
#1470
#1471		{L:438}
(*) UNDEF
005BF2D2  F8DF 7064		ldr r7, [pc, #+100] ; 0x4
005BF2D6  59F0     		ldr r0, [r6, +r7]

#1472		{L:438}
(*) @BYTE
005BF2D8  F8DF 7064		ldr r7, [pc, #+100] ; 0x1C
005BF2DC  59F7     		ldr r7, [r6, +r7]
005BF2DE  19C0     		add r0, r0, r7

#1473		{L:438}
(*) @BYTE
005BF2E0  F8DF 7070		ldr r7, [pc, #+112] ; 0xF4
005BF2E4  51F0     		str r0, [r6, +r7]

#1474		{L:438}
(*) UNDEF
005BF2E6  F44F 7000		mov r0, #512 ; 512

#1475		{L:438}
(*) UINT
005BF2EA  F8DF 7054		ldr r7, [pc, #+84] ; 0x1C
005BF2EE  59F7     		ldr r7, [r6, +r7]
005BF2F0  1BC0     		sub r0, r0, r7

#1476		{L:438}
(*) UDINT
005BF2F2  F8DF 7064		ldr r7, [pc, #+100] ; 0xFC
005BF2F6  51F0     		str r0, [r6, +r7]

#1477		{L:438}
(*) UNDEF
005BF2F8  F8DF 703C		ldr r7, [pc, #+60] ; 0x4
005BF2FC  59F0     		ldr r0, [r6, +r7]

#1478		{L:438}
(-) @BYTE
005BF2FE  F8DF 7058		ldr r7, [pc, #+88] ; 0xFC
005BF302  59F2     		ldr r2, [r6, +r7]
005BF304  F8DF 704C		ldr r7, [pc, #+76] ; 0xF4
005BF308  59F1     		ldr r1, [r6, +r7]
005BF30A  4600     		mov r0, r0
005BF30C  F8DF 4068		ldr r4, [pc, #+104] ; 0x4907E5
005BF310  F044 0401		orr r4, r4, #1
005BF314  47A0     		blx r4

#1479		{L:438}
(*) @USINT
005BF316  F8DF 7024		ldr r7, [pc, #+36] ; 0x10
005BF31A  51F0     		str r0, [r6, +r7]

#1480
#1481
#1482
#1483		{L:439}
(*) UNDEF
005BF31C  F85F 786C		ldr r7, [pc, #-2156] ; 0x52
005BF320  5DF0     		ldrb r0, [r6, +r7]

#1484		{L:439}
(-) BOOL
005BF322  2800     		cmp r0, #0
005BF324  D04F     		beq #158 ; 0x005BF3C6


#1485
#1486
#1487
#1488
#1489		{L:439}
(*) UNDEF
005BF328  F8DF 7008		ldr r7, [pc, #+8] ; 0x1
005BF32C  5DF0     		ldrb r0, [r6, +r7]

#1490		{L:439}
(-) USINT
005BF32E  1E40     		sub r0, r0, #1

005BF330  E044     		b #136

005BF334  00000001		; 0x00000001
005BF338  00000004		; 0x00000004
005BF33C  00000010		; 0x00000010
005BF340  0000001C		; 0x0000001C
005BF344  00000020		; 0x00000020
005BF348  00000024		; 0x00000024
005BF34C  0000002C		; 0x0000002C
005BF350  000000EC		; 0x000000EC
005BF354  000000F4		; 0x000000F4
005BF358  000000FC		; 0x000000FC
005BF35C  00000102		; 0x00000102
005BF360  00000104		; 0x00000104
005BF364  00000108		; 0x00000108
005BF368  0048F96D		; 0x0048F96D
005BF36C  0048FB19		; 0x0048FB19
005BF370  0048FBB1		; 0x0048FBB1
005BF374  0048FE35		; 0x0048FE35
005BF378  004907E5		; 0x004907E5
005BF37C  004908DD		; 0x004908DD
005BF380  00490D6D		; 0x00490D6D
005BF384  00490E75		; 0x00490E75
005BF388  005BA218		; 0x005BA218
005BF38C  005BA21C		; 0x005BA21C
005BF390  005BA220		; 0x005BA220
005BF394  005BA22C		; 0x005BA22C
005BF398  005BA230		; 0x005BA230
005BF39C  005BA240		; 0x005BA240
005BF3A0  005BA250		; 0x005BA250
005BF3A4  005BA254		; 0x005BA254
005BF3A8  005BA258		; 0x005BA258
005BF3AC  005BA278		; 0x005BA278
005BF3B0  005BA27C		; 0x005BA27C
005BF3B4  005BA2A0		; 0x005BA2A0
005BF3B8  005BA2B0		; 0x005BA2B0

#1491		{L:439}
(*) USINT
005BF3BC  F85F 708C		ldr r7, [pc, #-140] ; 0x1
005BF3C0  55F0     		strb r0, [r6, +r7]

#1492
#1493
#1494
#1495
(-) USINT
005BF3C2  F000 BDFD		b #3066 ; 0x005BFFC0


#1496
#1497
#1498
#1499
#1500		{L:440}
(*) USINT
005BF3C6  20FA     		mov r0, #250 ; 250
005BF3C8  F85F 7098		ldr r7, [pc, #-152] ; 0x1
005BF3CC  55F0     		strb r0, [r6, +r7]

#1501
(-) USINT
005BF3CE  F000 BDF7		b #3054 ; 0x005BFFC0


#1502
#1503
#1504
#1505		{L:454}
(*) USINT
005BF3D2  2000     		mov r0, #0 ; 0
005BF3D4  F85F 7088		ldr r7, [pc, #-136] ; 0xEC
005BF3D8  51F0     		str r0, [r6, +r7]

#1506
#1507
#1508		{L:455}
(*) UNDEF
005BF3DA  F85F 70A8		ldr r7, [pc, #-168] ; 0x1
005BF3DE  5DF0     		ldrb r0, [r6, +r7]

#1509		{L:455}
(-) USINT
005BF3E0  1C40     		add r0, r0, #1

#1510		{L:455}
(*) USINT
005BF3E2  F85F 70B0		ldr r7, [pc, #-176] ; 0x1
005BF3E6  55F0     		strb r0, [r6, +r7]

#1511
#1512
#1513
#1514		{L:459}
(*) UNDEF
005BF3E8  F85F 70A0		ldr r7, [pc, #-160] ; 0x2C
005BF3EC  59F0     		ldr r0, [r6, +r7]

#1515		{L:459}
(*) @BYTE
005BF3EE  2700     		mov r7, #0 ; 0
005BF3F0  42B8     		cmp r0, r7
005BF3F2  BF08 2000		eqmov r0, #0
005BF3F6  BF18 2001		nemov r0, #1

#1516		{L:459}
(-) BOOL
005BF3FA  2800     		cmp r0, #0
005BF3FC  D036     		beq #108 ; 0x005BF46C


#1517
#1518
#1519
#1520
#1521		{L:460}
(*) BOOL
005BF400  4630     		mov r0, r6
005BF402  F85F 70C0		ldr r7, [pc, #-192] ; 0x20
005BF406  19C0     		add r0, r0, r7

#1522		{L:460}
(*) DWORD
005BF408  F85F 70B8		ldr r7, [pc, #-184] ; 0xF4
005BF40C  51F0     		str r0, [r6, +r7]

#1523		{L:460}
(*) UNDEF
005BF40E  F85F 70C4		ldr r7, [pc, #-196] ; 0x2C
005BF412  59F0     		ldr r0, [r6, +r7]

#1524		{L:460}
(-) @BYTE
005BF414  B082     		sub sp, sp, #8
005BF416  F85F 70C4		ldr r7, [pc, #-196] ; 0xF4
005BF41A  59F7     		ldr r7, [r6, +r7]
005BF41C  F8CD 7000		str r7, [sp]
005BF420  232A     		mov r3, #42 ; 42
005BF422  F8DF 77B0		ldr r7, [pc, #+1968] ; 0x5BA2BC
005BF426  463A     		mov r2, r7
005BF428  2180     		mov r1, #128 ; 128
005BF42A  4600     		mov r0, r0
005BF42C  F85F 40C8		ldr r4, [pc, #-200] ; 0x48F96D
005BF430  F044 0401		orr r4, r4, #1
005BF434  47A0     		blx r4
005BF436  B002     		add sp, sp, #8

#1525		{L:460}
(*) INT
005BF438  F85F 7100		ldr r7, [pc, #-256] ; 0x10
005BF43C  51F0     		str r0, [r6, +r7]

#1526
#1527
#1528		{L:461}
(*) INT
005BF43E  F85F 0094		ldr r0, [pc, #-148] ; 0x5BA278

#1529		{L:461}
(*) DWORD
005BF442  F85F 70F0		ldr r7, [pc, #-240] ; 0xF4
005BF446  51F0     		str r0, [r6, +r7]

#1530		{L:461}
(-) UNDEF
005BF448  2001     		mov r0, #1 ; 1

#1531		{L:461}
(-) USINT
005BF44A  F85F 7100		ldr r7, [pc, #-256] ; 0x2C
005BF44E  59F3     		ldr r3, [r6, +r7]
005BF450  F85F 7100		ldr r7, [pc, #-256] ; 0xF4
005BF454  59F2     		ldr r2, [r6, +r7]
005BF456  F04F 6100		mov r1, #134217728 ; 134217728
005BF45A  4600     		mov r0, r0
005BF45C  F85F 40EC		ldr r4, [pc, #-236] ; 0x48FE35
005BF460  F044 0401		orr r4, r4, #1
005BF464  47A0     		blx r4

#1532		{L:461}
(*) BOOL
005BF466  F85F 712C		ldr r7, [pc, #-300] ; 0x10
005BF46A  51F0     		str r0, [r6, +r7]

#1533
#1534
#1535
#1536
(-) UDINT
005BF46C  F000 BDA8		b #2896 ; 0x005BFFC0


#1537
#1538
#1539
#1540		{L:468}
(*) UNDEF
005BF470  F85F 713C		ldr r7, [pc, #-316] ; 0x4
005BF474  59F0     		ldr r0, [r6, +r7]

#1541		{L:468}
(-) @BYTE
005BF476  4600     		mov r0, r0
005BF478  F8DF 4750		ldr r4, [pc, #+1872] ; 0x4909F1
005BF47C  F044 0401		orr r4, r4, #1
005BF480  47A0     		blx r4

#1542		{L:468}
(*) UDINT
005BF482  F85F 7144		ldr r7, [pc, #-324] ; 0x1C
005BF486  51F0     		str r0, [r6, +r7]

#1543
#1544
#1545
#1546		{L:469}
(*) UNDEF
005BF488  F85F 714C		ldr r7, [pc, #-332] ; 0x1C
005BF48C  59F0     		ldr r0, [r6, +r7]

#1547		{L:469}
(*) UDINT
005BF48E  2800     		cmp r0, #0
005BF490  BF18 2000		nemov r0, #0
005BF494  BF08 2001		eqmov r0, #1

#1548		{L:469}
(-) BOOL
005BF498  2800     		cmp r0, #0
005BF49A  D002     		beq #4 ; 0x005BF4A2


#1549
#1550
#1551
#1552
#1553
#1554
(-) BOOL
005BF49E  F000 BD8F		b #2846 ; 0x005BFFC0


#1555
#1556
#1557
#1558
#1559		{L:470}
(*) UNDEF
005BF4A2  F85F 7170		ldr r7, [pc, #-368] ; 0x1
005BF4A6  5DF0     		ldrb r0, [r6, +r7]

#1560		{L:470}
(-) USINT
005BF4A8  1C40     		add r0, r0, #1

#1561		{L:470}
(-) USINT
005BF4AA  7030     		strb r0, [r6]

#1562
#1563
#1564		{L:471}
(*) USINT
005BF4AC  20C8     		mov r0, #200 ; 200
005BF4AE  F85F 717C		ldr r7, [pc, #-380] ; 0x1
005BF4B2  55F0     		strb r0, [r6, +r7]

#1565
#1566
#1567
#1568		{L:475}
(*) UNDEF
005BF4B4  F85F 716C		ldr r7, [pc, #-364] ; 0x2C
005BF4B8  59F0     		ldr r0, [r6, +r7]

#1569		{L:475}
(*) @BYTE
005BF4BA  2700     		mov r7, #0 ; 0
005BF4BC  42B8     		cmp r0, r7
005BF4BE  BF08 2000		eqmov r0, #0
005BF4C2  BF18 2001		nemov r0, #1

#1570		{L:475}
(-) BOOL
005BF4C6  2800     		cmp r0, #0
005BF4C8  D059     		beq #178 ; 0x005BF57E


#1571
#1572
#1573
#1574
#1575		{L:476}
(*) BOOL
005BF4CC  4630     		mov r0, r6
005BF4CE  F85F 7190		ldr r7, [pc, #-400] ; 0x1C
005BF4D2  19C0     		add r0, r0, r7

#1576		{L:476}
(*) DWORD
005BF4D4  F85F 7184		ldr r7, [pc, #-388] ; 0xF4
005BF4D8  51F0     		str r0, [r6, +r7]

#1577		{L:476}
(*) UNDEF
005BF4DA  F85F 7190		ldr r7, [pc, #-400] ; 0x2C
005BF4DE  59F0     		ldr r0, [r6, +r7]

#1578		{L:476}
(-) @BYTE
005BF4E0  B082     		sub sp, sp, #8
005BF4E2  F85F 7190		ldr r7, [pc, #-400] ; 0xF4
005BF4E6  59F7     		ldr r7, [r6, +r7]
005BF4E8  F8CD 7000		str r7, [sp]
005BF4EC  232A     		mov r3, #42 ; 42
005BF4EE  F85F 713C		ldr r7, [pc, #-316] ; 0x5BA2A0
005BF4F2  463A     		mov r2, r7
005BF4F4  2180     		mov r1, #128 ; 128
005BF4F6  4600     		mov r0, r0
005BF4F8  F85F 4194		ldr r4, [pc, #-404] ; 0x48F96D
005BF4FC  F044 0401		orr r4, r4, #1
005BF500  47A0     		blx r4
005BF502  B002     		add sp, sp, #8

#1579		{L:476}
(*) INT
005BF504  F85F 71CC		ldr r7, [pc, #-460] ; 0x10
005BF508  51F0     		str r0, [r6, +r7]

#1580
#1581
#1582		{L:477}
(*) UNDEF
005BF50A  F85F 71D4		ldr r7, [pc, #-468] ; 0x4
005BF50E  59F0     		ldr r0, [r6, +r7]

#1583		{L:477}
(*) @BYTE
005BF510  F85F 71D4		ldr r7, [pc, #-468] ; 0x1C
005BF514  59F7     		ldr r7, [r6, +r7]
005BF516  19C0     		add r0, r0, r7

#1584		{L:477}
(-) @BYTE
005BF518  3814     		sub r0, r0, #20

#1585		{L:477}
(*) @BYTE
005BF51A  F85F 71C8		ldr r7, [pc, #-456] ; 0xF4
005BF51E  51F0     		str r0, [r6, +r7]

#1586		{L:477}
(*) UNDEF
005BF520  F85F 71D8		ldr r7, [pc, #-472] ; 0x2C
005BF524  59F0     		ldr r0, [r6, +r7]

#1587		{L:477}
(-) @BYTE
005BF526  B082     		sub sp, sp, #8
005BF528  F85F 71D8		ldr r7, [pc, #-472] ; 0xF4
005BF52C  59F7     		ldr r7, [r6, +r7]
005BF52E  F8CD 7000		str r7, [sp]
005BF532  2332     		mov r3, #50 ; 50
005BF534  F85F 7180		ldr r7, [pc, #-384] ; 0x5BA2B0
005BF538  463A     		mov r2, r7
005BF53A  2180     		mov r1, #128 ; 128
005BF53C  4600     		mov r0, r0
005BF53E  F85F 41D4		ldr r4, [pc, #-468] ; 0x48FB19
005BF542  F044 0401		orr r4, r4, #1
005BF546  47A0     		blx r4
005BF548  B002     		add sp, sp, #8

#1588		{L:477}
(*) INT
005BF54A  F85F 7210		ldr r7, [pc, #-528] ; 0x10
005BF54E  51F0     		str r0, [r6, +r7]

#1589
#1590
#1591		{L:478}
(*) INT
005BF550  F85F 01A8		ldr r0, [pc, #-424] ; 0x5BA278

#1592		{L:478}
(*) DWORD
005BF554  F85F 7204		ldr r7, [pc, #-516] ; 0xF4
005BF558  51F0     		str r0, [r6, +r7]

#1593		{L:478}
(-) UNDEF
005BF55A  2001     		mov r0, #1 ; 1

#1594		{L:478}
(-) USINT
005BF55C  F85F 7214		ldr r7, [pc, #-532] ; 0x2C
005BF560  59F3     		ldr r3, [r6, +r7]
005BF562  F85F 7210		ldr r7, [pc, #-528] ; 0xF4
005BF566  59F2     		ldr r2, [r6, +r7]
005BF568  F04F 6100		mov r1, #134217728 ; 134217728
005BF56C  4600     		mov r0, r0
005BF56E  F85F 41FC		ldr r4, [pc, #-508] ; 0x48FE35
005BF572  F044 0401		orr r4, r4, #1
005BF576  47A0     		blx r4

#1595		{L:478}
(*) BOOL
005BF578  F85F 7240		ldr r7, [pc, #-576] ; 0x10
005BF57C  51F0     		str r0, [r6, +r7]

#1596
#1597
#1598
#1599
(-) UDINT
005BF57E  F000 BD1F		b #2622 ; 0x005BFFC0


#1600
#1601
#1602
#1603		{L:485}
(*) UNDEF
005BF582  F85F 724C		ldr r7, [pc, #-588] ; 0x4
005BF586  59F0     		ldr r0, [r6, +r7]

#1604		{L:485}
(*) @BYTE
005BF588  F85F 724C		ldr r7, [pc, #-588] ; 0x1C
005BF58C  59F7     		ldr r7, [r6, +r7]
005BF58E  19C0     		add r0, r0, r7

#1605		{L:485}
(*) @BYTE
005BF590  F85F 7240		ldr r7, [pc, #-576] ; 0xF4
005BF594  51F0     		str r0, [r6, +r7]

#1606		{L:485}
(*) UNDEF
005BF596  F44F 7000		mov r0, #512 ; 512

#1607		{L:485}
(*) UINT
005BF59A  F85F 725C		ldr r7, [pc, #-604] ; 0x1C
005BF59E  59F7     		ldr r7, [r6, +r7]
005BF5A0  1BC0     		sub r0, r0, r7

#1608		{L:485}
(*) UDINT
005BF5A2  F85F 724C		ldr r7, [pc, #-588] ; 0xFC
005BF5A6  51F0     		str r0, [r6, +r7]

#1609		{L:485}
(*) UNDEF
005BF5A8  F85F 7274		ldr r7, [pc, #-628] ; 0x4
005BF5AC  59F0     		ldr r0, [r6, +r7]

#1610		{L:485}
(-) @BYTE
005BF5AE  F85F 7258		ldr r7, [pc, #-600] ; 0xFC
005BF5B2  59F2     		ldr r2, [r6, +r7]
005BF5B4  F85F 7264		ldr r7, [pc, #-612] ; 0xF4
005BF5B8  59F1     		ldr r1, [r6, +r7]
005BF5BA  4600     		mov r0, r0
005BF5BC  F85F 4248		ldr r4, [pc, #-584] ; 0x4907E5
005BF5C0  F044 0401		orr r4, r4, #1
005BF5C4  47A0     		blx r4

#1611		{L:485}
(*) @USINT
005BF5C6  F85F 728C		ldr r7, [pc, #-652] ; 0x10
005BF5CA  51F0     		str r0, [r6, +r7]

#1612
#1613
#1614
#1615		{L:486}
(*) UNDEF
005BF5CC  F85F 7280		ldr r7, [pc, #-640] ; 0xEC
005BF5D0  59F0     		ldr r0, [r6, +r7]

#1616		{L:486}
(*) UDINT
005BF5D2  F85F 7290		ldr r7, [pc, #-656] ; 0x20
005BF5D6  59F7     		ldr r7, [r6, +r7]
005BF5D8  42B8     		cmp r0, r7
005BF5DA  BF28 2000		hsmov r0, #0
005BF5DE  BF38 2001		lomov r0, #1

#1617		{L:486}
(-) BOOL
005BF5E2  2800     		cmp r0, #0
005BF5E4  D009     		beq #18 ; 0x005BF5FA


#1618
#1619
#1620
#1621
#1622		{L:486}
(*) UNDEF
005BF5E8  F85F 72B8		ldr r7, [pc, #-696] ; 0x1
005BF5EC  5DF0     		ldrb r0, [r6, +r7]

#1623		{L:486}
(-) USINT
005BF5EE  1E40     		sub r0, r0, #1

#1624		{L:486}
(*) USINT
005BF5F0  F85F 72C0		ldr r7, [pc, #-704] ; 0x1
005BF5F4  55F0     		strb r0, [r6, +r7]

#1625
#1626
#1627
#1628
(-) USINT
005BF5F6  F000 BCE3		b #2502 ; 0x005BFFC0


#1629
#1630
#1631
#1632
#1633
#1634		{L:490}
(*) UNDEF
005BF5FA  F85F 72AC		ldr r7, [pc, #-684] ; 0xEC
005BF5FE  59F0     		ldr r0, [r6, +r7]

#1635		{L:490}
(*) UDINT
005BF600  F85F 72C0		ldr r7, [pc, #-704] ; 0x20
005BF604  59F7     		ldr r7, [r6, +r7]
005BF606  42B8     		cmp r0, r7
005BF608  BF08 2000		eqmov r0, #0
005BF60C  BF18 2001		nemov r0, #1

#1636		{L:490}
(-) BOOL
005BF610  2800     		cmp r0, #0
005BF612  D008     		beq #16 ; 0x005BF626


#1637
#1638
#1639
#1640
#1641		{L:490}
(*) BOOL
005BF616  F8DF 75C0		ldr r7, [pc, #+1472] ; 0x5BA2D8
005BF61A  6838     		ldr r0, [r7]
005BF61C  F8DF 75A0		ldr r7, [pc, #+1440] ; 0x8
005BF620  51F0     		str r0, [r6, +r7]

#1642
#1643
#1644
#1645
(-) UDINT
005BF622  F000 BCCD		b #2458 ; 0x005BFFC0


#1646
#1647
#1648
#1649
#1650		{L:491}
(*) UDINT
005BF626  20FA     		mov r0, #250 ; 250
005BF628  F85F 72F8		ldr r7, [pc, #-760] ; 0x1
005BF62C  55F0     		strb r0, [r6, +r7]

#1651
(-) USINT
005BF62E  F000 BCC7		b #2446 ; 0x005BFFC0


#1652
#1653
#1654
#1655		{L:505}
(*) USINT
005BF632  2000     		mov r0, #0 ; 0
005BF634  F85F 72F4		ldr r7, [pc, #-756] ; 0x20
005BF638  51F0     		str r0, [r6, +r7]

#1656
#1657
#1658		{L:506}
(*) UDINT
005BF63A  2000     		mov r0, #0 ; 0
005BF63C  F85F 72F8		ldr r7, [pc, #-760] ; 0x24
005BF640  51F0     		str r0, [r6, +r7]

#1659
#1660
#1661		{L:507}
(*) UDINT
005BF642  2000     		mov r0, #0 ; 0
005BF644  F85F 72F8		ldr r7, [pc, #-760] ; 0xEC
005BF648  51F0     		str r0, [r6, +r7]

#1662
#1663
#1664		{L:508}
(*) UNDEF
005BF64A  F85F 7318		ldr r7, [pc, #-792] ; 0x1
005BF64E  5DF0     		ldrb r0, [r6, +r7]

#1665		{L:508}
(-) USINT
005BF650  1C40     		add r0, r0, #1

#1666		{L:508}
(*) USINT
005BF652  F85F 7320		ldr r7, [pc, #-800] ; 0x1
005BF656  55F0     		strb r0, [r6, +r7]

#1667
#1668
#1669
#1670		{L:512}
(*) UNDEF
005BF658  F85F 7310		ldr r7, [pc, #-784] ; 0x2C
005BF65C  59F0     		ldr r0, [r6, +r7]

#1671		{L:512}
(*) @BYTE
005BF65E  2700     		mov r7, #0 ; 0
005BF660  42B8     		cmp r0, r7
005BF662  BF08 2000		eqmov r0, #0
005BF666  BF18 2001		nemov r0, #1

#1672		{L:512}
(-) BOOL
005BF66A  2800     		cmp r0, #0
005BF66C  D01C     		beq #56 ; 0x005BF6A8


#1673
#1674
#1675
#1676
#1677		{L:513}
(*) BOOL
005BF670  F85F 02C8		ldr r0, [pc, #-712] ; 0x5BA278

#1678		{L:513}
(*) DWORD
005BF674  F85F 7324		ldr r7, [pc, #-804] ; 0xF4
005BF678  51F0     		str r0, [r6, +r7]

#1679		{L:513}
(*) @UNDEF
005BF67A  F8DF 0560		ldr r0, [pc, #+1376] ; 0x5BA2DC

#1680		{L:513}
(*) DWORD
005BF67E  F85F 7320		ldr r7, [pc, #-800] ; 0x104
005BF682  51F0     		str r0, [r6, +r7]

#1681		{L:513}
(-) UNDEF
005BF684  2001     		mov r0, #1 ; 1

#1682		{L:513}
(-) USINT
005BF686  F85F 7328		ldr r7, [pc, #-808] ; 0x104
005BF68A  59F3     		ldr r3, [r6, +r7]
005BF68C  F85F 733C		ldr r7, [pc, #-828] ; 0xF4
005BF690  59F2     		ldr r2, [r6, +r7]
005BF692  F04F 6100		mov r1, #134217728 ; 134217728
005BF696  4600     		mov r0, r0
005BF698  F85F 4328		ldr r4, [pc, #-808] ; 0x48FE35
005BF69C  F044 0401		orr r4, r4, #1
005BF6A0  47A0     		blx r4

#1683		{L:513}
(*) BOOL
005BF6A2  F85F 7368		ldr r7, [pc, #-872] ; 0x10
005BF6A6  51F0     		str r0, [r6, +r7]

#1684
#1685
#1686
#1687
(-) UDINT
005BF6A8  F000 BC8A		b #2324 ; 0x005BFFC0


#1688
#1689
#1690
#1691
#1692		{L:521}
(*) UNDEF
005BF6AC  F85F 736C		ldr r7, [pc, #-876] ; 0x20
005BF6B0  59F0     		ldr r0, [r6, +r7]

#1693		{L:521}
(*) UDINT
005BF6B2  2800     		cmp r0, #0
005BF6B4  BF08 2000		eqmov r0, #0
005BF6B8  BF18 2001		nemov r0, #1

#1694		{L:521}
(-) BOOL
005BF6BC  2800     		cmp r0, #0
005BF6BE  D006     		beq #12 ; 0x005BF6CE


#1695
#1696
#1697
#1698
#1699		{L:521}
(*) BOOL
005BF6C2  2098     		mov r0, #152 ; 152
005BF6C4  F85F 7394		ldr r7, [pc, #-916] ; 0x1
005BF6C8  55F0     		strb r0, [r6, +r7]

#1700
#1701
#1702
#1703
(-) USINT
005BF6CA  F000 BC79		b #2290 ; 0x005BFFC0


#1704
#1705
#1706
#1707
#1708		{L:522}
(*) USINT
005BF6CE  2000     		mov r0, #0 ; 0
005BF6D0  F85F 738C		ldr r7, [pc, #-908] ; 0x24
005BF6D4  51F0     		str r0, [r6, +r7]

#1709
#1710
#1711		{L:526}
(*) UDINT
005BF6D6  F85F 0BB8		ldr r0, [pc, #-3000] ; 0x5BA1C4

#1712		{L:526}
(*) DWORD
005BF6DA  F85F 7388		ldr r7, [pc, #-904] ; 0xF4
005BF6DE  51F0     		str r0, [r6, +r7]

#1713		{L:526}
(*) UNDEF
005BF6E0  F85F 73AC		ldr r7, [pc, #-940] ; 0x4
005BF6E4  59F0     		ldr r0, [r6, +r7]

#1714		{L:526}
(-) @BYTE
005BF6E6  2204     		mov r2, #4 ; 4
005BF6E8  F85F 7398		ldr r7, [pc, #-920] ; 0xF4
005BF6EC  59F1     		ldr r1, [r6, +r7]
005BF6EE  4600     		mov r0, r0
005BF6F0  F85F 4378		ldr r4, [pc, #-888] ; 0x4908DD
005BF6F4  F044 0401		orr r4, r4, #1
005BF6F8  47A0     		blx r4

#1715		{L:526}
(*) @USINT
005BF6FA  F85F 7C6C		ldr r7, [pc, #-3180] ; 0x28
005BF6FE  51F0     		str r0, [r6, +r7]

#1716
#1717
#1718
#1719		{L:527}
(*) UNDEF
005BF700  F85F 7C74		ldr r7, [pc, #-3188] ; 0x28
005BF704  59F0     		ldr r0, [r6, +r7]

#1720		{L:527}
(*) @BYTE
005BF706  2700     		mov r7, #0 ; 0
005BF708  42B8     		cmp r0, r7
005BF70A  BF18 2000		nemov r0, #0
005BF70E  BF08 2001		eqmov r0, #1

#1721		{L:527}
(-) BOOL
005BF712  2800     		cmp r0, #0
005BF714  D002     		beq #4 ; 0x005BF71C


#1722
#1723
#1724
#1725
#1726
#1727
(-) BOOL
005BF718  F000 BC52		b #2212 ; 0x005BFFC0


#1728
#1729
#1730
#1731
#1732
#1733		{L:528}
(*) BOOL
005BF71C  4630     		mov r0, r6
005BF71E  F85F 73DC		ldr r7, [pc, #-988] ; 0x20
005BF722  19C0     		add r0, r0, r7

#1734		{L:528}
(*) DWORD
005BF724  F85F 73D4		ldr r7, [pc, #-980] ; 0xF4
005BF728  51F0     		str r0, [r6, +r7]

#1735		{L:528}
(*) UNDEF
005BF72A  F85F 73F4		ldr r7, [pc, #-1012] ; 0x4
005BF72E  59F0     		ldr r0, [r6, +r7]

#1736		{L:528}
(-) @BYTE
005BF730  F85F 73E0		ldr r7, [pc, #-992] ; 0xF4
005BF734  59F3     		ldr r3, [r6, +r7]
005BF736  222A     		mov r2, #42 ; 42
005BF738  F8DF 74A4		ldr r7, [pc, #+1188] ; 0x5BA2F8
005BF73C  4639     		mov r1, r7
005BF73E  4600     		mov r0, r0
005BF740  F85F 43D4		ldr r4, [pc, #-980] ; 0x48FBB1
005BF744  F044 0401		orr r4, r4, #1
005BF748  47A0     		blx r4

#1737		{L:528}
(*) BOOL
005BF74A  2800     		cmp r0, #0
005BF74C  BF08 2001		eqmov r0, #1
005BF750  BF18 2000		nemov r0, #0

#1738		{L:528}
(-) BOOL
005BF754  2800     		cmp r0, #0
005BF756  D008     		beq #16 ; 0x005BF76A


#1739
#1740
#1741
#1742
#1743		{L:528}
(*) BOOL
005BF75A  F8DF 7488		ldr r7, [pc, #+1160] ; 0x5BA2FC
005BF75E  6838     		ldr r0, [r7]
005BF760  F8DF 745C		ldr r7, [pc, #+1116] ; 0x8
005BF764  51F0     		str r0, [r6, +r7]

#1744
#1745
#1746
#1747
(-) UDINT
005BF766  F000 BC2B		b #2134 ; 0x005BFFC0


#1748
#1749
#1750
#1751
#1752		{L:534}
(*) UNDEF
005BF76A  F85F 7CDC		ldr r7, [pc, #-3292] ; 0x28
005BF76E  59F0     		ldr r0, [r6, +r7]

#1753		{L:534}
(*) @BYTE
005BF770  F85F 743C		ldr r7, [pc, #-1084] ; 0x4
005BF774  59F7     		ldr r7, [r6, +r7]
005BF776  1BC0     		sub r0, r0, r7

#1754		{L:534}
(*) @BYTE
005BF778  F8DF 7448		ldr r7, [pc, #+1096] ; 0x14
005BF77C  51F0     		str r0, [r6, +r7]

#1755
#1756
#1757		{L:535}
(*) UNDEF
005BF77E  F44F 7000		mov r0, #512 ; 512

#1758		{L:535}
(*) UINT
005BF782  F8DF 7440		ldr r7, [pc, #+1088] ; 0x14
005BF786  59F7     		ldr r7, [r6, +r7]
005BF788  1BC0     		sub r0, r0, r7

#1759		{L:535}
(*) UDINT
005BF78A  F85F 7434		ldr r7, [pc, #-1076] ; 0xFC
005BF78E  51F0     		str r0, [r6, +r7]

#1760		{L:535}
(*) UNDEF
005BF790  F85F 745C		ldr r7, [pc, #-1116] ; 0x4
005BF794  59F0     		ldr r0, [r6, +r7]

#1761		{L:535}
(-) @BYTE
005BF796  F85F 7440		ldr r7, [pc, #-1088] ; 0xFC
005BF79A  59F2     		ldr r2, [r6, +r7]
005BF79C  F85F 7D10		ldr r7, [pc, #-3344] ; 0x28
005BF7A0  59F1     		ldr r1, [r6, +r7]
005BF7A2  4600     		mov r0, r0
005BF7A4  F85F 4430		ldr r4, [pc, #-1072] ; 0x4907E5
005BF7A8  F044 0401		orr r4, r4, #1
005BF7AC  47A0     		blx r4

#1762		{L:535}
(*) @USINT
005BF7AE  F85F 7474		ldr r7, [pc, #-1140] ; 0x10
005BF7B2  51F0     		str r0, [r6, +r7]

#1763
#1764
#1765
#1766		{L:539}
(*) UNDEF
005BF7B4  F85F 7474		ldr r7, [pc, #-1140] ; 0x20
005BF7B8  59F0     		ldr r0, [r6, +r7]

#1767		{L:539}
(*) UDINT
005BF7BA  2800     		cmp r0, #0
005BF7BC  BF18 2000		nemov r0, #0
005BF7C0  BF08 2001		eqmov r0, #1

#1768		{L:539}
(-) BOOL
005BF7C4  2800     		cmp r0, #0
005BF7C6  D006     		beq #12 ; 0x005BF7D6


#1769
#1770
#1771
#1772
#1773		{L:539}
(*) BOOL
005BF7CA  20FA     		mov r0, #250 ; 250
005BF7CC  F85F 749C		ldr r7, [pc, #-1180] ; 0x1
005BF7D0  55F0     		strb r0, [r6, +r7]

#1774
#1775
#1776
#1777
(-) USINT
005BF7D2  E3F5     		b #2026 ; 0x005BFFC0


#1778
#1779
#1780
#1781
#1782
#1783		{L:543}
(*) UNDEF
005BF7D6  F85F 748C		ldr r7, [pc, #-1164] ; 0x2C
005BF7DA  59F0     		ldr r0, [r6, +r7]

#1784		{L:543}
(*) @BYTE
005BF7DC  2700     		mov r7, #0 ; 0
005BF7DE  42B8     		cmp r0, r7
005BF7E0  BF08 2000		eqmov r0, #0
005BF7E4  BF18 2001		nemov r0, #1

#1785		{L:543}
(-) BOOL
005BF7E8  2800     		cmp r0, #0
005BF7EA  D036     		beq #108 ; 0x005BF85A


#1786
#1787
#1788
#1789
#1790		{L:544}
(*) BOOL
005BF7EE  4630     		mov r0, r6
005BF7F0  F85F 74B0		ldr r7, [pc, #-1200] ; 0x20
005BF7F4  19C0     		add r0, r0, r7

#1791		{L:544}
(*) DWORD
005BF7F6  F85F 74A4		ldr r7, [pc, #-1188] ; 0xF4
005BF7FA  51F0     		str r0, [r6, +r7]

#1792		{L:544}
(*) UNDEF
005BF7FC  F85F 74B4		ldr r7, [pc, #-1204] ; 0x2C
005BF800  59F0     		ldr r0, [r6, +r7]

#1793		{L:544}
(-) @BYTE
005BF802  B082     		sub sp, sp, #8
005BF804  F85F 74B4		ldr r7, [pc, #-1204] ; 0xF4
005BF808  59F7     		ldr r7, [r6, +r7]
005BF80A  F8CD 7000		str r7, [sp]
005BF80E  232A     		mov r3, #42 ; 42
005BF810  F8DF 73D4		ldr r7, [pc, #+980] ; 0x5BA300
005BF814  463A     		mov r2, r7
005BF816  2180     		mov r1, #128 ; 128
005BF818  4600     		mov r0, r0
005BF81A  F85F 44B4		ldr r4, [pc, #-1204] ; 0x48F96D
005BF81E  F044 0401		orr r4, r4, #1
005BF822  47A0     		blx r4
005BF824  B002     		add sp, sp, #8

#1794		{L:544}
(*) INT
005BF826  F85F 74EC		ldr r7, [pc, #-1260] ; 0x10
005BF82A  51F0     		str r0, [r6, +r7]

#1795
#1796
#1797		{L:545}
(*) INT
005BF82C  F85F 0484		ldr r0, [pc, #-1156] ; 0x5BA278

#1798		{L:545}
(*) DWORD
005BF830  F85F 74E0		ldr r7, [pc, #-1248] ; 0xF4
005BF834  51F0     		str r0, [r6, +r7]

#1799		{L:545}
(-) UNDEF
005BF836  2001     		mov r0, #1 ; 1

#1800		{L:545}
(-) USINT
005BF838  F85F 74F0		ldr r7, [pc, #-1264] ; 0x2C
005BF83C  59F3     		ldr r3, [r6, +r7]
005BF83E  F85F 74EC		ldr r7, [pc, #-1260] ; 0xF4
005BF842  59F2     		ldr r2, [r6, +r7]
005BF844  F04F 6100		mov r1, #134217728 ; 134217728
005BF848  4600     		mov r0, r0
005BF84A  F85F 44D8		ldr r4, [pc, #-1240] ; 0x48FE35
005BF84E  F044 0401		orr r4, r4, #1
005BF852  47A0     		blx r4

#1801		{L:545}
(*) BOOL
005BF854  F85F 751C		ldr r7, [pc, #-1308] ; 0x10
005BF858  51F0     		str r0, [r6, +r7]

#1802
#1803
#1804
#1805
#1806
#1807		{L:547}
(*) UNDEF
005BF85A  F85F 7528		ldr r7, [pc, #-1320] ; 0x1
005BF85E  5DF0     		ldrb r0, [r6, +r7]

#1808		{L:547}
(-) USINT
005BF860  1C40     		add r0, r0, #1

#1809		{L:547}
(*) USINT
005BF862  F85F 7530		ldr r7, [pc, #-1328] ; 0x1
005BF866  55F0     		strb r0, [r6, +r7]

#1810
(-) USINT
005BF868  E3AA     		b #1876 ; 0x005BFFC0


#1811
#1812
#1813
#1814		{L:555}
(*) UNDEF
005BF86C  F85F 7538		ldr r7, [pc, #-1336] ; 0x4
005BF870  59F0     		ldr r0, [r6, +r7]

#1815		{L:555}
(-) @BYTE
005BF872  4600     		mov r0, r0
005BF874  F8DF 4354		ldr r4, [pc, #+852] ; 0x4909F1
005BF878  F044 0401		orr r4, r4, #1
005BF87C  47A0     		blx r4

#1816		{L:555}
(*) UDINT
005BF87E  F85F 7540		ldr r7, [pc, #-1344] ; 0x1C
005BF882  51F0     		str r0, [r6, +r7]

#1817
#1818
#1819
#1820		{L:556}
(*) UNDEF
005BF884  F85F 7548		ldr r7, [pc, #-1352] ; 0x1C
005BF888  59F0     		ldr r0, [r6, +r7]

#1821		{L:556}
(*) UDINT
005BF88A  B082     		sub sp, sp, #8
005BF88C  F8CD 0000		str r0, [sp]
005BF890  F85F 7550		ldr r7, [pc, #-1360] ; 0x20
005BF894  59F0     		ldr r0, [r6, +r7]

#1822		{L:556}
(*) UDINT
005BF896  F85F 7550		ldr r7, [pc, #-1360] ; 0x24
005BF89A  59F7     		ldr r7, [r6, +r7]
005BF89C  1BC0     		sub r0, r0, r7

#1823		{L:556}
(*) UDINT
005BF89E  4607     		mov r7, r0
005BF8A0  F8DD 0000		ldr r0, [sp]
005BF8A4  B002     		add sp, sp, #8
005BF8A6  42B8     		cmp r0, r7
005BF8A8  BF98 2000		lsmov r0, #0
005BF8AC  BF88 2001		himov r0, #1

#1824		{L:556}
(-) BOOL
005BF8B0  2800     		cmp r0, #0
005BF8B2  D006     		beq #12 ; 0x005BF8C2


#1825
#1826
#1827
#1828
#1829		{L:556}
(*) BOOL
005BF8B6  209B     		mov r0, #155 ; 155
005BF8B8  F85F 7588		ldr r7, [pc, #-1416] ; 0x1
005BF8BC  55F0     		strb r0, [r6, +r7]

#1830
#1831
#1832
#1833
(-) USINT
005BF8BE  E37F     		b #1790 ; 0x005BFFC0


#1834
#1835
#1836
#1837
#1838		{L:557}
(*) UNDEF
005BF8C2  F85F 7590		ldr r7, [pc, #-1424] ; 0x1
005BF8C6  5DF0     		ldrb r0, [r6, +r7]

#1839		{L:557}
(-) USINT
005BF8C8  1C40     		add r0, r0, #1

#1840		{L:557}
(-) USINT
005BF8CA  7030     		strb r0, [r6]

#1841
#1842
#1843		{L:558}
(*) USINT
005BF8CC  20C8     		mov r0, #200 ; 200
005BF8CE  F85F 759C		ldr r7, [pc, #-1436] ; 0x1
005BF8D2  55F0     		strb r0, [r6, +r7]

#1844
#1845
#1846
#1847		{L:562}
(*) UNDEF
005BF8D4  F85F 758C		ldr r7, [pc, #-1420] ; 0x2C
005BF8D8  59F0     		ldr r0, [r6, +r7]

#1848		{L:562}
(*) @BYTE
005BF8DA  2700     		mov r7, #0 ; 0
005BF8DC  42B8     		cmp r0, r7
005BF8DE  BF08 2000		eqmov r0, #0
005BF8E2  BF18 2001		nemov r0, #1

#1849		{L:562}
(-) BOOL
005BF8E6  2800     		cmp r0, #0
005BF8E8  D059     		beq #178 ; 0x005BF99E


#1850
#1851
#1852
#1853
#1854		{L:563}
(*) BOOL
005BF8EC  4630     		mov r0, r6
005BF8EE  F85F 75B0		ldr r7, [pc, #-1456] ; 0x1C
005BF8F2  19C0     		add r0, r0, r7

#1855		{L:563}
(*) DWORD
005BF8F4  F85F 75A4		ldr r7, [pc, #-1444] ; 0xF4
005BF8F8  51F0     		str r0, [r6, +r7]

#1856		{L:563}
(*) UNDEF
005BF8FA  F85F 75B0		ldr r7, [pc, #-1456] ; 0x2C
005BF8FE  59F0     		ldr r0, [r6, +r7]

#1857		{L:563}
(-) @BYTE
005BF900  B082     		sub sp, sp, #8
005BF902  F85F 75B0		ldr r7, [pc, #-1456] ; 0xF4
005BF906  59F7     		ldr r7, [r6, +r7]
005BF908  F8CD 7000		str r7, [sp]
005BF90C  232A     		mov r3, #42 ; 42
005BF90E  F8DF 72DC		ldr r7, [pc, #+732] ; 0x5BA314
005BF912  463A     		mov r2, r7
005BF914  2180     		mov r1, #128 ; 128
005BF916  4600     		mov r0, r0
005BF918  F85F 45B4		ldr r4, [pc, #-1460] ; 0x48F96D
005BF91C  F044 0401		orr r4, r4, #1
005BF920  47A0     		blx r4
005BF922  B002     		add sp, sp, #8

#1858		{L:563}
(*) INT
005BF924  F85F 75EC		ldr r7, [pc, #-1516] ; 0x10
005BF928  51F0     		str r0, [r6, +r7]

#1859
#1860
#1861		{L:564}
(*) UNDEF
005BF92A  F85F 75F4		ldr r7, [pc, #-1524] ; 0x4
005BF92E  59F0     		ldr r0, [r6, +r7]

#1862		{L:564}
(*) @BYTE
005BF930  F85F 75F4		ldr r7, [pc, #-1524] ; 0x1C
005BF934  59F7     		ldr r7, [r6, +r7]
005BF936  19C0     		add r0, r0, r7

#1863		{L:564}
(-) @BYTE
005BF938  3814     		sub r0, r0, #20

#1864		{L:564}
(*) @BYTE
005BF93A  F85F 75E8		ldr r7, [pc, #-1512] ; 0xF4
005BF93E  51F0     		str r0, [r6, +r7]

#1865		{L:564}
(*) UNDEF
005BF940  F85F 75F8		ldr r7, [pc, #-1528] ; 0x2C
005BF944  59F0     		ldr r0, [r6, +r7]

#1866		{L:564}
(-) @BYTE
005BF946  B082     		sub sp, sp, #8
005BF948  F85F 75F8		ldr r7, [pc, #-1528] ; 0xF4
005BF94C  59F7     		ldr r7, [r6, +r7]
005BF94E  F8CD 7000		str r7, [sp]
005BF952  2332     		mov r3, #50 ; 50
005BF954  F85F 75A0		ldr r7, [pc, #-1440] ; 0x5BA2B0
005BF958  463A     		mov r2, r7
005BF95A  2180     		mov r1, #128 ; 128
005BF95C  4600     		mov r0, r0
005BF95E  F85F 45F4		ldr r4, [pc, #-1524] ; 0x48FB19
005BF962  F044 0401		orr r4, r4, #1
005BF966  47A0     		blx r4
005BF968  B002     		add sp, sp, #8

#1867		{L:564}
(*) INT
005BF96A  F85F 7630		ldr r7, [pc, #-1584] ; 0x10
005BF96E  51F0     		str r0, [r6, +r7]

#1868
#1869
#1870		{L:565}
(*) INT
005BF970  F85F 05C8		ldr r0, [pc, #-1480] ; 0x5BA278

#1871		{L:565}
(*) DWORD
005BF974  F85F 7624		ldr r7, [pc, #-1572] ; 0xF4
005BF978  51F0     		str r0, [r6, +r7]

#1872		{L:565}
(-) UNDEF
005BF97A  2001     		mov r0, #1 ; 1

#1873		{L:565}
(-) USINT
005BF97C  F85F 7634		ldr r7, [pc, #-1588] ; 0x2C
005BF980  59F3     		ldr r3, [r6, +r7]
005BF982  F85F 7630		ldr r7, [pc, #-1584] ; 0xF4
005BF986  59F2     		ldr r2, [r6, +r7]
005BF988  F04F 6100		mov r1, #134217728 ; 134217728
005BF98C  4600     		mov r0, r0
005BF98E  F85F 461C		ldr r4, [pc, #-1564] ; 0x48FE35
005BF992  F044 0401		orr r4, r4, #1
005BF996  47A0     		blx r4

#1874		{L:565}
(*) BOOL
005BF998  F85F 7660		ldr r7, [pc, #-1632] ; 0x10
005BF99C  51F0     		str r0, [r6, +r7]

#1875
#1876
#1877
#1878
(-) UDINT
005BF99E  E30F     		b #1566 ; 0x005BFFC0


#1879
#1880
#1881
#1882		{L:572}
(*) UNDEF
005BF9A2  F85F 765C		ldr r7, [pc, #-1628] ; 0x24
005BF9A6  59F0     		ldr r0, [r6, +r7]

#1883		{L:572}
(*) UDINT
005BF9A8  F85F 766C		ldr r7, [pc, #-1644] ; 0x1C
005BF9AC  59F7     		ldr r7, [r6, +r7]
005BF9AE  19C0     		add r0, r0, r7

#1884		{L:572}
(*) UDINT
005BF9B0  F85F 766C		ldr r7, [pc, #-1644] ; 0x24
005BF9B4  51F0     		str r0, [r6, +r7]

#1885
#1886
#1887		{L:573}
(*) UNDEF
005BF9B6  F85F 7680		ldr r7, [pc, #-1664] ; 0x4
005BF9BA  59F0     		ldr r0, [r6, +r7]

#1888		{L:573}
(*) @BYTE
005BF9BC  F85F 7680		ldr r7, [pc, #-1664] ; 0x1C
005BF9C0  59F7     		ldr r7, [r6, +r7]
005BF9C2  19C0     		add r0, r0, r7

#1889		{L:573}
(*) @BYTE
005BF9C4  F85F 7674		ldr r7, [pc, #-1652] ; 0xF4
005BF9C8  51F0     		str r0, [r6, +r7]

#1890		{L:573}
(*) UNDEF
005BF9CA  F44F 7000		mov r0, #512 ; 512

#1891		{L:573}
(*) UINT
005BF9CE  F85F 7690		ldr r7, [pc, #-1680] ; 0x1C
005BF9D2  59F7     		ldr r7, [r6, +r7]
005BF9D4  1BC0     		sub r0, r0, r7

#1892		{L:573}
(*) UDINT
005BF9D6  F85F 7680		ldr r7, [pc, #-1664] ; 0xFC
005BF9DA  51F0     		str r0, [r6, +r7]

#1893		{L:573}
(*) UNDEF
005BF9DC  F85F 76A8		ldr r7, [pc, #-1704] ; 0x4
005BF9E0  59F0     		ldr r0, [r6, +r7]

#1894		{L:573}
(-) @BYTE
005BF9E2  F85F 768C		ldr r7, [pc, #-1676] ; 0xFC
005BF9E6  59F2     		ldr r2, [r6, +r7]
005BF9E8  F85F 7698		ldr r7, [pc, #-1688] ; 0xF4
005BF9EC  59F1     		ldr r1, [r6, +r7]
005BF9EE  4600     		mov r0, r0
005BF9F0  F85F 467C		ldr r4, [pc, #-1660] ; 0x4907E5
005BF9F4  F044 0401		orr r4, r4, #1
005BF9F8  47A0     		blx r4

#1895		{L:573}
(*) @USINT
005BF9FA  F85F 76C0		ldr r7, [pc, #-1728] ; 0x10
005BF9FE  51F0     		str r0, [r6, +r7]

#1896
#1897
#1898		{L:574}
(*) @USINT
005BFA00  2098     		mov r0, #152 ; 152
005BFA02  F85F 76D0		ldr r7, [pc, #-1744] ; 0x1
005BFA06  55F0     		strb r0, [r6, +r7]

#1899
(-) USINT
005BFA08  E2DA     		b #1460 ; 0x005BFFC0


#1900
#1901
#1902
#1903		{L:581}
(*) UNDEF
005BFA0C  F85F 76CC		ldr r7, [pc, #-1740] ; 0x20
005BFA10  59F0     		ldr r0, [r6, +r7]

#1904		{L:581}
(*) UDINT
005BFA12  F85F 76CC		ldr r7, [pc, #-1740] ; 0x24
005BFA16  59F7     		ldr r7, [r6, +r7]
005BFA18  1BC0     		sub r0, r0, r7

#1905		{L:581}
(*) UDINT
005BFA1A  F85F 76DC		ldr r7, [pc, #-1756] ; 0x1C
005BFA1E  51F0     		str r0, [r6, +r7]

#1906
#1907
#1908		{L:582}
(*) UNDEF
005BFA20  F85F 76F0		ldr r7, [pc, #-1776] ; 0x1
005BFA24  5DF0     		ldrb r0, [r6, +r7]

#1909		{L:582}
(-) USINT
005BFA26  1C40     		add r0, r0, #1

#1910		{L:582}
(-) USINT
005BFA28  7030     		strb r0, [r6]

#1911
#1912
#1913		{L:583}
(*) USINT
005BFA2A  20C8     		mov r0, #200 ; 200
005BFA2C  F85F 76FC		ldr r7, [pc, #-1788] ; 0x1
005BFA30  55F0     		strb r0, [r6, +r7]

#1914
#1915
#1916
#1917		{L:587}
(*) UNDEF
005BFA32  F85F 76E8		ldr r7, [pc, #-1768] ; 0x2C
005BFA36  59F0     		ldr r0, [r6, +r7]

#1918		{L:587}
(*) @BYTE
005BFA38  2700     		mov r7, #0 ; 0
005BFA3A  42B8     		cmp r0, r7
005BFA3C  BF08 2000		eqmov r0, #0
005BFA40  BF18 2001		nemov r0, #1

#1919		{L:587}
(-) BOOL
005BFA44  2800     		cmp r0, #0
005BFA46  D059     		beq #178 ; 0x005BFAFC


#1920
#1921
#1922
#1923
#1924		{L:588}
(*) BOOL
005BFA4A  4630     		mov r0, r6
005BFA4C  F85F 7710		ldr r7, [pc, #-1808] ; 0x1C
005BFA50  19C0     		add r0, r0, r7

#1925		{L:588}
(*) DWORD
005BFA52  F85F 7700		ldr r7, [pc, #-1792] ; 0xF4
005BFA56  51F0     		str r0, [r6, +r7]

#1926		{L:588}
(*) UNDEF
005BFA58  F85F 7710		ldr r7, [pc, #-1808] ; 0x2C
005BFA5C  59F0     		ldr r0, [r6, +r7]

#1927		{L:588}
(-) @BYTE
005BFA5E  B082     		sub sp, sp, #8
005BFA60  F85F 7710		ldr r7, [pc, #-1808] ; 0xF4
005BFA64  59F7     		ldr r7, [r6, +r7]
005BFA66  F8CD 7000		str r7, [sp]
005BFA6A  232A     		mov r3, #42 ; 42
005BFA6C  F8DF 7180		ldr r7, [pc, #+384] ; 0x5BA328
005BFA70  463A     		mov r2, r7
005BFA72  2180     		mov r1, #128 ; 128
005BFA74  4600     		mov r0, r0
005BFA76  F85F 4710		ldr r4, [pc, #-1808] ; 0x48F96D
005BFA7A  F044 0401		orr r4, r4, #1
005BFA7E  47A0     		blx r4
005BFA80  B002     		add sp, sp, #8

#1928		{L:588}
(*) INT
005BFA82  F85F 7748		ldr r7, [pc, #-1864] ; 0x10
005BFA86  51F0     		str r0, [r6, +r7]

#1929
#1930
#1931		{L:589}
(*) UNDEF
005BFA88  F85F 7754		ldr r7, [pc, #-1876] ; 0x4
005BFA8C  59F0     		ldr r0, [r6, +r7]

#1932		{L:589}
(*) @BYTE
005BFA8E  F85F 7750		ldr r7, [pc, #-1872] ; 0x1C
005BFA92  59F7     		ldr r7, [r6, +r7]
005BFA94  19C0     		add r0, r0, r7

#1933		{L:589}
(-) @BYTE
005BFA96  3814     		sub r0, r0, #20

#1934		{L:589}
(*) @BYTE
005BFA98  F85F 7748		ldr r7, [pc, #-1864] ; 0xF4
005BFA9C  51F0     		str r0, [r6, +r7]

#1935		{L:589}
(*) UNDEF
005BFA9E  F85F 7754		ldr r7, [pc, #-1876] ; 0x2C
005BFAA2  59F0     		ldr r0, [r6, +r7]

#1936		{L:589}
(-) @BYTE
005BFAA4  B082     		sub sp, sp, #8
005BFAA6  F85F 7754		ldr r7, [pc, #-1876] ; 0xF4
005BFAAA  59F7     		ldr r7, [r6, +r7]
005BFAAC  F8CD 7000		str r7, [sp]
005BFAB0  2332     		mov r3, #50 ; 50
005BFAB2  F85F 76FC		ldr r7, [pc, #-1788] ; 0x5BA2B0
005BFAB6  463A     		mov r2, r7
005BFAB8  2180     		mov r1, #128 ; 128
005BFABA  4600     		mov r0, r0
005BFABC  F85F 4754		ldr r4, [pc, #-1876] ; 0x48FB19
005BFAC0  F044 0401		orr r4, r4, #1
005BFAC4  47A0     		blx r4
005BFAC6  B002     		add sp, sp, #8

#1937		{L:589}
(*) INT
005BFAC8  F85F 7790		ldr r7, [pc, #-1936] ; 0x10
005BFACC  51F0     		str r0, [r6, +r7]

#1938
#1939
#1940		{L:590}
(*) INT
005BFACE  F85F 0724		ldr r0, [pc, #-1828] ; 0x5BA278

#1941		{L:590}
(*) DWORD
005BFAD2  F85F 7780		ldr r7, [pc, #-1920] ; 0xF4
005BFAD6  51F0     		str r0, [r6, +r7]

#1942		{L:590}
(-) UNDEF
005BFAD8  2001     		mov r0, #1 ; 1

#1943		{L:590}
(-) USINT
005BFADA  F85F 7790		ldr r7, [pc, #-1936] ; 0x2C
005BFADE  59F3     		ldr r3, [r6, +r7]
005BFAE0  F85F 7790		ldr r7, [pc, #-1936] ; 0xF4
005BFAE4  59F2     		ldr r2, [r6, +r7]
005BFAE6  F04F 6100		mov r1, #134217728 ; 134217728
005BFAEA  4600     		mov r0, r0
005BFAEC  F85F 477C		ldr r4, [pc, #-1916] ; 0x48FE35
005BFAF0  F044 0401		orr r4, r4, #1
005BFAF4  47A0     		blx r4

#1944		{L:590}
(*) BOOL
005BFAF6  F85F 77BC		ldr r7, [pc, #-1980] ; 0x10
005BFAFA  51F0     		str r0, [r6, +r7]

#1945
#1946
#1947
#1948
(-) UDINT
005BFAFC  E260     		b #1216 ; 0x005BFFC0


#1949
#1950
#1951
#1952		{L:597}
(*) UNDEF
005BFB00  F85F 77CC		ldr r7, [pc, #-1996] ; 0x4
005BFB04  59F0     		ldr r0, [r6, +r7]

#1953		{L:597}
(*) @BYTE
005BFB06  F85F 77C8		ldr r7, [pc, #-1992] ; 0x1C
005BFB0A  59F7     		ldr r7, [r6, +r7]
005BFB0C  19C0     		add r0, r0, r7

#1954		{L:597}
(*) @BYTE
005BFB0E  F85F 77BC		ldr r7, [pc, #-1980] ; 0xF4
005BFB12  51F0     		str r0, [r6, +r7]

#1955		{L:597}
(*) UNDEF
005BFB14  F44F 7000		mov r0, #512 ; 512

#1956		{L:597}
(*) UINT
005BFB18  F85F 77DC		ldr r7, [pc, #-2012] ; 0x1C
005BFB1C  59F7     		ldr r7, [r6, +r7]
005BFB1E  1BC0     		sub r0, r0, r7

#1957		{L:597}
(*) UDINT
005BFB20  F85F 77CC		ldr r7, [pc, #-1996] ; 0xFC
005BFB24  51F0     		str r0, [r6, +r7]

#1958		{L:597}
(*) UNDEF
005BFB26  F85F 77F0		ldr r7, [pc, #-2032] ; 0x4
005BFB2A  59F0     		ldr r0, [r6, +r7]

#1959		{L:597}
(-) @BYTE
005BFB2C  F85F 77D8		ldr r7, [pc, #-2008] ; 0xFC
005BFB30  59F2     		ldr r2, [r6, +r7]
005BFB32  F85F 77E0		ldr r7, [pc, #-2016] ; 0xF4
005BFB36  59F1     		ldr r1, [r6, +r7]
005BFB38  4600     		mov r0, r0
005BFB3A  F85F 47C4		ldr r4, [pc, #-1988] ; 0x4907E5
005BFB3E  F044 0401		orr r4, r4, #1
005BFB42  47A0     		blx r4

#1960		{L:597}
(*) @USINT
005BFB44  F85F 780C		ldr r7, [pc, #-2060] ; 0x10
005BFB48  51F0     		str r0, [r6, +r7]

#1961
#1962
#1963		{L:598}
(*) UNDEF
005BFB4A  F85F 7818		ldr r7, [pc, #-2072] ; 0x1
005BFB4E  5DF0     		ldrb r0, [r6, +r7]

#1964		{L:598}
(-) USINT
005BFB50  1C40     		add r0, r0, #1

#1965		{L:598}
(*) USINT
005BFB52  F85F 7820		ldr r7, [pc, #-2080] ; 0x1
005BFB56  55F0     		strb r0, [r6, +r7]

#1966
(-) USINT
005BFB58  E232     		b #1124 ; 0x005BFFC0


#1967
#1968
#1969
#1970		{L:604}
(*) USINT
005BFB5C  F8DF 0070		ldr r0, [pc, #+112] ; 0x5BA1C4

#1971		{L:604}
(*) DWORD
005BFB60  F85F 7810		ldr r7, [pc, #-2064] ; 0xF4
005BFB64  51F0     		str r0, [r6, +r7]

#1972		{L:604}
(*) UNDEF
005BFB66  F85F 7830		ldr r7, [pc, #-2096] ; 0x4
005BFB6A  59F0     		ldr r0, [r6, +r7]

#1973		{L:604}
(-) @BYTE
005BFB6C  2204     		mov r2, #4 ; 4
005BFB6E  F85F 781C		ldr r7, [pc, #-2076] ; 0xF4
005BFB72  59F1     		ldr r1, [r6, +r7]
005BFB74  4600     		mov r0, r0
005BFB76  F85F 47FC		ldr r4, [pc, #-2044] ; 0x4908DD
005BFB7A  F044 0401		orr r4, r4, #1
005BFB7E  47A0     		blx r4

#1974		{L:604}
(*) @USINT
005BFB80  F8DF 7044		ldr r7, [pc, #+68] ; 0x28
005BFB84  51F0     		str r0, [r6, +r7]

#1975
#1976
#1977
#1978		{L:605}
(*) UNDEF
005BFB86  F8DF 7040		ldr r7, [pc, #+64] ; 0x28
005BFB8A  59F0     		ldr r0, [r6, +r7]

#1979		{L:605}
(*) @BYTE
005BFB8C  2700     		mov r7, #0 ; 0
005BFB8E  42B8     		cmp r0, r7
005BFB90  BF18 2000		nemov r0, #0
005BFB94  BF08 2001		eqmov r0, #1

#1980		{L:605}
(-) BOOL
005BFB98  2800     		cmp r0, #0
005BFB9A  D002     		beq #4 ; 0x005BFBA2


#1981
#1982
#1983
#1984
#1985
#1986
(-) BOOL
005BFB9E  E20F     		b #1054 ; 0x005BFFC0


#1987
#1988
#1989
#1990
#1991		{L:610}
(*) BOOL
005BFBA2  2000     		mov r0, #0 ; 0
005BFBA4  F85F 7864		ldr r7, [pc, #-2148] ; 0x20
005BFBA8  51F0     		str r0, [r6, +r7]

#1992
#1993
#1994		{L:611}
(*) UNDEF
005BFBAA  F8DF 701C		ldr r7, [pc, #+28] ; 0x28
005BFBAE  59F0     		ldr r0, [r6, +r7]

#1995		{L:611}
(*) @BYTE
005BFBB0  F85F 787C		ldr r7, [pc, #-2172] ; 0x4
005BFBB4  59F7     		ldr r7, [r6, +r7]
005BFBB6  1BC0     		sub r0, r0, r7

#1996		{L:611}
(*) @BYTE
005BFBB8  F8DF 7008		ldr r7, [pc, #+8] ; 0x14
005BFBBC  51F0     		str r0, [r6, +r7]

005BFBBE  E019     		b #50

005BFBC0  00000008		; 0x00000008
005BFBC4  00000014		; 0x00000014
005BFBC8  00000028		; 0x00000028
005BFBCC  004909F1		; 0x004909F1
005BFBD0  005BA1C4		; 0x005BA1C4
005BFBD4  005BA2BC		; 0x005BA2BC
005BFBD8  005BA2D8		; 0x005BA2D8
005BFBDC  005BA2DC		; 0x005BA2DC
005BFBE0  005BA2F8		; 0x005BA2F8
005BFBE4  005BA2FC		; 0x005BA2FC
005BFBE8  005BA300		; 0x005BA300
005BFBEC  005BA314		; 0x005BA314
005BFBF0  005BA328		; 0x005BA328

#1997
#1998
#1999		{L:612}
(*) UNDEF
005BFBF4  F44F 7000		mov r0, #512 ; 512

#2000		{L:612}
(*) UINT
005BFBF8  F85F 7038		ldr r7, [pc, #-56] ; 0x14
005BFBFC  59F7     		ldr r7, [r6, +r7]
005BFBFE  1BC0     		sub r0, r0, r7

#2001		{L:612}
(*) UDINT
005BFC00  F85F 78AC		ldr r7, [pc, #-2220] ; 0xFC
005BFC04  51F0     		str r0, [r6, +r7]

#2002		{L:612}
(*) UNDEF
005BFC06  F85F 78D0		ldr r7, [pc, #-2256] ; 0x4
005BFC0A  59F0     		ldr r0, [r6, +r7]

#2003		{L:612}
(-) @BYTE
005BFC0C  F85F 78B8		ldr r7, [pc, #-2232] ; 0xFC
005BFC10  59F2     		ldr r2, [r6, +r7]
005BFC12  F85F 704C		ldr r7, [pc, #-76] ; 0x28
005BFC16  59F1     		ldr r1, [r6, +r7]
005BFC18  4600     		mov r0, r0
005BFC1A  F85F 48A4		ldr r4, [pc, #-2212] ; 0x4907E5
005BFC1E  F044 0401		orr r4, r4, #1
005BFC22  47A0     		blx r4

#2004		{L:612}
(*) @USINT
005BFC24  F85F 78EC		ldr r7, [pc, #-2284] ; 0x10
005BFC28  51F0     		str r0, [r6, +r7]

#2005
#2006
#2007		{L:613}
(*) @USINT
005BFC2A  2097     		mov r0, #151 ; 151
005BFC2C  F85F 78FC		ldr r7, [pc, #-2300] ; 0x1
005BFC30  55F0     		strb r0, [r6, +r7]

#2008
(-) USINT
005BFC32  E1C5     		b #906 ; 0x005BFFC0


#2009
#2010
#2011
#2012		{L:628}
(*) UNDEF
005BFC36  F85F 78E8		ldr r7, [pc, #-2280] ; 0xEC
005BFC3A  59F0     		ldr r0, [r6, +r7]

#2013		{L:628}
(*) UDINT
005BFC3C  F85F 7900		ldr r7, [pc, #-2304] ; 0x1C
005BFC40  59F7     		ldr r7, [r6, +r7]
005BFC42  19C0     		add r0, r0, r7

#2014		{L:628}
(*) UDINT
005BFC44  F85F 78F8		ldr r7, [pc, #-2296] ; 0xEC
005BFC48  51F0     		str r0, [r6, +r7]

#2015
#2016
#2017		{L:629}
(*) UNDEF
005BFC4A  F8DF 7388		ldr r7, [pc, #+904] ; 0x9C
005BFC4E  59F0     		ldr r0, [r6, +r7]

#2018		{L:629}
(-) @BYTE
005BFC50  4600     		mov r0, r0
005BFC52  F85F 4088		ldr r4, [pc, #-136] ; 0x4909F1
005BFC56  F044 0401		orr r4, r4, #1
005BFC5A  47A0     		blx r4

#2019		{L:629}
(*) UDINT
005BFC5C  F85F 7924		ldr r7, [pc, #-2340] ; 0x10
005BFC60  51F0     		str r0, [r6, +r7]

#2020
#2021
#2022
#2023		{L:630}
(*) UNDEF
005BFC62  F8DF 7374		ldr r7, [pc, #+884] ; 0xA0
005BFC66  59F0     		ldr r0, [r6, +r7]

#2024		{L:630}
(*) UDINT
005BFC68  F85F 7930		ldr r7, [pc, #-2352] ; 0x10
005BFC6C  59F7     		ldr r7, [r6, +r7]
005BFC6E  1BC0     		sub r0, r0, r7

#2025		{L:630}
(-) UDINT
005BFC70  1E40     		sub r0, r0, #1

#2026		{L:630}
(*) UDINT
005BFC72  F85F 7934		ldr r7, [pc, #-2356] ; 0x1C
005BFC76  59F7     		ldr r7, [r6, +r7]
005BFC78  42B8     		cmp r0, r7
005BFC7A  BF38 2000		lomov r0, #0
005BFC7E  BF28 2001		hsmov r0, #1

#2027		{L:630}
(-) BOOL
005BFC82  2800     		cmp r0, #0
005BFC84  D01C     		beq #56 ; 0x005BFCC0


#2028
#2029
#2030
#2031
#2032		{L:630}
(*) UNDEF
005BFC88  F8DF 7348		ldr r7, [pc, #+840] ; 0x9C
005BFC8C  59F0     		ldr r0, [r6, +r7]

#2033		{L:630}
(*) @BYTE
005BFC8E  F85F 7954		ldr r7, [pc, #-2388] ; 0x10
005BFC92  59F7     		ldr r7, [r6, +r7]
005BFC94  19C0     		add r0, r0, r7

#2034		{L:630}
(*) @BYTE
005BFC96  F85F 7944		ldr r7, [pc, #-2372] ; 0xF4
005BFC9A  51F0     		str r0, [r6, +r7]

#2035		{L:630}
(*) UNDEF
005BFC9C  F85F 794C		ldr r7, [pc, #-2380] ; 0xF4
005BFCA0  59F0     		ldr r0, [r6, +r7]

#2036		{L:630}
(-) @UNDEF
005BFCA2  F85F 7964		ldr r7, [pc, #-2404] ; 0x1C
005BFCA6  59F2     		ldr r2, [r6, +r7]
005BFCA8  F85F 7974		ldr r7, [pc, #-2420] ; 0x4
005BFCAC  59F1     		ldr r1, [r6, +r7]
005BFCAE  4600     		mov r0, r0
005BFCB0  F85F 493C		ldr r4, [pc, #-2364] ; 0x4907E5
005BFCB4  F044 0401		orr r4, r4, #1
005BFCB8  47A0     		blx r4

#2037		{L:630}
(*) @USINT
005BFCBA  F85F 7980		ldr r7, [pc, #-2432] ; 0x10
005BFCBE  51F0     		str r0, [r6, +r7]

#2038
#2039
#2040
#2041
#2042
#2043
#2044		{L:631}
(*) UNDEF
005BFCC0  4630     		mov r0, r6
005BFCC2  F8DF 730C		ldr r7, [pc, #+780] ; 0x78
005BFCC6  19C0     		add r0, r0, r7

#2045		{L:631}
(*) STRING
005BFCC8  F8DF 4348		ldr r4, [pc, #+840] ; 0x4A4729
005BFCCC  F044 0401		orr r4, r4, #1
005BFCD0  47A0     		blx r4

#2046		{L:631}
(*) UINT
005BFCD2  2800     		cmp r0, #0
005BFCD4  BF18 2000		nemov r0, #0
005BFCD8  BF08 2001		eqmov r0, #1

#2047		{L:631}
(-) BOOL
005BFCDC  2800     		cmp r0, #0
005BFCDE  D006     		beq #12 ; 0x005BFCEE


#2048
#2049
#2050
#2051
#2052		{L:631}
(*) BOOL
005BFCE2  7830     		ldrb r0, [r6]
005BFCE4  F85F 79B4		ldr r7, [pc, #-2484] ; 0x1
005BFCE8  55F0     		strb r0, [r6, +r7]

#2053
#2054
#2055
#2056
(-) USINT
005BFCEA  E169     		b #722 ; 0x005BFFC0


#2057
#2058
#2059
#2060
#2061		{L:635}
(*) UNDEF
005BFCEE  4630     		mov r0, r6
005BFCF0  F8DF 72DC		ldr r7, [pc, #+732] ; 0x78
005BFCF4  19C0     		add r0, r0, r7

#2062		{L:635}
(-) STRING
005BFCF6  F8DF 7320		ldr r7, [pc, #+800] ; 0x5BA33A
005BFCFA  4639     		mov r1, r7
005BFCFC  F8DF 4300		ldr r4, [pc, #+768] ; 0x4909FD
005BFD00  F044 0401		orr r4, r4, #1
005BFD04  47A0     		blx r4

#2063		{L:635}
(*) UDINT
005BFD06  F8DF 72C0		ldr r7, [pc, #+704] ; 0xC
005BFD0A  51F0     		str r0, [r6, +r7]

#2064
#2065
#2066
#2067		{L:636}
(*) UNDEF
005BFD0C  F8DF 72B8		ldr r7, [pc, #+696] ; 0xC
005BFD10  59F0     		ldr r0, [r6, +r7]

#2068		{L:636}
(*) UDINT
005BFD12  2700     		mov r7, #0 ; 0
005BFD14  42B8     		cmp r0, r7
005BFD16  BF18 2000		nemov r0, #0
005BFD1A  BF08 2001		eqmov r0, #1

#2069		{L:636}
(-) BOOL
005BFD1E  2800     		cmp r0, #0
005BFD20  D008     		beq #16 ; 0x005BFD34


#2070
#2071
#2072
#2073
#2074		{L:636}
(*) BOOL
005BFD24  F8DF 72F4		ldr r7, [pc, #+756] ; 0x5BA33C
005BFD28  6838     		ldr r0, [r7]
005BFD2A  F85F 716C		ldr r7, [pc, #-364] ; 0x8
005BFD2E  51F0     		str r0, [r6, +r7]

#2075
#2076
#2077
#2078
(-) UDINT
005BFD30  E146     		b #652 ; 0x005BFFC0


#2079
#2080
#2081
#2082
#2083
#2084		{L:640}
(*) UNDEF
005BFD34  4630     		mov r0, r6
005BFD36  F8DF 7298		ldr r7, [pc, #+664] ; 0x78
005BFD3A  19C0     		add r0, r0, r7

#2085		{L:640}
(-) STRING
005BFD3C  F8DF 42B4		ldr r4, [pc, #+692] ; 0x48F5A1
005BFD40  F044 0401		orr r4, r4, #1
005BFD44  47A0     		blx r4

#2086		{L:640}
(*) DINT
005BFD46  F8DF 72A4		ldr r7, [pc, #+676] ; 0x10C
005BFD4A  51F0     		str r0, [r6, +r7]

#2087		{L:640}
(*) UNDEF
005BFD4C  F8DF 7278		ldr r7, [pc, #+632] ; 0xC
005BFD50  59F0     		ldr r0, [r6, +r7]

#2088		{L:640}
(-) UDINT
005BFD52  2200     		mov r2, #0 ; 0
005BFD54  F8DF 7294		ldr r7, [pc, #+660] ; 0x10C
005BFD58  59F1     		ldr r1, [r6, +r7]
005BFD5A  4600     		mov r0, r0
005BFD5C  F8DF 4298		ldr r4, [pc, #+664] ; 0x48F5D5
005BFD60  F044 0401		orr r4, r4, #1
005BFD64  47A0     		blx r4

#2089		{L:640}
(*) DINT
005BFD66  F04F 37FF		mov r7, #4294967295 ; 4294967295
005BFD6A  42B8     		cmp r0, r7
005BFD6C  BF18 2000		nemov r0, #0
005BFD70  BF08 2001		eqmov r0, #1

#2090		{L:640}
(-) BOOL
005BFD74  2800     		cmp r0, #0
005BFD76  D014     		beq #40 ; 0x005BFDA2


#2091
#2092
#2093
#2094
#2095		{L:641}
(*) UNDEF
005BFD7A  F8DF 724C		ldr r7, [pc, #+588] ; 0xC
005BFD7E  59F0     		ldr r0, [r6, +r7]

#2096		{L:641}
(-) UDINT
005BFD80  4600     		mov r0, r0
005BFD82  F8DF 4280		ldr r4, [pc, #+640] ; 0x490A61
005BFD86  F044 0401		orr r4, r4, #1
005BFD8A  47A0     		blx r4

#2097		{L:641}
(*) INT
005BFD8C  F85F 7A54		ldr r7, [pc, #-2644] ; 0x10
005BFD90  51F0     		str r0, [r6, +r7]

#2098
#2099
#2100		{L:642}
(*) INT
005BFD92  F8DF 7288		ldr r7, [pc, #+648] ; 0x5BA33C
005BFD96  6838     		ldr r0, [r7]
005BFD98  F85F 71DC		ldr r7, [pc, #-476] ; 0x8
005BFD9C  51F0     		str r0, [r6, +r7]

#2101
#2102
#2103
#2104
(-) UDINT
005BFD9E  E10F     		b #542 ; 0x005BFFC0


#2105
#2106
#2107
#2108
#2109
#2110		{L:648}
(*) UNDEF
005BFDA2  F85F 7A64		ldr r7, [pc, #-2660] ; 0x1C
005BFDA6  59F0     		ldr r0, [r6, +r7]

#2111		{L:648}
(-) UDINT
#2112		{L:648}
(*) INT
005BFDA8  F8DF 723C		ldr r7, [pc, #+572] ; 0x100
005BFDAC  53F0     		strh r0, [r6, +r7]

#2113		{L:648}
(*) UNDEF
005BFDAE  F85F 7A78		ldr r7, [pc, #-2680] ; 0x4
005BFDB2  59F0     		ldr r0, [r6, +r7]

#2114		{L:648}
(-) @BYTE
005BFDB4  F8DF 7210		ldr r7, [pc, #+528] ; 0xC
005BFDB8  59F3     		ldr r3, [r6, +r7]
005BFDBA  2201     		mov r2, #1 ; 1
005BFDBC  F8DF 7228		ldr r7, [pc, #+552] ; 0x100
005BFDC0  5FF1     		ldrsh r1, [r6, +r7]
005BFDC2  4600     		mov r0, r0
005BFDC4  F8DF 4240		ldr r4, [pc, #+576] ; 0x490C01
005BFDC8  F044 0401		orr r4, r4, #1
005BFDCC  47A0     		blx r4

#2115		{L:648}
(*) INT
005BFDCE  F85F 7A74		ldr r7, [pc, #-2676] ; 0x102
005BFDD2  53F0     		strh r0, [r6, +r7]

#2116		{L:648}
(*) UNDEF
005BFDD4  F85F 7A98		ldr r7, [pc, #-2712] ; 0x1C
005BFDD8  59F0     		ldr r0, [r6, +r7]

#2117		{L:648}
(-) UDINT
#2118		{L:648}
(*) INT
005BFDDA  F8DF 7214		ldr r7, [pc, #+532] ; 0x110
005BFDDE  53F0     		strh r0, [r6, +r7]

#2119		{L:648}
(*) UNDEF
005BFDE0  F85F 7A88		ldr r7, [pc, #-2696] ; 0x102
005BFDE4  5FF0     		ldrsh r0, [r6, +r7]

#2120		{L:648}
(*) INT
005BFDE6  F8DF 7208		ldr r7, [pc, #+520] ; 0x110
005BFDEA  5FF7     		ldrsh r7, [r6, +r7]
005BFDEC  42B8     		cmp r0, r7
005BFDEE  BF08 2000		eqmov r0, #0
005BFDF2  BF18 2001		nemov r0, #1

#2121		{L:648}
(-) BOOL
005BFDF6  2800     		cmp r0, #0
005BFDF8  D014     		beq #40 ; 0x005BFE24


#2122
#2123
#2124
#2125
#2126		{L:649}
(*) UNDEF
005BFDFC  F8DF 71C8		ldr r7, [pc, #+456] ; 0xC
005BFE00  59F0     		ldr r0, [r6, +r7]

#2127		{L:649}
(-) UDINT
005BFE02  4600     		mov r0, r0
005BFE04  F8DF 41FC		ldr r4, [pc, #+508] ; 0x490A61
005BFE08  F044 0401		orr r4, r4, #1
005BFE0C  47A0     		blx r4

#2128		{L:649}
(*) INT
005BFE0E  F85F 7AD4		ldr r7, [pc, #-2772] ; 0x10
005BFE12  51F0     		str r0, [r6, +r7]

#2129
#2130
#2131		{L:650}
(*) INT
005BFE14  F8DF 7204		ldr r7, [pc, #+516] ; 0x5BA33C
005BFE18  6838     		ldr r0, [r7]
005BFE1A  F85F 725C		ldr r7, [pc, #-604] ; 0x8
005BFE1E  51F0     		str r0, [r6, +r7]

#2132
#2133
#2134
#2135
(-) UDINT
005BFE20  E0CE     		b #412 ; 0x005BFFC0


#2136
#2137
#2138
#2139
#2140		{L:656}
(*) UNDEF
005BFE24  F8DF 71A0		ldr r7, [pc, #+416] ; 0xC
005BFE28  59F0     		ldr r0, [r6, +r7]

#2141		{L:656}
(-) UDINT
005BFE2A  4600     		mov r0, r0
005BFE2C  F8DF 41D4		ldr r4, [pc, #+468] ; 0x490A61
005BFE30  F044 0401		orr r4, r4, #1
005BFE34  47A0     		blx r4

#2142		{L:656}
(*) INT
005BFE36  F85F 7AFC		ldr r7, [pc, #-2812] ; 0x10
005BFE3A  51F0     		str r0, [r6, +r7]

#2143
#2144
#2145		{L:657}
(*) INT
005BFE3C  7830     		ldrb r0, [r6]
005BFE3E  F85F 7B0C		ldr r7, [pc, #-2828] ; 0x1
005BFE42  55F0     		strb r0, [r6, +r7]

#2146
(-) USINT
005BFE44  E0BC     		b #376 ; 0x005BFFC0


#2147
#2148
#2149
#2150
#2151		{L:669}
(*) UNDEF
005BFE48  F85F 7B00		ldr r7, [pc, #-2816] ; 0x2C
005BFE4C  59F0     		ldr r0, [r6, +r7]

#2152		{L:669}
(*) @BYTE
005BFE4E  2700     		mov r7, #0 ; 0
005BFE50  42B8     		cmp r0, r7
005BFE52  BF08 2000		eqmov r0, #0
005BFE56  BF18 2001		nemov r0, #1

#2153		{L:669}
(-) BOOL
005BFE5A  2800     		cmp r0, #0
005BFE5C  D036     		beq #108 ; 0x005BFECC


#2154
#2155
#2156
#2157
#2158		{L:670}
(*) BOOL
005BFE60  4630     		mov r0, r6
005BFE62  F85F 7B14		ldr r7, [pc, #-2836] ; 0xEC
005BFE66  19C0     		add r0, r0, r7

#2159		{L:670}
(*) DWORD
005BFE68  F85F 7B18		ldr r7, [pc, #-2840] ; 0xF4
005BFE6C  51F0     		str r0, [r6, +r7]

#2160		{L:670}
(*) UNDEF
005BFE6E  F85F 7B24		ldr r7, [pc, #-2852] ; 0x2C
005BFE72  59F0     		ldr r0, [r6, +r7]

#2161		{L:670}
(-) @BYTE
005BFE74  B082     		sub sp, sp, #8
005BFE76  F85F 7B24		ldr r7, [pc, #-2852] ; 0xF4
005BFE7A  59F7     		ldr r7, [r6, +r7]
005BFE7C  F8CD 7000		str r7, [sp]
005BFE80  232A     		mov r3, #42 ; 42
005BFE82  F8DF 719C		ldr r7, [pc, #+412] ; 0x5BA340
005BFE86  463A     		mov r2, r7
005BFE88  2180     		mov r1, #128 ; 128
005BFE8A  4600     		mov r0, r0
005BFE8C  F85F 4B28		ldr r4, [pc, #-2856] ; 0x48F96D
005BFE90  F044 0401		orr r4, r4, #1
005BFE94  47A0     		blx r4
005BFE96  B002     		add sp, sp, #8

#2162		{L:670}
(*) INT
005BFE98  F85F 7B60		ldr r7, [pc, #-2912] ; 0x10
005BFE9C  51F0     		str r0, [r6, +r7]

#2163
#2164
#2165		{L:671}
(*) INT
005BFE9E  F8DF 0184		ldr r0, [pc, #+388] ; 0x5BA354

#2166		{L:671}
(*) DWORD
005BFEA2  F85F 7B50		ldr r7, [pc, #-2896] ; 0xF4
005BFEA6  51F0     		str r0, [r6, +r7]

#2167		{L:671}
(-) UNDEF
005BFEA8  2001     		mov r0, #1 ; 1

#2168		{L:671}
(-) USINT
005BFEAA  F85F 7B60		ldr r7, [pc, #-2912] ; 0x2C
005BFEAE  59F3     		ldr r3, [r6, +r7]
005BFEB0  F85F 7B60		ldr r7, [pc, #-2912] ; 0xF4
005BFEB4  59F2     		ldr r2, [r6, +r7]
005BFEB6  F04F 5180		mov r1, #268435456 ; 268435456
005BFEBA  4600     		mov r0, r0
005BFEBC  F85F 4B4C		ldr r4, [pc, #-2892] ; 0x48FE35
005BFEC0  F044 0401		orr r4, r4, #1
005BFEC4  47A0     		blx r4

#2169		{L:671}
(*) BOOL
005BFEC6  F85F 7B8C		ldr r7, [pc, #-2956] ; 0x10
005BFECA  51F0     		str r0, [r6, +r7]

#2170
#2171
#2172
#2173
#2174
#2175		{L:677}
(-) UNDEF
005BFECC  2001     		mov r0, #1 ; 1

#2176		{L:677}
(-) BOOL
005BFECE  4600     		mov r0, r0
005BFED0  F8DF 4128		ldr r4, [pc, #+296] ; 0x490519
005BFED4  F044 0401		orr r4, r4, #1
005BFED8  47A0     		blx r4

#2177		{L:677}
(*) UDINT
005BFEDA  F8DF 70F0		ldr r7, [pc, #+240] ; 0x5C
005BFEDE  59F7     		ldr r7, [r6, +r7]
005BFEE0  1BC0     		sub r0, r0, r7

#2178		{L:677}
(*) UDINT
005BFEE2  F85F 7B8C		ldr r7, [pc, #-2956] ; 0xFC
005BFEE6  51F0     		str r0, [r6, +r7]

#2179		{L:677}
(*) UNDEF
005BFEE8  F85F 7B94		ldr r7, [pc, #-2964] ; 0xFC
005BFEEC  59F0     		ldr r0, [r6, +r7]

#2180		{L:677}
(*) UDINT
005BFEEE  F8DF 411C		ldr r4, [pc, #+284] ; 0x4A4509
005BFEF2  F044 0401		orr r4, r4, #1
005BFEF6  47A0     		blx r4

#2181		{L:677}
(*) REAL
005BFEF8  B082     		sub sp, sp, #8
005BFEFA  F8CD 1000		str r1, [sp]
005BFEFE  F8DF 7128		ldr r7, [pc, #+296] ; 0x5BA358
005BFF02  6839     		ldr r1, [r7]
005BFF04  F8DF 4108		ldr r4, [pc, #+264] ; 0x4A4585
005BFF08  F044 0401		orr r4, r4, #1
005BFF0C  47A0     		blx r4
005BFF0E  F8DD 1000		ldr r1, [sp]
005BFF12  B002     		add sp, sp, #8

#2182		{L:677}
(*) REAL
005BFF14  F8DF 70CC		ldr r7, [pc, #+204] ; 0xF0
005BFF18  51F0     		str r0, [r6, +r7]

#2183
#2184
#2185		{L:678}
(*) UNDEF
005BFF1A  F85F 7BE8		ldr r7, [pc, #-3048] ; 0x1
005BFF1E  5DF0     		ldrb r0, [r6, +r7]

#2186		{L:678}
(-) USINT
005BFF20  1C40     		add r0, r0, #1

#2187		{L:678}
(*) USINT
005BFF22  F85F 7BF0		ldr r7, [pc, #-3056] ; 0x1
005BFF26  55F0     		strb r0, [r6, +r7]

#2188
(-) USINT
005BFF28  E04A     		b #148 ; 0x005BFFC0


#2189
#2190
#2191
#2192		{L:686}
(*) USINT
005BFF2C  2001     		mov r0, #1 ; 1
005BFF2E  F8DF 70B0		ldr r7, [pc, #+176] ; 0xA9
005BFF32  55F0     		strb r0, [r6, +r7]

#2193
#2194
#2195		{L:687}
(*) BOOL
005BFF34  2001     		mov r0, #1 ; 1
005BFF36  F8DF 70A4		ldr r7, [pc, #+164] ; 0xA8
005BFF3A  55F0     		strb r0, [r6, +r7]

#2196
#2197
#2198
#2199		{L:691}
(*) UNDEF
005BFF3C  F85F 7BF4		ldr r7, [pc, #-3060] ; 0x2C
005BFF40  59F0     		ldr r0, [r6, +r7]

#2200		{L:691}
(*) @BYTE
005BFF42  2700     		mov r7, #0 ; 0
005BFF44  42B8     		cmp r0, r7
005BFF46  BF08 2000		eqmov r0, #0
005BFF4A  BF18 2001		nemov r0, #1

#2201		{L:691}
(-) BOOL
005BFF4E  2800     		cmp r0, #0
005BFF50  D036     		beq #108 ; 0x005BFFC0


#2202
#2203
#2204
#2205
#2206		{L:692}
(*) BOOL
005BFF54  4630     		mov r0, r6
005BFF56  F8DF 708C		ldr r7, [pc, #+140] ; 0xF0
005BFF5A  19C0     		add r0, r0, r7

#2207		{L:692}
(*) DWORD
005BFF5C  F85F 7C0C		ldr r7, [pc, #-3084] ; 0xF4
005BFF60  51F0     		str r0, [r6, +r7]

#2208		{L:692}
(*) UNDEF
005BFF62  F85F 7C18		ldr r7, [pc, #-3096] ; 0x2C
005BFF66  59F0     		ldr r0, [r6, +r7]

#2209		{L:692}
(-) @BYTE
005BFF68  B082     		sub sp, sp, #8
005BFF6A  F85F 7C18		ldr r7, [pc, #-3096] ; 0xF4
005BFF6E  59F7     		ldr r7, [r6, +r7]
005BFF70  F8CD 7000		str r7, [sp]
005BFF74  232B     		mov r3, #43 ; 43
005BFF76  F8DF 70B4		ldr r7, [pc, #+180] ; 0x5BA35C
005BFF7A  463A     		mov r2, r7
005BFF7C  2180     		mov r1, #128 ; 128
005BFF7E  4600     		mov r0, r0
005BFF80  F85F 4C1C		ldr r4, [pc, #-3100] ; 0x48F96D
005BFF84  F044 0401		orr r4, r4, #1
005BFF88  47A0     		blx r4
005BFF8A  B002     		add sp, sp, #8

#2210		{L:692}
(*) INT
005BFF8C  F85F 7C54		ldr r7, [pc, #-3156] ; 0x10
005BFF90  51F0     		str r0, [r6, +r7]

#2211
#2212
#2213		{L:693}
(*) INT
005BFF92  F8DF 0090		ldr r0, [pc, #+144] ; 0x5BA354

#2214		{L:693}
(*) DWORD
005BFF96  F85F 7C44		ldr r7, [pc, #-3140] ; 0xF4
005BFF9A  51F0     		str r0, [r6, +r7]

#2215		{L:693}
(-) UNDEF
005BFF9C  2001     		mov r0, #1 ; 1

#2216		{L:693}
(-) USINT
005BFF9E  F85F 7C54		ldr r7, [pc, #-3156] ; 0x2C
005BFFA2  59F3     		ldr r3, [r6, +r7]
005BFFA4  F85F 7C54		ldr r7, [pc, #-3156] ; 0xF4
005BFFA8  59F2     		ldr r2, [r6, +r7]
005BFFAA  F04F 5180		mov r1, #268435456 ; 268435456
005BFFAE  4600     		mov r0, r0
005BFFB0  F85F 4C40		ldr r4, [pc, #-3136] ; 0x48FE35
005BFFB4  F044 0401		orr r4, r4, #1
005BFFB8  47A0     		blx r4

#2217		{L:693}
(*) BOOL
005BFFBA  F85F 7C80		ldr r7, [pc, #-3200] ; 0x10
005BFFBE  51F0     		str r0, [r6, +r7]

005BFFC0  E8BD 4040		ldmia sp!, { r6, lr }

005BFFC4  4770     		bx lr

005BFFC8  0000000C		; 0x0000000C
005BFFCC  0000005C		; 0x0000005C
005BFFD0  00000078		; 0x00000078
005BFFD4  0000009C		; 0x0000009C
005BFFD8  000000A0		; 0x000000A0
005BFFDC  000000A8		; 0x000000A8
005BFFE0  000000A9		; 0x000000A9
005BFFE4  000000F0		; 0x000000F0
005BFFE8  00000100		; 0x00000100
005BFFEC  0000010C		; 0x0000010C
005BFFF0  00000110		; 0x00000110
005BFFF4  0048F5A1		; 0x0048F5A1
005BFFF8  0048F5D5		; 0x0048F5D5
005BFFFC  00490519		; 0x00490519
005C0000  004909FD		; 0x004909FD
005C0004  00490A61		; 0x00490A61
005C0008  00490C01		; 0x00490C01
005C000C  004A4509		; 0x004A4509
005C0010  004A4585		; 0x004A4585
005C0014  004A4729		; 0x004A4729
005C0018  005BA33A		; 0x005BA33A
005C001C  005BA33C		; 0x005BA33C
005C0020  005BA340		; 0x005BA340
005C0024  005BA354		; 0x005BA354
005C0028  005BA358		; 0x005BA358
005C002C  005BA35C		; 0x005BA35C


Frame allocation:

	0000       : VAR CaseBk
	0001       : VAR CaseNr
	0004       : VAR DBPtr
	0008       : VAR ErrorNr
	000C       : VAR Fp
	0010       : VAR i
	0014       : VAR LBf
	0028       : VAR Ptr
	002C       : VAR SBPtr
	0030       : FB TCPClient
	0058       : VAR TimeBf
	0060 bit  0: VAR Enable
	0061 bit  0: VAR SpyOn
	0064       : VAR HostAddress
	0068       : VAR HostName
	006C       : VAR HostPort
	0070       : VAR Page
	0074       : VAR Request
	0078       : VAR Filename
	009C       : VAR PBuffer
	00A0       : VAR PBLength
	00A4       : VAR Timeout
	00A8 bit  0: VAR Done
	00A9 bit  0: VAR Ok
	00AA bit  0: VAR Fault
	00AB       : VAR HTTPStatus
	00EC       : VAR PLength
	00F0       : VAR PLTime

END_FUNCTION_BLOCK
**************************************************
	List function: _GetFIFOSpace
**************************************************

FUNCTION _GetFIFOSpace : UDINT

	{ DE:"(eLLabRESTSvcLib_A500) Get the FIFO space (Private)" }

        VAR_INPUT
In : UDINT;	{ DE:"FIFO in index" }
Out : UDINT;	{ DE:"FIFO out index" }
Length : UDINT;	{ DE:"FIFO length" }
	END_VAR

END_FUNCTION

	*** Function data allocation

	Par In: CALLER STACK FRAME AT sp+0
	Par Out: CALLER STACK FRAME AT sp+4
	Par Length: CALLER STACK FRAME AT sp+8

005C0030  466F     		mov r7, sp
005C0032  B082     		sub sp, sp, #8
005C0034  F8CD E000		str lr, [sp]
005C0038  E92D 0F50		stmdb sp!, { r4, r6, r8, r9, r10, fp }
005C003C  463E     		mov r6, r7
005C003E  2400     		mov r4, #0

#0		{SRC:_GetFIFOSpace}
#1
#2
#3
#4
#5		{L:8}
(-) UNDEF
005C0040  6830     		ldr r0, [r6]

#6		{L:8}
(*) UDINT
005C0042  F8DF 7054		ldr r7, [pc, #+84] ; 0x4
005C0046  59F7     		ldr r7, [r6, +r7]
005C0048  42B8     		cmp r0, r7
005C004A  BF38 2000		lomov r0, #0
005C004E  BF28 2001		hsmov r0, #1

#7		{L:8}
(-) BOOL
005C0052  2800     		cmp r0, #0
005C0054  D013     		beq #38 ; 0x005C007E


#8
#9
#10
#11
#12		{L:9}
(*) UNDEF
005C0058  F8DF 7040		ldr r7, [pc, #+64] ; 0x8
005C005C  59F0     		ldr r0, [r6, +r7]

#13		{L:9}
(*) UDINT
005C005E  B082     		sub sp, sp, #8
005C0060  F8CD 0000		str r0, [sp]
005C0064  6830     		ldr r0, [r6]

#14		{L:9}
(*) UDINT
005C0066  F8DF 7030		ldr r7, [pc, #+48] ; 0x4
005C006A  59F7     		ldr r7, [r6, +r7]
005C006C  1BC0     		sub r0, r0, r7

#15		{L:9}
(*) UDINT
005C006E  4607     		mov r7, r0
005C0070  F8DD 0000		ldr r0, [sp]
005C0074  B002     		add sp, sp, #8
005C0076  1BC0     		sub r0, r0, r7

#16		{L:9}
(-) UDINT
005C0078  4604     		mov r4, r0

#17
(-) UDINT
005C007A  E006     		b #12 ; 0x005C008A


#18
#19
#20
#21
#22
#23		{L:11}
(*) UNDEF
005C007E  F8DF 7018		ldr r7, [pc, #+24] ; 0x4
005C0082  59F0     		ldr r0, [r6, +r7]

#24		{L:11}
(*) UDINT
005C0084  6837     		ldr r7, [r6]
005C0086  1BC0     		sub r0, r0, r7

#25		{L:11}
(-) UDINT
005C0088  4604     		mov r4, r0

005C008A  4620     		mov r0, r4
005C008C  E8BD 0F50		ldmia sp!, { r4, r6, r8, r9, r10, fp }
005C0090  F8DD E000		ldr lr, [sp]
005C0094  B002     		add sp, sp, #8

005C0096  4770     		bx lr

005C0098  00000004		; 0x00000004
005C009C  00000008		; 0x00000008

END_FUNCTION
**************************************************
	List function block: RESTWSvcClient
**************************************************

FUNCTION_BLOCK RESTWSvcClient

	{ DE:"(eLLabRESTSvcLib_A500) Manages the REST web service client" }

        VAR_INPUT
Enable : BOOL;	{ DE:"FB Enable" }
SvcAck : BOOL;	{ DE:"REST service acknowledge" }
SpyOn : BOOL;	{ DE:"Spy On" }
RPAck : USINT;	{ DE:"REST parameters acknowledge" }
HBitTime : UINT;	{ DE:"Heartbeat time (S)" }
FIFOFile : STRING[ 32 ];	{ DE:"Path and name of FIFO file" }
FIFOSize : UDINT;	{ DE:"FIFO file size" }
RESTSvBck : @RESTSERVICEBACKUP;	{ DE:"REST service backup pointer" }
HostAddress : @USINT;	{ DE:"Host address" }
HostName : @USINT;	{ DE:"Hostname" }
HostPort : UINT;	{ DE:"Host port" }
BLength : UDINT;	{ DE:"REST Request/Answer buffers length" }
Page : @USINT;	{ DE:"Page to request" }
	END_VAR

        VAR_OUTPUT
Enabled : BOOL;	{ DE:"FB enabled" }
RSvcOn : BOOL;	{ DE:"REST service active" }
SvcOk : BOOL;	{ DE:"Ok answer from REST service" }
Fault : BOOL;	{ DE:"Execution error" }
RPCount : USINT;	{ DE:"REST parameters received" }
RSvID : @RESTSERVICEBACKUP;	{ DE:"REST service ID" }
FSpace : UDINT;	{ DE:"File free space" }
PBuffer : @USINT;	{ DE:"Pointer buffer pagina REST ricevuta (RMAlloc)" }
PktsOk : UDINT;	{ DE:"REST packets Ok" }
Resyncs : UDINT;	{ DE:"REST resyncronizations" }
Errors : UDINT;	{ DE:"Service errors" }
	END_VAR

        VAR_EXTERNAL
	{G:"System_variables"}
SysActTaskID AT %MB0.64 : USINT;	{ DE:"System active task ID" }
SysUniqueID AT %MB0.360 : UDINT;	{ DE:"Unique ID" }
	END_VAR

        VAR
ABuffer : @USINT;	{ DE:"Pointer buffer ausiliario (RMAlloc)" }
CaseNr : USINT;	{ DE:"Case gestione programma" }
ErrorNr : UDINT;	{ DE:"Error number" }
FLength : DINT;	{ DE:"File length" }
Fp : UDINT;	{ DE:"File pointer" }
HTTPClient : _HTTPGetPage;	{ DE:"HTTP client" }
i : INT;	{ DE:"Auxiliary counter" }
j : UDINT;	{ DE:"Auxiliary variable" }
Length : UINT;	{ DE:"Lunghezza Record FIFO/Messaggio REST" }
MID : ARRAY[ 0..1 ] OF UINT;	{ DE:"REST service message ID" }
MLength : UDINT;	{ DE:"REST request message length" }
Ptr : ARRAY[ 0..1 ] OF @USINT;	{ DE:"Auxiliary pointer" }
RBuffer : @USINT;	{ DE:"Pointer buffer richiesta REST (RMAlloc)" }
RSv : _RESTSERVICEDATA;	{ DE:"REST service data" }
TimeBf : ARRAY[ 0..2 ] OF UDINT;	{ DE:"Time buffer (uS)" }
Type : USINT;	{ DE:"Tipo variabile in record FIFO" }
	END_VAR

        VAR CONSTANT
HexToAscii : ARRAY[ 0..15 ] OF BYTE := [16#30,16#31,16#32,16#33,16#34,16#35,16#36,16#37,16#38,16#39,16#41,16#42,16#43,16#44,16#45,16#46];	{ DE:"Hex to ascii conversion" }
	END_VAR

END_FUNCTION_BLOCK

005C00A0  E92D 4040		stmdb sp!, { r6, lr }
005C00A4  462E     		mov r6, r5

#0		{SRC:RESTWSvcClient}
#1
#2
#3
#4		{L:58}
(*) UDINT
005C00A6  F8DF 7908		ldr r7, [pc, #+2312] ; 0x5BA380
005C00AA  6838     		ldr r0, [r7]
005C00AC  F8DF 783C		ldr r7, [pc, #+2108] ; 0x148
005C00B0  51F0     		str r0, [r6, +r7]

#5
#6
#7		{L:59}
(*) UDINT
005C00B2  4630     		mov r0, r6
005C00B4  F8DF 7834		ldr r7, [pc, #+2100] ; 0x148
005C00B8  19C0     		add r0, r0, r7

#8		{L:59}
(*) DWORD
005C00BA  F8DF 7890		ldr r7, [pc, #+2192] ; 0x1D8
005C00BE  51F0     		str r0, [r6, +r7]

#9
#10
#11		{L:60}
(*) DWORD
005C00C0  2000     		mov r0, #0 ; 0
005C00C2  F8DF 7884		ldr r7, [pc, #+2180] ; 0x1D3
005C00C6  55F0     		strb r0, [r6, +r7]

#12
#13
#14
#15		{L:64}
(*) UNDEF
005C00C8  F8DF 7848		ldr r7, [pc, #+2120] ; 0x18B
005C00CC  5DF0     		ldrb r0, [r6, +r7]

#16		{L:64}
(-) BOOL
005C00CE  2800     		cmp r0, #0
005C00D0  D00D     		beq #26 ; 0x005C00EE


#17
#18
#19
#20
#21		{L:64}
(-) UNDEF
005C00D4  2000     		mov r0, #0 ; 0

#22		{L:64}
(-) USINT
005C00D6  2300     		mov r3, #0 ; 0
005C00D8  2200     		mov r2, #0 ; 0
005C00DA  2100     		mov r1, #0 ; 0
005C00DC  4600     		mov r0, r0
005C00DE  F8DF 48A4		ldr r4, [pc, #+2212] ; 0x48FE35
005C00E2  F044 0401		orr r4, r4, #1
005C00E6  47A0     		blx r4

#23		{L:64}
(*) BOOL
005C00E8  F8DF 77F4		ldr r7, [pc, #+2036] ; 0x128
005C00EC  53F0     		strh r0, [r6, +r7]

#24
#25
#26
#27
#28
#29		{L:72}
(*) INT
005C00EE  F8DF 7824		ldr r7, [pc, #+2084] ; 0x18B
005C00F2  5DF0     		ldrb r0, [r6, +r7]
005C00F4  F8DF 77C0		ldr r7, [pc, #+1984] ; 0x75
005C00F8  55F0     		strb r0, [r6, +r7]

#30
#31
#32		{L:73}
(*) BOOL
005C00FA  F8DF 77EC		ldr r7, [pc, #+2028] ; 0x144
005C00FE  59F0     		ldr r0, [r6, +r7]
005C0100  F8DF 77C8		ldr r7, [pc, #+1992] ; 0x88
005C0104  51F0     		str r0, [r6, +r7]

#33
#34
#35		{L:74}
(*) @USINT
005C0106  F8DF 784C		ldr r7, [pc, #+2124] ; 0x1E0
005C010A  59F0     		ldr r0, [r6, +r7]
005C010C  F8DF 77C0		ldr r7, [pc, #+1984] ; 0xB0
005C0110  51F0     		str r0, [r6, +r7]

#36
#37
#38		{L:75}
(*) @USINT
005C0112  F8DF 7820		ldr r7, [pc, #+2080] ; 0x1C8
005C0116  59F0     		ldr r0, [r6, +r7]
005C0118  F8DF 77B8		ldr r7, [pc, #+1976] ; 0xB4
005C011C  51F0     		str r0, [r6, +r7]

#39
#40
#41		{L:76}
(*) UDINT
005C011E  E92D 0021		stmdb sp!, { r0, r5 }
005C0122  F8DF 778C		ldr r7, [pc, #+1932] ; 0x14
005C0126  19F5     		add r5, r6, r7
005C0128  F8DF 48A4		ldr r4, [pc, #+2212] ; 0x5BD9B8
005C012C  F044 0401		orr r4, r4, #1
005C0130  47A0     		blx r4
005C0132  E8BD 0021		ldmia sp!, { r0, r5 }

#42
#43
#44
#45		{L:80}
(*) UNDEF
005C0136  F8DF 77A4		ldr r7, [pc, #+1956] ; 0xBE
005C013A  5DF0     		ldrb r0, [r6, +r7]

#46		{L:80}
(-) BOOL
005C013C  2800     		cmp r0, #0
005C013E  D006     		beq #12 ; 0x005C014E


#47
#48
#49
#50
#51		{L:80}
(*) BOOL
005C0142  F8DF 7870		ldr r7, [pc, #+2160] ; 0x5BA3A4
005C0146  6838     		ldr r0, [r7]
005C0148  F8DF 775C		ldr r7, [pc, #+1884] ; 0x8
005C014C  51F0     		str r0, [r6, +r7]

#52
#53
#54
#55
#56
#57
#58		{L:87}
(*) UNDEF
005C014E  F8DF 77BC		ldr r7, [pc, #+1980] ; 0x189
005C0152  5DF0     		ldrb r0, [r6, +r7]

#59		{L:87}
(*) BOOL
005C0154  2800     		cmp r0, #0
005C0156  BF08 2001		eqmov r0, #1
005C015A  BF18 2000		nemov r0, #0

#60		{L:87}
(-) BOOL
005C015E  2800     		cmp r0, #0
005C0160  D06D     		beq #218 ; 0x005C023E


#61
#62
#63
#64
#65
#66		{L:88}
(*) UNDEF
005C0164  F8DF 77D4		ldr r7, [pc, #+2004] ; 0x1D0
005C0168  5DF0     		ldrb r0, [r6, +r7]

#67		{L:88}
(*) BOOL
005C016A  2800     		cmp r0, #0
005C016C  BF08 2001		eqmov r0, #1
005C0170  BF18 2000		nemov r0, #0

#68		{L:88}
(-) BOOL
005C0174  2800     		cmp r0, #0
005C0176  D002     		beq #4 ; 0x005C017E


#69
#70
#71
#72
#73
#74
(-) BOOL
005C017A  F001 BBEE		b #6108 ; 0x005C195A


#75
#76
#77
#78
#79
#80		{L:89}
(-) UNDEF
005C017E  6830     		ldr r0, [r6]

#81		{L:89}
(-) @USINT
#82		{L:89}
(*) UDINT
005C0180  2700     		mov r7, #0 ; 0
005C0182  42B8     		cmp r0, r7
005C0184  BF08 2000		eqmov r0, #0
005C0188  BF18 2001		nemov r0, #1

#83		{L:89}
(-) BOOL
005C018C  2800     		cmp r0, #0
005C018E  D00A     		beq #20 ; 0x005C01A6


#84
#85
#86
#87
#88		{L:89}
(-) BOOL
005C0192  4630     		mov r0, r6

#89		{L:89}
(-) DWORD
005C0194  4600     		mov r0, r0
005C0196  F8DF 4800		ldr r4, [pc, #+2048] ; 0x4905F5
005C019A  F044 0401		orr r4, r4, #1
005C019E  47A0     		blx r4

#90		{L:89}
(*) BOOL
005C01A0  F8DF 773C		ldr r7, [pc, #+1852] ; 0x128
005C01A4  53F0     		strh r0, [r6, +r7]

#91
#92
#93
#94
#95
#96
#97		{L:90}
(*) UNDEF
005C01A6  F8DF 7740		ldr r7, [pc, #+1856] ; 0x144
005C01AA  59F0     		ldr r0, [r6, +r7]

#98		{L:90}
(-) @USINT
#99		{L:90}
(*) UDINT
005C01AC  2700     		mov r7, #0 ; 0
005C01AE  42B8     		cmp r0, r7
005C01B0  BF08 2000		eqmov r0, #0
005C01B4  BF18 2001		nemov r0, #1

#100		{L:90}
(-) BOOL
005C01B8  2800     		cmp r0, #0
005C01BA  D00D     		beq #26 ; 0x005C01D8


#101
#102
#103
#104
#105		{L:90}
(*) BOOL
005C01BE  4630     		mov r0, r6
005C01C0  F8DF 7724		ldr r7, [pc, #+1828] ; 0x144
005C01C4  19C0     		add r0, r0, r7

#106		{L:90}
(-) DWORD
005C01C6  4600     		mov r0, r0
005C01C8  F8DF 47CC		ldr r4, [pc, #+1996] ; 0x4905F5
005C01CC  F044 0401		orr r4, r4, #1
005C01D0  47A0     		blx r4

#107		{L:90}
(*) BOOL
005C01D2  F8DF 770C		ldr r7, [pc, #+1804] ; 0x128
005C01D6  53F0     		strh r0, [r6, +r7]

#108
#109
#110
#111
#112
#113
#114		{L:91}
(*) UNDEF
005C01D8  F8DF 7778		ldr r7, [pc, #+1912] ; 0x1E0
005C01DC  59F0     		ldr r0, [r6, +r7]

#115		{L:91}
(-) @USINT
#116		{L:91}
(*) UDINT
005C01DE  2700     		mov r7, #0 ; 0
005C01E0  42B8     		cmp r0, r7
005C01E2  BF08 2000		eqmov r0, #0
005C01E6  BF18 2001		nemov r0, #1

#117		{L:91}
(-) BOOL
005C01EA  2800     		cmp r0, #0
005C01EC  D00D     		beq #26 ; 0x005C020A


#118
#119
#120
#121
#122		{L:91}
(*) BOOL
005C01F0  4630     		mov r0, r6
005C01F2  F8DF 7760		ldr r7, [pc, #+1888] ; 0x1E0
005C01F6  19C0     		add r0, r0, r7

#123		{L:91}
(-) DWORD
005C01F8  4600     		mov r0, r0
005C01FA  F8DF 479C		ldr r4, [pc, #+1948] ; 0x4905F5
005C01FE  F044 0401		orr r4, r4, #1
005C0202  47A0     		blx r4

#124		{L:91}
(*) BOOL
005C0204  F8DF 76D8		ldr r7, [pc, #+1752] ; 0x128
005C0208  53F0     		strh r0, [r6, +r7]

#125
#126
#127
#128
#129
#130		{L:93}
(*) INT
005C020A  2000     		mov r0, #0 ; 0
005C020C  F8DF 76A4		ldr r7, [pc, #+1700] ; 0x74
005C0210  55F0     		strb r0, [r6, +r7]

#131
#132
#133		{L:94}
(*) BOOL
005C0212  2000     		mov r0, #0 ; 0
005C0214  F8DF 772C		ldr r7, [pc, #+1836] ; 0x1D2
005C0218  55F0     		strb r0, [r6, +r7]

#134
#135
#136		{L:95}
(*) BOOL
005C021A  2000     		mov r0, #0 ; 0
005C021C  F8DF 7738		ldr r7, [pc, #+1848] ; 0x1E4
005C0220  51F0     		str r0, [r6, +r7]

#137
#138
#139		{L:96}
(*) UDINT
005C0222  2000     		mov r0, #0 ; 0
005C0224  F8DF 7734		ldr r7, [pc, #+1844] ; 0x1E8
005C0228  51F0     		str r0, [r6, +r7]

#140
#141
#142		{L:97}
(*) UDINT
005C022A  2000     		mov r0, #0 ; 0
005C022C  F8DF 7730		ldr r7, [pc, #+1840] ; 0x1EC
005C0230  51F0     		str r0, [r6, +r7]

#143
#144
#145		{L:98}
(*) UDINT
005C0232  2000     		mov r0, #0 ; 0
005C0234  F8DF 7704		ldr r7, [pc, #+1796] ; 0x1D0
005C0238  55F0     		strb r0, [r6, +r7]

#146
#147
#148
#149
(-) BOOL
005C023A  F001 BB8E		b #5916 ; 0x005C195A


#150
#151
#152
#153
#154
#155		{L:107}
(*) UNDEF
005C023E  F8DF 76FC		ldr r7, [pc, #+1788] ; 0x1D0
005C0242  5DF0     		ldrb r0, [r6, +r7]

#156		{L:107}
(*) BOOL
005C0244  2800     		cmp r0, #0
005C0246  BF08 2001		eqmov r0, #1
005C024A  BF18 2000		nemov r0, #0

#157		{L:107}
(-) BOOL
005C024E  2800     		cmp r0, #0
005C0250  F000 8133		beq #614 ; 0x005C04BA


#158
#159
#160
#161
#162
#163		{L:108}
(*) UNDEF
005C0254  F8DF 7780		ldr r7, [pc, #+1920] ; 0x20412E8C
005C0258  7838     		ldrb r0, [r7]

#164		{L:108}
(*) USINT
005C025A  2801     		cmp r0, #1
005C025C  BF08 2000		eqmov r0, #0
005C0260  BF18 2001		nemov r0, #1

#165		{L:108}
(-) BOOL
005C0264  2800     		cmp r0, #0
005C0266  D012     		beq #36 ; 0x005C028E


#166
#167
#168
#169
#170		{L:108}
(*) BOOL
005C026A  2001     		mov r0, #1 ; 1
005C026C  F8DF 76D8		ldr r7, [pc, #+1752] ; 0x1D3
005C0270  55F0     		strb r0, [r6, +r7]

#171
#172
#173		{L:108}
(*) UNDEF
005C0272  F8DF 7744		ldr r7, [pc, #+1860] ; 0x5BA3A8
005C0276  6838     		ldr r0, [r7]

#174		{L:108}
(-) UDINT
005C0278  4600     		mov r0, r0
005C027A  F8DF 4714		ldr r4, [pc, #+1812] ; 0x490561
005C027E  F044 0401		orr r4, r4, #1
005C0282  47A0     		blx r4

#175		{L:108}
(*) BOOL
005C0284  F8DF 7658		ldr r7, [pc, #+1624] ; 0x128
005C0288  53F0     		strh r0, [r6, +r7]

#176
#177
#178
#179
(-) BOOL
005C028A  F001 BB66		b #5836 ; 0x005C195A


#180
#181
#182
#183
#184
#185		{L:109}
(*) UNDEF
005C028E  F8DF 7694		ldr r7, [pc, #+1684] ; 0x1B8
005C0292  59F0     		ldr r0, [r6, +r7]

#186		{L:109}
(-) @RESTSERVICEBACKUP
#187		{L:109}
(*) UDINT
005C0294  2700     		mov r7, #0 ; 0
005C0296  42B8     		cmp r0, r7
005C0298  BF18 2000		nemov r0, #0
005C029C  BF08 2001		eqmov r0, #1

#188		{L:109}
(-) BOOL
005C02A0  2800     		cmp r0, #0
005C02A2  D012     		beq #36 ; 0x005C02CA


#189
#190
#191
#192
#193		{L:109}
(*) BOOL
005C02A6  2001     		mov r0, #1 ; 1
005C02A8  F8DF 769C		ldr r7, [pc, #+1692] ; 0x1D3
005C02AC  55F0     		strb r0, [r6, +r7]

#194
#195
#196		{L:109}
(*) UNDEF
005C02AE  F8DF 770C		ldr r7, [pc, #+1804] ; 0x5BA3AC
005C02B2  6838     		ldr r0, [r7]

#197		{L:109}
(-) UDINT
005C02B4  4600     		mov r0, r0
005C02B6  F8DF 46D8		ldr r4, [pc, #+1752] ; 0x490561
005C02BA  F044 0401		orr r4, r4, #1
005C02BE  47A0     		blx r4

#198		{L:109}
(*) BOOL
005C02C0  F8DF 761C		ldr r7, [pc, #+1564] ; 0x128
005C02C4  53F0     		strh r0, [r6, +r7]

#199
#200
#201
#202
(-) BOOL
005C02C6  F001 BB48		b #5776 ; 0x005C195A


#203
#204
#205
#206
#207		{L:110}
(*) BOOL
005C02CA  2001     		mov r0, #1 ; 1
005C02CC  F8DF 766C		ldr r7, [pc, #+1644] ; 0x1D0
005C02D0  55F0     		strb r0, [r6, +r7]

#208
#209
#210		{L:114}
(*) BOOL
005C02D2  F8DF 7654		ldr r7, [pc, #+1620] ; 0x1BC
005C02D6  59F0     		ldr r0, [r6, +r7]
005C02D8  F8DF 75E0		ldr r7, [pc, #+1504] ; 0x78
005C02DC  51F0     		str r0, [r6, +r7]

#211
#212
#213		{L:115}
(*) @USINT
005C02DE  F8DF 764C		ldr r7, [pc, #+1612] ; 0x1C0
005C02E2  59F0     		ldr r0, [r6, +r7]
005C02E4  F8DF 75D8		ldr r7, [pc, #+1496] ; 0x7C
005C02E8  51F0     		str r0, [r6, +r7]

#214
#215
#216		{L:116}
(*) @USINT
005C02EA  F8DF 7644		ldr r7, [pc, #+1604] ; 0x1C4
005C02EE  5BF0     		ldrh r0, [r6, +r7]
005C02F0  F8DF 75D0		ldr r7, [pc, #+1488] ; 0x80
005C02F4  53F0     		strh r0, [r6, +r7]

#217
#218
#219		{L:117}
(*) UINT
005C02F6  F8DF 7640		ldr r7, [pc, #+1600] ; 0x1CC
005C02FA  59F0     		ldr r0, [r6, +r7]
005C02FC  F8DF 75C8		ldr r7, [pc, #+1480] ; 0x84
005C0300  51F0     		str r0, [r6, +r7]

#220
#221
#222		{L:118}
(*) @USINT
005C0302  F8DF 76BC		ldr r7, [pc, #+1724] ; 0x5BA3B0
005C0306  8838     		ldrh r0, [r7]
005C0308  F8DF 75CC		ldr r7, [pc, #+1484] ; 0xB8
005C030C  51F0     		str r0, [r6, +r7]

#223
#224
#225		{L:122}
(*) UNDEF
005C030E  4630     		mov r0, r6
005C0310  F8DF 7608		ldr r7, [pc, #+1544] ; 0x190
005C0314  19C0     		add r0, r0, r7

#226		{L:122}
(-) STRING
005C0316  F8DF 4664		ldr r4, [pc, #+1636] ; 0x48F5A1
005C031A  F044 0401		orr r4, r4, #1
005C031E  47A0     		blx r4

#227		{L:122}
(*) DINT
005C0320  F8DF 7588		ldr r7, [pc, #+1416] ; 0xC
005C0324  51F0     		str r0, [r6, +r7]

#228
#229
#230
#231		{L:123}
(*) UNDEF
005C0326  F8DF 7584		ldr r7, [pc, #+1412] ; 0xC
005C032A  59F0     		ldr r0, [r6, +r7]

#232		{L:123}
(*) DINT
005C032C  F04F 37FF		mov r7, #4294967295 ; 4294967295
005C0330  42B8     		cmp r0, r7
005C0332  BF08 2000		eqmov r0, #0
005C0336  BF18 2001		nemov r0, #1

#233		{L:123}
(-) BOOL
005C033A  2800     		cmp r0, #0
005C033C  D054     		beq #168 ; 0x005C03E8


#234
#235
#236
#237
#238
#239		{L:124}
(*) UNDEF
005C0340  F8DF 75E0		ldr r7, [pc, #+1504] ; 0x1B8
005C0344  F856 C007		ldr r12, [r6, +r7]
005C0348  F8DC 0000		ldr r0, [r12]

#240		{L:124}
(*) UDINT
005C034C  B082     		sub sp, sp, #8
005C034E  F8CD 0000		str r0, [sp]
005C0352  F8DF 7558		ldr r7, [pc, #+1368] ; 0xC
005C0356  59F0     		ldr r0, [r6, +r7]

#241		{L:124}
(-) DINT
#242		{L:124}
(*) UDINT
005C0358  4607     		mov r7, r0
005C035A  F8DD 0000		ldr r0, [sp]
005C035E  B002     		add sp, sp, #8
005C0360  42B8     		cmp r0, r7
005C0362  BF38 2000		lomov r0, #0
005C0366  BF28 2001		hsmov r0, #1

#243		{L:124}
(-) BOOL
005C036A  2800     		cmp r0, #0
005C036C  D011     		beq #34 ; 0x005C0392


#244
#245
#246
#247
#248		{L:124}
(*) UNDEF
005C0370  4630     		mov r0, r6
005C0372  F8DF 75A8		ldr r7, [pc, #+1448] ; 0x190
005C0376  19C0     		add r0, r0, r7

#249		{L:124}
(-) STRING
005C0378  F8DF 45FC		ldr r4, [pc, #+1532] ; 0x48F461
005C037C  F044 0401		orr r4, r4, #1
005C0380  47A0     		blx r4

#250		{L:124}
(*) BOOL
005C0382  F8DF 755C		ldr r7, [pc, #+1372] ; 0x128
005C0386  53F0     		strh r0, [r6, +r7]

#251
#252
#253		{L:124}
(*) BOOL
005C0388  F04F 30FF		mov r0, #4294967295 ; 4294967295
005C038C  F8DF 751C		ldr r7, [pc, #+1308] ; 0xC
005C0390  51F0     		str r0, [r6, +r7]

#254
#255
#256
#257
#258
#259
#260		{L:125}
(*) UNDEF
005C0392  F8DF 7590		ldr r7, [pc, #+1424] ; 0x1B8
005C0396  F856 C007		ldr r12, [r6, +r7]
005C039A  F8DF 7508		ldr r7, [pc, #+1288] ; 0x4
005C039E  F85C 0007		ldr r0, [r12, +r7]

#261		{L:125}
(*) UDINT
005C03A2  B082     		sub sp, sp, #8
005C03A4  F8CD 0000		str r0, [sp]
005C03A8  F8DF 7500		ldr r7, [pc, #+1280] ; 0xC
005C03AC  59F0     		ldr r0, [r6, +r7]

#262		{L:125}
(-) DINT
#263		{L:125}
(*) UDINT
005C03AE  4607     		mov r7, r0
005C03B0  F8DD 0000		ldr r0, [sp]
005C03B4  B002     		add sp, sp, #8
005C03B6  42B8     		cmp r0, r7
005C03B8  BF38 2000		lomov r0, #0
005C03BC  BF28 2001		hsmov r0, #1

#264		{L:125}
(-) BOOL
005C03C0  2800     		cmp r0, #0
005C03C2  D011     		beq #34 ; 0x005C03E8


#265
#266
#267
#268
#269		{L:125}
(*) UNDEF
005C03C6  4630     		mov r0, r6
005C03C8  F8DF 7550		ldr r7, [pc, #+1360] ; 0x190
005C03CC  19C0     		add r0, r0, r7

#270		{L:125}
(-) STRING
005C03CE  F8DF 45A8		ldr r4, [pc, #+1448] ; 0x48F461
005C03D2  F044 0401		orr r4, r4, #1
005C03D6  47A0     		blx r4

#271		{L:125}
(*) BOOL
005C03D8  F8DF 7504		ldr r7, [pc, #+1284] ; 0x128
005C03DC  53F0     		strh r0, [r6, +r7]

#272
#273
#274		{L:125}
(*) BOOL
005C03DE  F04F 30FF		mov r0, #4294967295 ; 4294967295
005C03E2  F8DF 74C8		ldr r7, [pc, #+1224] ; 0xC
005C03E6  51F0     		str r0, [r6, +r7]

#275
#276
#277
#278
#279
#280
#281
#282
#283
#284		{L:130}
(*) UNDEF
005C03E8  F8DF 74C0		ldr r7, [pc, #+1216] ; 0xC
005C03EC  59F0     		ldr r0, [r6, +r7]

#285		{L:130}
(*) DINT
005C03EE  F04F 37FF		mov r7, #4294967295 ; 4294967295
005C03F2  42B8     		cmp r0, r7
005C03F4  BF18 2000		nemov r0, #0
005C03F8  BF08 2001		eqmov r0, #1

#286		{L:130}
(-) BOOL
005C03FC  2800     		cmp r0, #0
005C03FE  D010     		beq #32 ; 0x005C0422


#287
#288
#289
#290
#291		{L:130}
(*) BOOL
005C0402  2000     		mov r0, #0 ; 0
005C0404  F8DF 751C		ldr r7, [pc, #+1308] ; 0x1B8
005C0408  F856 C007		ldr r12, [r6, +r7]
005C040C  F8CC 0000		str r0, [r12]

#292
#293
#294		{L:130}
(*) USINT
005C0410  2000     		mov r0, #0 ; 0
005C0412  F8DF 7510		ldr r7, [pc, #+1296] ; 0x1B8
005C0416  F856 C007		ldr r12, [r6, +r7]
005C041A  F8DF 7488		ldr r7, [pc, #+1160] ; 0x4
005C041E  F84C 0007		str r0, [r12, +r7]

#295
#296
#297
#298
#299
#300		{L:134}
(*) USINT
005C0422  4630     		mov r0, r6
005C0424  F8DF 74F4		ldr r7, [pc, #+1268] ; 0x190
005C0428  19C0     		add r0, r0, r7
005C042A  B082     		sub sp, sp, #8
005C042C  F8CD 0000		str r0, [sp]
005C0430  E92D 0006		stmdb sp!, { r1, r2 }
005C0434  2221     		mov r2, #33 ; 33
005C0436  4631     		mov r1, r6
005C0438  F8DF 74B8		ldr r7, [pc, #+1208] ; 0x150
005C043C  19C9     		add r1, r1, r7
005C043E  F8DF 4568		ldr r4, [pc, #+1384] ; 0x4A46DD
005C0442  F044 0401		orr r4, r4, #1
005C0446  47A0     		blx r4
005C0448  E8BD 0006		ldmia sp!, { r1, r2 }
005C044C  F8DD 0000		ldr r0, [sp]
005C0450  B002     		add sp, sp, #8

#301
#302
#303		{L:135}
(*) STRING
005C0452  F8DF 74CC		ldr r7, [pc, #+1228] ; 0x1B4
005C0456  59F0     		ldr r0, [r6, +r7]
005C0458  F8DF 749C		ldr r7, [pc, #+1180] ; 0x174
005C045C  51F0     		str r0, [r6, +r7]

#304
#305
#306		{L:136}
(*) UDINT
005C045E  F8DF 74D4		ldr r7, [pc, #+1236] ; 0x1C8
005C0462  59F0     		ldr r0, [r6, +r7]
005C0464  F8DF 7494		ldr r7, [pc, #+1172] ; 0x178
005C0468  51F0     		str r0, [r6, +r7]

#307
#308
#309		{L:137}
(*) UNDEF
005C046A  F8DF 74B8		ldr r7, [pc, #+1208] ; 0x1B8
005C046E  59F0     		ldr r0, [r6, +r7]

#310		{L:137}
(-) @RESTSERVICEBACKUP
#311		{L:137}
(*) UDINT
005C0470  F8DF 747C		ldr r7, [pc, #+1148] ; 0x14C
005C0474  51F0     		str r0, [r6, +r7]

#312
#313
#314		{L:141}
(-) UNDEF
005C0476  2001     		mov r0, #1 ; 1

#315		{L:141}
(-) BOOL
005C0478  4600     		mov r0, r0
005C047A  F8DF 4510		ldr r4, [pc, #+1296] ; 0x490519
005C047E  F044 0401		orr r4, r4, #1
005C0482  47A0     		blx r4

#316		{L:141}
(*) UDINT
005C0484  F8DF 7478		ldr r7, [pc, #+1144] ; 0x17C
005C0488  51F0     		str r0, [r6, +r7]

#317
#318
#319		{L:142}
(-) UNDEF
005C048A  2001     		mov r0, #1 ; 1

#320		{L:142}
(-) BOOL
005C048C  4600     		mov r0, r0
005C048E  F8DF 44FC		ldr r4, [pc, #+1276] ; 0x490519
005C0492  F044 0401		orr r4, r4, #1
005C0496  47A0     		blx r4

#321		{L:142}
(*) UDINT
005C0498  F8DF 7468		ldr r7, [pc, #+1128] ; 0x180
005C049C  51F0     		str r0, [r6, +r7]

#322
#323
#324		{L:143}
(-) UNDEF
005C049E  2001     		mov r0, #1 ; 1

#325		{L:143}
(-) BOOL
005C04A0  4600     		mov r0, r0
005C04A2  F8DF 44E8		ldr r4, [pc, #+1256] ; 0x490519
005C04A6  F044 0401		orr r4, r4, #1
005C04AA  47A0     		blx r4

#326		{L:143}
(*) UDINT
005C04AC  F8DF 7458		ldr r7, [pc, #+1112] ; 0x184
005C04B0  51F0     		str r0, [r6, +r7]

#327
#328
#329		{L:144}
(*) UDINT
005C04B2  2000     		mov r0, #0 ; 0
005C04B4  F8DF 73EC		ldr r7, [pc, #+1004] ; 0x4
005C04B8  55F0     		strb r0, [r6, +r7]

#330
#331
#332
#333
#334
#335
#336		{L:152}
(*) UNDEF
005C04BA  F8DF 73EC		ldr r7, [pc, #+1004] ; 0x8
005C04BE  59F0     		ldr r0, [r6, +r7]

#337		{L:152}
(*) UDINT
005C04C0  2800     		cmp r0, #0
005C04C2  BF08 2000		eqmov r0, #0
005C04C6  BF18 2001		nemov r0, #1

#338		{L:152}
(-) BOOL
005C04CA  2800     		cmp r0, #0
005C04CC  F000 811A		beq #564 ; 0x005C0704


#339
#340
#341
#342
#343
#344		{L:153}
(-) UNDEF
005C04D0  6830     		ldr r0, [r6]

#345		{L:153}
(-) @USINT
#346		{L:153}
(*) UDINT
005C04D2  2700     		mov r7, #0 ; 0
005C04D4  42B8     		cmp r0, r7
005C04D6  BF08 2000		eqmov r0, #0
005C04DA  BF18 2001		nemov r0, #1

#347		{L:153}
(-) BOOL
005C04DE  2800     		cmp r0, #0
005C04E0  D00A     		beq #20 ; 0x005C04F8


#348
#349
#350
#351
#352		{L:153}
(-) BOOL
005C04E4  4630     		mov r0, r6

#353		{L:153}
(-) DWORD
005C04E6  4600     		mov r0, r0
005C04E8  F8DF 44AC		ldr r4, [pc, #+1196] ; 0x4905F5
005C04EC  F044 0401		orr r4, r4, #1
005C04F0  47A0     		blx r4

#354		{L:153}
(*) BOOL
005C04F2  F8DF 73EC		ldr r7, [pc, #+1004] ; 0x128
005C04F6  53F0     		strh r0, [r6, +r7]

#355
#356
#357
#358
#359
#360
#361		{L:154}
(*) UNDEF
005C04F8  F8DF 73EC		ldr r7, [pc, #+1004] ; 0x144
005C04FC  59F0     		ldr r0, [r6, +r7]

#362		{L:154}
(-) @USINT
#363		{L:154}
(*) UDINT
005C04FE  2700     		mov r7, #0 ; 0
005C0500  42B8     		cmp r0, r7
005C0502  BF08 2000		eqmov r0, #0
005C0506  BF18 2001		nemov r0, #1

#364		{L:154}
(-) BOOL
005C050A  2800     		cmp r0, #0
005C050C  D00D     		beq #26 ; 0x005C052A


#365
#366
#367
#368
#369		{L:154}
(*) BOOL
005C0510  4630     		mov r0, r6
005C0512  F8DF 73D4		ldr r7, [pc, #+980] ; 0x144
005C0516  19C0     		add r0, r0, r7

#370		{L:154}
(-) DWORD
005C0518  4600     		mov r0, r0
005C051A  F8DF 447C		ldr r4, [pc, #+1148] ; 0x4905F5
005C051E  F044 0401		orr r4, r4, #1
005C0522  47A0     		blx r4

#371		{L:154}
(*) BOOL
005C0524  F8DF 73B8		ldr r7, [pc, #+952] ; 0x128
005C0528  53F0     		strh r0, [r6, +r7]

#372
#373
#374
#375
#376
#377
#378		{L:155}
(*) UNDEF
005C052A  F8DF 7428		ldr r7, [pc, #+1064] ; 0x1E0
005C052E  59F0     		ldr r0, [r6, +r7]

#379		{L:155}
(-) @USINT
#380		{L:155}
(*) UDINT
005C0530  2700     		mov r7, #0 ; 0
005C0532  42B8     		cmp r0, r7
005C0534  BF08 2000		eqmov r0, #0
005C0538  BF18 2001		nemov r0, #1

#381		{L:155}
(-) BOOL
005C053C  2800     		cmp r0, #0
005C053E  D00D     		beq #26 ; 0x005C055C


#382
#383
#384
#385
#386		{L:155}
(*) BOOL
005C0542  4630     		mov r0, r6
005C0544  F8DF 740C		ldr r7, [pc, #+1036] ; 0x1E0
005C0548  19C0     		add r0, r0, r7

#387		{L:155}
(-) DWORD
005C054A  4600     		mov r0, r0
005C054C  F8DF 4448		ldr r4, [pc, #+1096] ; 0x4905F5
005C0550  F044 0401		orr r4, r4, #1
005C0554  47A0     		blx r4

#388		{L:155}
(*) BOOL
005C0556  F8DF 7388		ldr r7, [pc, #+904] ; 0x128
005C055A  53F0     		strh r0, [r6, +r7]

#389
#390
#391
#392
#393
#394		{L:156}
(*) INT
005C055C  2000     		mov r0, #0 ; 0
005C055E  F8DF 7354		ldr r7, [pc, #+852] ; 0x74
005C0562  55F0     		strb r0, [r6, +r7]

#395
#396
#397		{L:157}
(*) BOOL
005C0564  2000     		mov r0, #0 ; 0
005C0566  F8DF 73DC		ldr r7, [pc, #+988] ; 0x1D2
005C056A  55F0     		strb r0, [r6, +r7]

#398
#399
#400
#401		{L:161}
(*) UNDEF
005C056C  F8DF 73A4		ldr r7, [pc, #+932] ; 0x18B
005C0570  5DF0     		ldrb r0, [r6, +r7]

#402		{L:161}
(-) BOOL
005C0572  2800     		cmp r0, #0
005C0574  D068     		beq #208 ; 0x005C0648


#403
#404
#405
#406
#407
#408		{L:162}
(-) UNDEF
005C0578  2000     		mov r0, #0 ; 0

#409		{L:162}
(-) USINT
005C057A  2300     		mov r3, #0 ; 0
005C057C  2200     		mov r2, #0 ; 0
005C057E  2100     		mov r1, #0 ; 0
005C0580  4600     		mov r0, r0
005C0582  F8DF 4400		ldr r4, [pc, #+1024] ; 0x48FE35
005C0586  F044 0401		orr r4, r4, #1
005C058A  47A0     		blx r4

#410		{L:162}
(*) BOOL
005C058C  2800     		cmp r0, #0
005C058E  BF08 2001		eqmov r0, #1
005C0592  BF18 2000		nemov r0, #0

#411		{L:162}
(-) BOOL
005C0596  2800     		cmp r0, #0
005C0598  D002     		beq #4 ; 0x005C05A0


#412
#413
#414
#415
#416
#417
(-) BOOL
005C059C  F001 B9DD		b #5050 ; 0x005C195A


#418
#419
#420
#421
#422
#423		{L:163}
(-) BOOL
005C05A0  4630     		mov r0, r6

#424		{L:163}
(*) DWORD
005C05A2  F8DF 73C0		ldr r7, [pc, #+960] ; 0x1F0
005C05A6  51F0     		str r0, [r6, +r7]

#425		{L:163}
(-) UNDEF
005C05A8  2040     		mov r0, #64 ; 64

#426		{L:163}
(-) USINT
005C05AA  F8DF 73B8		ldr r7, [pc, #+952] ; 0x1F0
005C05AE  59F1     		ldr r1, [r6, +r7]
005C05B0  4600     		mov r0, r0
005C05B2  F8DF 43E0		ldr r4, [pc, #+992] ; 0x4905B1
005C05B6  F044 0401		orr r4, r4, #1
005C05BA  47A0     		blx r4

#427		{L:163}
(*) BOOL
005C05BC  2800     		cmp r0, #0
005C05BE  BF08 2001		eqmov r0, #1
005C05C2  BF18 2000		nemov r0, #0

#428		{L:163}
(-) BOOL
005C05C6  2800     		cmp r0, #0
005C05C8  D002     		beq #4 ; 0x005C05D0


#429
#430
#431
#432
#433
#434
(-) BOOL
005C05CC  F001 B9C5		b #5002 ; 0x005C195A


#435
#436
#437
#438
#439		{L:164}
(*) BOOL
005C05D0  4630     		mov r0, r6
005C05D2  F8DF 72D4		ldr r7, [pc, #+724] ; 0x8
005C05D6  19C0     		add r0, r0, r7

#440		{L:164}
(*) DWORD
005C05D8  F8DF 7388		ldr r7, [pc, #+904] ; 0x1F0
005C05DC  51F0     		str r0, [r6, +r7]

#441		{L:164}
(-) UNDEF
005C05DE  6830     		ldr r0, [r6]

#442		{L:164}
(-) @USINT
005C05E0  B082     		sub sp, sp, #8
005C05E2  F8DF 7380		ldr r7, [pc, #+896] ; 0x1F0
005C05E6  59F7     		ldr r7, [r6, +r7]
005C05E8  F8CD 7000		str r7, [sp]
005C05EC  232A     		mov r3, #42 ; 42
005C05EE  F8DF 73D4		ldr r7, [pc, #+980] ; 0x5BA3B4
005C05F2  463A     		mov r2, r7
005C05F4  2120     		mov r1, #32 ; 32
005C05F6  4600     		mov r0, r0
005C05F8  F8DF 4384		ldr r4, [pc, #+900] ; 0x48F96D
005C05FC  F044 0401		orr r4, r4, #1
005C0600  47A0     		blx r4
005C0602  B002     		add sp, sp, #8

#443		{L:164}
(-) INT
#444		{L:164}
(*) UINT
005C0604  F8DF 72D8		ldr r7, [pc, #+728] ; 0x128
005C0608  53F0     		strh r0, [r6, +r7]

#445
#446
#447		{L:165}
(*) INT
005C060A  F8DF 03A0		ldr r0, [pc, #+928] ; 0x5BA0C0

#448		{L:165}
(*) DWORD
005C060E  F8DF 7354		ldr r7, [pc, #+852] ; 0x1F0
005C0612  51F0     		str r0, [r6, +r7]

#449		{L:165}
(-) UNDEF
005C0614  2001     		mov r0, #1 ; 1

#450		{L:165}
(-) USINT
005C0616  6833     		ldr r3, [r6]
005C0618  F8DF 7348		ldr r7, [pc, #+840] ; 0x1F0
005C061C  59F2     		ldr r2, [r6, +r7]
005C061E  F04F 4180		mov r1, #1073741824 ; 1073741824
005C0622  4600     		mov r0, r0
005C0624  F8DF 435C		ldr r4, [pc, #+860] ; 0x48FE35
005C0628  F044 0401		orr r4, r4, #1
005C062C  47A0     		blx r4

#451		{L:165}
(*) BOOL
005C062E  F8DF 72B0		ldr r7, [pc, #+688] ; 0x128
005C0632  53F0     		strh r0, [r6, +r7]

#452
#453
#454		{L:166}
(-) INT
005C0634  4630     		mov r0, r6

#455		{L:166}
(-) DWORD
005C0636  4600     		mov r0, r0
005C0638  F8DF 435C		ldr r4, [pc, #+860] ; 0x4905F5
005C063C  F044 0401		orr r4, r4, #1
005C0640  47A0     		blx r4

#456		{L:166}
(*) BOOL
005C0642  F8DF 729C		ldr r7, [pc, #+668] ; 0x128
005C0646  53F0     		strh r0, [r6, +r7]

#457
#458
#459
#460
#461
#462		{L:171}
(*) UNDEF
005C0648  F8DF 725C		ldr r7, [pc, #+604] ; 0x8
005C064C  59F0     		ldr r0, [r6, +r7]

#463		{L:171}
(-) UDINT
005C064E  4600     		mov r0, r0
005C0650  F8DF 433C		ldr r4, [pc, #+828] ; 0x490561
005C0654  F044 0401		orr r4, r4, #1
005C0658  47A0     		blx r4

#464		{L:171}
(*) BOOL
005C065A  F8DF 7284		ldr r7, [pc, #+644] ; 0x128
005C065E  53F0     		strh r0, [r6, +r7]

#465
#466
#467		{L:172}
(*) UNDEF
005C0660  F8DF 72FC		ldr r7, [pc, #+764] ; 0x1EC
005C0664  59F0     		ldr r0, [r6, +r7]

#468		{L:172}
(-) UDINT
005C0666  1C40     		add r0, r0, #1

#469		{L:172}
(*) UDINT
005C0668  F8DF 72F4		ldr r7, [pc, #+756] ; 0x1EC
005C066C  51F0     		str r0, [r6, +r7]

#470
#471
#472		{L:173}
(*) UDINT
005C066E  2001     		mov r0, #1 ; 1
005C0670  F8DF 72D4		ldr r7, [pc, #+724] ; 0x1D3
005C0674  55F0     		strb r0, [r6, +r7]

#473
#474
#475		{L:174}
(*) BOOL
005C0676  2000     		mov r0, #0 ; 0
005C0678  F8DF 722C		ldr r7, [pc, #+556] ; 0x8
005C067C  51F0     		str r0, [r6, +r7]

#476
#477
#478		{L:178}
(-) UNDEF
005C067E  2001     		mov r0, #1 ; 1

#479		{L:178}
(-) BOOL
005C0680  4600     		mov r0, r0
005C0682  F8DF 4308		ldr r4, [pc, #+776] ; 0x490519
005C0686  F044 0401		orr r4, r4, #1
005C068A  47A0     		blx r4

#480		{L:178}
(*) UDINT
005C068C  F8DF 7278		ldr r7, [pc, #+632] ; 0x184
005C0690  51F0     		str r0, [r6, +r7]

#481
#482
#483		{L:179}
(-) UNDEF
005C0692  2001     		mov r0, #1 ; 1

#484		{L:179}
(-) BOOL
005C0694  4600     		mov r0, r0
005C0696  F8DF 42F0		ldr r4, [pc, #+752] ; 0x490509
005C069A  F044 0401		orr r4, r4, #1
005C069E  47A0     		blx r4

#485		{L:179}
(*) REAL
005C06A0  F8DF 72C4		ldr r7, [pc, #+708] ; 0x1F4
005C06A4  51F0     		str r0, [r6, +r7]

#486		{L:179}
(*) UNDEF
005C06A6  F8DF 7270		ldr r7, [pc, #+624] ; 0x18E
005C06AA  5BF0     		ldrh r0, [r6, +r7]

#487		{L:179}
(*) UINT
005C06AC  F8DF 7318		ldr r7, [pc, #+792] ; 0x5BA3C4
005C06B0  683F     		ldr r7, [r7]
005C06B2  4378     		mul r0, r0, r7

#488		{L:179}
(*) UDINT
005C06B4  F8DF 72B4		ldr r7, [pc, #+692] ; 0x1F8
005C06B8  51F0     		str r0, [r6, +r7]

#489		{L:179}
(*) UNDEF
005C06BA  F8DF 72B0		ldr r7, [pc, #+688] ; 0x1F8
005C06BE  59F0     		ldr r0, [r6, +r7]

#490		{L:179}
(*) UDINT
005C06C0  F8DF 42D8		ldr r4, [pc, #+728] ; 0x4A4509
005C06C4  F044 0401		orr r4, r4, #1
005C06C8  47A0     		blx r4

#491		{L:179}
(*) REAL
005C06CA  F8DF 729C		ldr r7, [pc, #+668] ; 0x1F4
005C06CE  59F7     		ldr r7, [r6, +r7]
005C06D0  B082     		sub sp, sp, #8
005C06D2  F8CD 1000		str r1, [sp]
005C06D6  4639     		mov r1, r7
005C06D8  F8DF 42C8		ldr r4, [pc, #+712] ; 0x4A4571
005C06DC  F044 0401		orr r4, r4, #1
005C06E0  47A0     		blx r4
005C06E2  F8DD 1000		ldr r1, [sp]
005C06E6  B002     		add sp, sp, #8

#492		{L:179}
(*) REAL
005C06E8  F8DF 42B4		ldr r4, [pc, #+692] ; 0x4A4529
005C06EC  F044 0401		orr r4, r4, #1
005C06F0  47A0     		blx r4

#493		{L:179}
(*) UDINT
005C06F2  F8DF 71F0		ldr r7, [pc, #+496] ; 0x12C
005C06F6  51F0     		str r0, [r6, +r7]

#494
#495
#496		{L:180}
(*) UDINT
005C06F8  2001     		mov r0, #1 ; 1
005C06FA  F8DF 71A8		ldr r7, [pc, #+424] ; 0x4
005C06FE  55F0     		strb r0, [r6, +r7]

#497
#498
#499
#500
(-) USINT
005C0700  F001 B92B		b #4694 ; 0x005C195A


#501
#502
#503
#504
#505
#506		{L:189}
(*) UNDEF
005C0704  F8DF 723C		ldr r7, [pc, #+572] ; 0x1D2
005C0708  5DF0     		ldrb r0, [r6, +r7]

#507		{L:189}
(-) BOOL
005C070A  2800     		cmp r0, #0
005C070C  D026     		beq #76 ; 0x005C075C


#508
#509
#510
#511
#512		{L:190}
(*) BOOL
005C0710  2000     		mov r0, #0 ; 0
005C0712  F8DF 71A0		ldr r7, [pc, #+416] ; 0x74
005C0716  55F0     		strb r0, [r6, +r7]

#513
#514
#515
#516		{L:194}
(*) UNDEF
005C0718  F8DF 71F4		ldr r7, [pc, #+500] ; 0x18A
005C071C  5DF0     		ldrb r0, [r6, +r7]

#517		{L:194}
(*) BOOL
005C071E  2800     		cmp r0, #0
005C0720  BF08 2001		eqmov r0, #1
005C0724  BF18 2000		nemov r0, #0

#518		{L:194}
(-) BOOL
005C0728  2800     		cmp r0, #0
005C072A  D002     		beq #4 ; 0x005C0732


#519
#520
#521
#522
#523
#524
(-) BOOL
005C072E  F001 B914		b #4648 ; 0x005C195A


#525
#526
#527
#528
#529		{L:195}
(*) BOOL
005C0732  4630     		mov r0, r6
005C0734  F8DF 721C		ldr r7, [pc, #+540] ; 0x1E0
005C0738  19C0     		add r0, r0, r7

#530		{L:195}
(-) DWORD
005C073A  4600     		mov r0, r0
005C073C  F8DF 4258		ldr r4, [pc, #+600] ; 0x4905F5
005C0740  F044 0401		orr r4, r4, #1
005C0744  47A0     		blx r4

#531		{L:195}
(*) BOOL
005C0746  F8DF 7198		ldr r7, [pc, #+408] ; 0x128
005C074A  53F0     		strh r0, [r6, +r7]

#532
#533
#534		{L:196}
(*) BOOL
005C074C  2000     		mov r0, #0 ; 0
005C074E  F8DF 71F4		ldr r7, [pc, #+500] ; 0x1D2
005C0752  55F0     		strb r0, [r6, +r7]

#535
#536
#537		{L:197}
(*) BOOL
005C0754  2000     		mov r0, #0 ; 0
005C0756  F8DF 714C		ldr r7, [pc, #+332] ; 0x4
005C075A  55F0     		strb r0, [r6, +r7]

#538
#539
#540
#541
#542
#543		{L:205}
(*) UNDEF
005C075C  F8DF 71C4		ldr r7, [pc, #+452] ; 0x1B8
005C0760  F856 C007		ldr r12, [r6, +r7]
005C0764  F8DC 0000		ldr r0, [r12]

#544		{L:205}
(-) UDINT
005C0768  B084     		sub sp, sp, #16
005C076A  F8DF 71B4		ldr r7, [pc, #+436] ; 0x1B4
005C076E  59F7     		ldr r7, [r6, +r7]
005C0770  F8CD 7008		str r7, [sp, #+8]
005C0774  F8DF 71AC		ldr r7, [pc, #+428] ; 0x1B8
005C0778  F856 C007		ldr r12, [r6, +r7]
005C077C  F8DF 7124		ldr r7, [pc, #+292] ; 0x4
005C0780  F85C 7007		ldr r7, [r12, +r7]
005C0784  F8CD 7004		str r7, [sp, #+4]
005C0788  F8CD 0000		str r0, [sp]
005C078C  F8DF 4244		ldr r4, [pc, #+580] ; 0x5C0030
005C0790  F044 0401		orr r4, r4, #1
005C0794  47A0     		blx r4
005C0796  B004     		add sp, sp, #16

#545		{L:205}
(*) UDINT
005C0798  F8DF 71B4		ldr r7, [pc, #+436] ; 0x1DC
005C079C  51F0     		str r0, [r6, +r7]

#546
#547
#548
#549		{L:213}
(*) UNDEF
005C079E  F8DF 7104		ldr r7, [pc, #+260] ; 0x4
005C07A2  5DF0     		ldrb r0, [r6, +r7]

#550		{L:213}
(*) USINT
005C07A4  2801     		cmp r0, #1
005C07A6  BF18 2000		nemov r0, #0
005C07AA  BF08 2001		eqmov r0, #1

#551		{L:213}
(*) BOOL
005C07AE  B082     		sub sp, sp, #8
005C07B0  F8CD 0000		str r0, [sp]
005C07B4  F8DF 70EC		ldr r7, [pc, #+236] ; 0x4
005C07B8  5DF0     		ldrb r0, [r6, +r7]

#552		{L:213}
(*) USINT
005C07BA  2800     		cmp r0, #0
005C07BC  BF18 2000		nemov r0, #0
005C07C0  BF08 2001		eqmov r0, #1

#553		{L:213}
(*) BOOL
005C07C4  4607     		mov r7, r0
005C07C6  F8DD 0000		ldr r0, [sp]
005C07CA  B002     		add sp, sp, #8
005C07CC  4338     		orr r0, r0, r7

#554		{L:213}
(-) BOOL
005C07CE  2800     		cmp r0, #0
005C07D0  D00A     		beq #20 ; 0x005C07E8


#555
#556
#557
#558
#559		{L:213}
(-) UNDEF
005C07D4  2001     		mov r0, #1 ; 1

#560		{L:213}
(-) BOOL
005C07D6  4600     		mov r0, r0
005C07D8  F8DF 41B0		ldr r4, [pc, #+432] ; 0x490519
005C07DC  F044 0401		orr r4, r4, #1
005C07E0  47A0     		blx r4

#561		{L:213}
(*) UDINT
005C07E2  F8DF 711C		ldr r7, [pc, #+284] ; 0x17C
005C07E6  51F0     		str r0, [r6, +r7]

#562
#563
#564
#565
#566
#567
#568		{L:214}
(-) UNDEF
005C07E8  2001     		mov r0, #1 ; 1

#569		{L:214}
(-) BOOL
005C07EA  4600     		mov r0, r0
005C07EC  F8DF 419C		ldr r4, [pc, #+412] ; 0x490519
005C07F0  F044 0401		orr r4, r4, #1
005C07F4  47A0     		blx r4

#570		{L:214}
(*) UDINT
005C07F6  F8DF 7108		ldr r7, [pc, #+264] ; 0x17C
005C07FA  59F7     		ldr r7, [r6, +r7]
005C07FC  1BC0     		sub r0, r0, r7

#571		{L:214}
(*) UDINT
005C07FE  F8DF 71CC		ldr r7, [pc, #+460] ; 0x5BA3C8
005C0802  683F     		ldr r7, [r7]
005C0804  42B8     		cmp r0, r7
005C0806  BF98 2000		lsmov r0, #0
005C080A  BF88 2001		himov r0, #1

#572		{L:214}
(-) BOOL
005C080E  2800     		cmp r0, #0
005C0810  D006     		beq #12 ; 0x005C0820


#573
#574
#575
#576
#577		{L:214}
(*) BOOL
005C0814  2001     		mov r0, #1 ; 1
005C0816  F8DF 7130		ldr r7, [pc, #+304] ; 0x1D3
005C081A  55F0     		strb r0, [r6, +r7]

#578
#579
#580
#581
(-) BOOL
005C081C  F001 B89D		b #4410 ; 0x005C195A


#582
#583
#584
#585
#586
#587		{L:219}
(-) UNDEF
005C0820  2001     		mov r0, #1 ; 1

#588		{L:219}
(-) BOOL
005C0822  4600     		mov r0, r0
005C0824  F8DF 4164		ldr r4, [pc, #+356] ; 0x490519
005C0828  F044 0401		orr r4, r4, #1
005C082C  47A0     		blx r4

#589		{L:219}
(*) UDINT
005C082E  F8DF 70D4		ldr r7, [pc, #+212] ; 0x180
005C0832  59F7     		ldr r7, [r6, +r7]
005C0834  1BC0     		sub r0, r0, r7

#590		{L:219}
(*) UDINT
005C0836  F8DF 7134		ldr r7, [pc, #+308] ; 0x1F8
005C083A  51F0     		str r0, [r6, +r7]

#591		{L:219}
(*) UNDEF
005C083C  F8DF 70D8		ldr r7, [pc, #+216] ; 0x18E
005C0840  5BF0     		ldrh r0, [r6, +r7]

#592		{L:219}
(*) UINT
005C0842  2703     		mov r7, #3 ; 3
005C0844  4378     		mul r0, r0, r7

#593		{L:219}
(*) UINT
005C0846  F8DF 7128		ldr r7, [pc, #+296] ; 0x1FC
005C084A  53F0     		strh r0, [r6, +r7]

#594		{L:219}
(*) UNDEF
005C084C  F8DF 7120		ldr r7, [pc, #+288] ; 0x1FC
005C0850  5BF0     		ldrh r0, [r6, +r7]

#595		{L:219}
(-) UINT
#596		{L:219}
(*) UDINT
005C0852  F8DF 7174		ldr r7, [pc, #+372] ; 0x5BA3C4
005C0856  683F     		ldr r7, [r7]
005C0858  4378     		mul r0, r0, r7

#597		{L:219}
(*) UDINT
005C085A  F8DF 7118		ldr r7, [pc, #+280] ; 0x200
005C085E  51F0     		str r0, [r6, +r7]

#598		{L:219}
(*) UNDEF
005C0860  F8DF 7108		ldr r7, [pc, #+264] ; 0x1F8
005C0864  59F0     		ldr r0, [r6, +r7]

#599		{L:219}
(*) UDINT
005C0866  F8DF 710C		ldr r7, [pc, #+268] ; 0x200
005C086A  59F7     		ldr r7, [r6, +r7]
005C086C  42B8     		cmp r0, r7
005C086E  BF98 2000		lsmov r0, #0
005C0872  BF88 2001		himov r0, #1

#600		{L:219}
(-) BOOL
005C0876  2800     		cmp r0, #0
005C0878  D004     		beq #8 ; 0x005C0884


#601
#602
#603
#604
#605		{L:219}
(*) BOOL
005C087C  2000     		mov r0, #0 ; 0
005C087E  F8DF 70C0		ldr r7, [pc, #+192] ; 0x1D1
005C0882  55F0     		strb r0, [r6, +r7]

#606
#607
#608
#609
#610
#611
#612
#613
#614		{L:233}
(*) UNDEF
005C0884  F8DF 701C		ldr r7, [pc, #+28] ; 0x4
005C0888  5DF0     		ldrb r0, [r6, +r7]

#615		{L:233}
(*) USINT
005C088A  2800     		cmp r0, #0
005C088C  BF18 2000		nemov r0, #0
005C0890  BF08 2001		eqmov r0, #1

#616
(-) BOOL
005C0894  2800     		cmp r0, #0
005C0896  F040 814E		bne #668 ; 0x005C0B36


#617
#618
#619		{L:248}
(*) UNDEF
005C089A  F8DF 7008		ldr r7, [pc, #+8] ; 0x4
005C089E  5DF0     		ldrb r0, [r6, +r7]

005C08A0  E09C     		b #312

005C08A4  00000004		; 0x00000004
005C08A8  00000008		; 0x00000008
005C08AC  0000000C		; 0x0000000C
005C08B0  00000014		; 0x00000014
005C08B4  00000074		; 0x00000074
005C08B8  00000075		; 0x00000075
005C08BC  00000078		; 0x00000078
005C08C0  0000007C		; 0x0000007C
005C08C4  00000080		; 0x00000080
005C08C8  00000084		; 0x00000084
005C08CC  00000088		; 0x00000088
005C08D0  000000B0		; 0x000000B0
005C08D4  000000B4		; 0x000000B4
005C08D8  000000B8		; 0x000000B8
005C08DC  000000BE		; 0x000000BE
005C08E0  00000128		; 0x00000128
005C08E4  0000012C		; 0x0000012C
005C08E8  00000144		; 0x00000144
005C08EC  00000148		; 0x00000148
005C08F0  0000014C		; 0x0000014C
005C08F4  00000150		; 0x00000150
005C08F8  00000174		; 0x00000174
005C08FC  00000178		; 0x00000178
005C0900  0000017C		; 0x0000017C
005C0904  00000180		; 0x00000180
005C0908  00000184		; 0x00000184
005C090C  00000189		; 0x00000189
005C0910  0000018A		; 0x0000018A
005C0914  0000018B		; 0x0000018B
005C0918  0000018E		; 0x0000018E
005C091C  00000190		; 0x00000190
005C0920  000001B4		; 0x000001B4
005C0924  000001B8		; 0x000001B8
005C0928  000001BC		; 0x000001BC
005C092C  000001C0		; 0x000001C0
005C0930  000001C4		; 0x000001C4
005C0934  000001C8		; 0x000001C8
005C0938  000001CC		; 0x000001CC
005C093C  000001D0		; 0x000001D0
005C0940  000001D1		; 0x000001D1
005C0944  000001D2		; 0x000001D2
005C0948  000001D3		; 0x000001D3
005C094C  000001D8		; 0x000001D8
005C0950  000001DC		; 0x000001DC
005C0954  000001E0		; 0x000001E0
005C0958  000001E4		; 0x000001E4
005C095C  000001E8		; 0x000001E8
005C0960  000001EC		; 0x000001EC
005C0964  000001F0		; 0x000001F0
005C0968  000001F4		; 0x000001F4
005C096C  000001F8		; 0x000001F8
005C0970  000001FC		; 0x000001FC
005C0974  00000200		; 0x00000200
005C0978  0048F461		; 0x0048F461
005C097C  0048F5A1		; 0x0048F5A1
005C0980  0048F96D		; 0x0048F96D
005C0984  0048FE35		; 0x0048FE35
005C0988  00490509		; 0x00490509
005C098C  00490519		; 0x00490519
005C0990  00490561		; 0x00490561
005C0994  004905B1		; 0x004905B1
005C0998  004905F5		; 0x004905F5
005C099C  004A4509		; 0x004A4509
005C09A0  004A4529		; 0x004A4529
005C09A4  004A4571		; 0x004A4571
005C09A8  004A46DD		; 0x004A46DD
005C09AC  005BA0C0		; 0x005BA0C0
005C09B0  005BA380		; 0x005BA380
005C09B4  005BA3A4		; 0x005BA3A4
005C09B8  005BA3A8		; 0x005BA3A8
005C09BC  005BA3AC		; 0x005BA3AC
005C09C0  005BA3B0		; 0x005BA3B0
005C09C4  005BA3B4		; 0x005BA3B4
005C09C8  005BA3C4		; 0x005BA3C4
005C09CC  005BA3C8		; 0x005BA3C8
005C09D0  005BD9B8		; 0x005BD9B8
005C09D4  005C0030		; 0x005C0030
005C09D8  20412E8C		; 0x20412E8C

#620		{L:248}
(*) USINT
005C09DC  2801     		cmp r0, #1
005C09DE  BF18 2000		nemov r0, #0
005C09E2  BF08 2001		eqmov r0, #1

#621
(-) BOOL
005C09E6  2800     		cmp r0, #0
005C09E8  F040 80ED		bne #474 ; 0x005C0BC6


#622
#623
#624		{L:258}
(*) UNDEF
005C09EC  F85F 714C		ldr r7, [pc, #-332] ; 0x4
005C09F0  5DF0     		ldrb r0, [r6, +r7]

#625		{L:258}
(*) USINT
005C09F2  2864     		cmp r0, #100
005C09F4  BF18 2000		nemov r0, #0
005C09F8  BF08 2001		eqmov r0, #1

#626
(-) BOOL
005C09FC  2800     		cmp r0, #0
005C09FE  F040 810A		bne #532 ; 0x005C0C16


#627
#628
#629		{L:293}
(*) UNDEF
005C0A02  F85F 7160		ldr r7, [pc, #-352] ; 0x4
005C0A06  5DF0     		ldrb r0, [r6, +r7]

#630		{L:293}
(*) USINT
005C0A08  2865     		cmp r0, #101
005C0A0A  BF18 2000		nemov r0, #0
005C0A0E  BF08 2001		eqmov r0, #1

#631
(-) BOOL
005C0A12  2800     		cmp r0, #0
005C0A14  F040 825D		bne #1210 ; 0x005C0ED2


#632
#633
#634		{L:321}
(*) UNDEF
005C0A18  F85F 7178		ldr r7, [pc, #-376] ; 0x4
005C0A1C  5DF0     		ldrb r0, [r6, +r7]

#635		{L:321}
(*) USINT
005C0A1E  2866     		cmp r0, #102
005C0A20  BF18 2000		nemov r0, #0
005C0A24  BF08 2001		eqmov r0, #1

#636
(-) BOOL
005C0A28  2800     		cmp r0, #0
005C0A2A  F040 8319		bne #1586 ; 0x005C1060


#637
#638
#639		{L:373}
(*) UNDEF
005C0A2E  F85F 718C		ldr r7, [pc, #-396] ; 0x4
005C0A32  5DF0     		ldrb r0, [r6, +r7]

#640		{L:373}
(*) USINT
005C0A34  286E     		cmp r0, #110
005C0A36  BF18 2000		nemov r0, #0
005C0A3A  BF08 2001		eqmov r0, #1

#641
(-) BOOL
005C0A3E  2800     		cmp r0, #0
005C0A40  F040 852F		bne #2654 ; 0x005C14A2


#642
#643
#644		{L:394}
(*) UNDEF
005C0A44  F85F 71A4		ldr r7, [pc, #-420] ; 0x4
005C0A48  5DF0     		ldrb r0, [r6, +r7]

#645		{L:394}
(*) USINT
005C0A4A  28FA     		cmp r0, #250
005C0A4C  BF18 2000		nemov r0, #0
005C0A50  BF08 2001		eqmov r0, #1

#646		{L:394}
(*) BOOL
005C0A54  B082     		sub sp, sp, #8
005C0A56  F8CD 0000		str r0, [sp]
005C0A5A  F85F 71B8		ldr r7, [pc, #-440] ; 0x4
005C0A5E  5DF0     		ldrb r0, [r6, +r7]

#647		{L:394}
(*) USINT
005C0A60  28F0     		cmp r0, #240
005C0A62  BF18 2000		nemov r0, #0
005C0A66  BF08 2001		eqmov r0, #1

#648		{L:394}
(*) BOOL
005C0A6A  4607     		mov r7, r0
005C0A6C  F8DD 0000		ldr r0, [sp]
005C0A70  B002     		add sp, sp, #8
005C0A72  4338     		orr r0, r0, r7

#649
(-) BOOL
005C0A74  2800     		cmp r0, #0
005C0A76  F040 85BB		bne #2934 ; 0x005C15F0


#650
#651
#652		{L:401}
(*) UNDEF
005C0A7A  F85F 71D8		ldr r7, [pc, #-472] ; 0x4
005C0A7E  5DF0     		ldrb r0, [r6, +r7]

#653		{L:401}
(*) USINT
005C0A80  28FB     		cmp r0, #251
005C0A82  BF18 2000		nemov r0, #0
005C0A86  BF08 2001		eqmov r0, #1

#654		{L:401}
(*) BOOL
005C0A8A  B082     		sub sp, sp, #8
005C0A8C  F8CD 0000		str r0, [sp]
005C0A90  F85F 71F0		ldr r7, [pc, #-496] ; 0x4
005C0A94  5DF0     		ldrb r0, [r6, +r7]

#655		{L:401}
(*) USINT
005C0A96  28F1     		cmp r0, #241
005C0A98  BF18 2000		nemov r0, #0
005C0A9C  BF08 2001		eqmov r0, #1

#656		{L:401}
(*) BOOL
005C0AA0  4607     		mov r7, r0
005C0AA2  F8DD 0000		ldr r0, [sp]
005C0AA6  B002     		add sp, sp, #8
005C0AA8  4338     		orr r0, r0, r7

#657
(-) BOOL
005C0AAA  2800     		cmp r0, #0
005C0AAC  F040 85C6		bne #2956 ; 0x005C163C


#658
#659
#660		{L:426}
(*) UNDEF
005C0AB0  F85F 7210		ldr r7, [pc, #-528] ; 0x4
005C0AB4  5DF0     		ldrb r0, [r6, +r7]

#661		{L:426}
(*) USINT
005C0AB6  28FC     		cmp r0, #252
005C0AB8  BF18 2000		nemov r0, #0
005C0ABC  BF08 2001		eqmov r0, #1

#662		{L:426}
(*) BOOL
005C0AC0  B082     		sub sp, sp, #8
005C0AC2  F8CD 0000		str r0, [sp]
005C0AC6  F85F 7224		ldr r7, [pc, #-548] ; 0x4
005C0ACA  5DF0     		ldrb r0, [r6, +r7]

#663		{L:426}
(*) USINT
005C0ACC  28F2     		cmp r0, #242
005C0ACE  BF18 2000		nemov r0, #0
005C0AD2  BF08 2001		eqmov r0, #1

#664		{L:426}
(*) BOOL
005C0AD6  4607     		mov r7, r0
005C0AD8  F8DD 0000		ldr r0, [sp]
005C0ADC  B002     		add sp, sp, #8
005C0ADE  4338     		orr r0, r0, r7

#665
(-) BOOL
005C0AE0  2800     		cmp r0, #0
005C0AE2  F040 85E9		bne #3026 ; 0x005C16B8


#666
#667
#668		{L:458}
(*) UNDEF
005C0AE6  F85F 7244		ldr r7, [pc, #-580] ; 0x4
005C0AEA  5DF0     		ldrb r0, [r6, +r7]

#669		{L:458}
(*) USINT
005C0AEC  28F3     		cmp r0, #243
005C0AEE  BF18 2000		nemov r0, #0
005C0AF2  BF08 2001		eqmov r0, #1

#670
(-) BOOL
005C0AF6  2800     		cmp r0, #0
005C0AF8  F040 86EF		bne #3550 ; 0x005C18DA


#671
#672
#673		{L:465}
(*) UNDEF
005C0AFC  F85F 725C		ldr r7, [pc, #-604] ; 0x4
005C0B00  5DF0     		ldrb r0, [r6, +r7]

#674		{L:465}
(*) USINT
005C0B02  28FD     		cmp r0, #253
005C0B04  BF18 2000		nemov r0, #0
005C0B08  BF08 2001		eqmov r0, #1

#675		{L:465}
(*) BOOL
005C0B0C  B082     		sub sp, sp, #8
005C0B0E  F8CD 0000		str r0, [sp]
005C0B12  F85F 7270		ldr r7, [pc, #-624] ; 0x4
005C0B16  5DF0     		ldrb r0, [r6, +r7]

#676		{L:465}
(*) USINT
005C0B18  28F4     		cmp r0, #244
005C0B1A  BF18 2000		nemov r0, #0
005C0B1E  BF08 2001		eqmov r0, #1

#677		{L:465}
(*) BOOL
005C0B22  4607     		mov r7, r0
005C0B24  F8DD 0000		ldr r0, [sp]
005C0B28  B002     		add sp, sp, #8
005C0B2A  4338     		orr r0, r0, r7

#678
(-) BOOL
005C0B2C  2800     		cmp r0, #0
005C0B2E  F040 86F1		bne #3554 ; 0x005C1914


#679
(-) BOOL
005C0B32  F000 BF12		b #3620 ; 0x005C195A


#680
#681
#682
#683
#684
#685
#686		{L:234}
(*) UNDEF
005C0B36  F85F 7214		ldr r7, [pc, #-532] ; 0x1B8
005C0B3A  F856 C007		ldr r12, [r6, +r7]
005C0B3E  F8DC 0000		ldr r0, [r12]

#687		{L:234}
(*) UDINT
005C0B42  F85F 7220		ldr r7, [pc, #-544] ; 0x1B8
005C0B46  F856 C007		ldr r12, [r6, +r7]
005C0B4A  F85F 72A8		ldr r7, [pc, #-680] ; 0x4
005C0B4E  F85C 7007		ldr r7, [r12, +r7]
005C0B52  42B8     		cmp r0, r7
005C0B54  BF08 2000		eqmov r0, #0
005C0B58  BF18 2001		nemov r0, #1

#688		{L:234}
(-) BOOL
005C0B5C  2800     		cmp r0, #0
005C0B5E  D006     		beq #12 ; 0x005C0B6E


#689
#690
#691
#692
#693		{L:234}
(*) BOOL
005C0B62  2064     		mov r0, #100 ; 100
005C0B64  F85F 72C4		ldr r7, [pc, #-708] ; 0x4
005C0B68  55F0     		strb r0, [r6, +r7]

#694
#695
#696
#697
(-) USINT
005C0B6A  F000 BEF6		b #3564 ; 0x005C195A


#698
#699
#700
#701
#702
#703		{L:239}
(-) UNDEF
005C0B6E  2001     		mov r0, #1 ; 1

#704		{L:239}
(-) BOOL
005C0B70  4600     		mov r0, r0
005C0B72  F85F 41E8		ldr r4, [pc, #-488] ; 0x490519
005C0B76  F044 0401		orr r4, r4, #1
005C0B7A  47A0     		blx r4

#705		{L:239}
(*) UDINT
005C0B7C  F85F 7278		ldr r7, [pc, #-632] ; 0x184
005C0B80  59F7     		ldr r7, [r6, +r7]
005C0B82  1BC0     		sub r0, r0, r7

#706		{L:239}
(*) UDINT
005C0B84  F85F 721C		ldr r7, [pc, #-540] ; 0x1F8
005C0B88  51F0     		str r0, [r6, +r7]

#707		{L:239}
(*) UNDEF
005C0B8A  F85F 7274		ldr r7, [pc, #-628] ; 0x18E
005C0B8E  5BF0     		ldrh r0, [r6, +r7]

#708		{L:239}
(-) UINT
#709		{L:239}
(*) UDINT
005C0B90  F85F 71CC		ldr r7, [pc, #-460] ; 0x5BA3C4
005C0B94  683F     		ldr r7, [r7]
005C0B96  4378     		mul r0, r0, r7

#710		{L:239}
(*) UDINT
005C0B98  F85F 7228		ldr r7, [pc, #-552] ; 0x200
005C0B9C  51F0     		str r0, [r6, +r7]

#711		{L:239}
(*) UNDEF
005C0B9E  F85F 7234		ldr r7, [pc, #-564] ; 0x1F8
005C0BA2  59F0     		ldr r0, [r6, +r7]

#712		{L:239}
(*) UDINT
005C0BA4  F85F 7234		ldr r7, [pc, #-564] ; 0x200
005C0BA8  59F7     		ldr r7, [r6, +r7]
005C0BAA  42B8     		cmp r0, r7
005C0BAC  BF98 2000		lsmov r0, #0
005C0BB0  BF88 2001		himov r0, #1

#713		{L:239}
(-) BOOL
005C0BB4  2800     		cmp r0, #0
005C0BB6  D004     		beq #8 ; 0x005C0BC2


#714
#715
#716
#717
#718		{L:239}
(*) BOOL
005C0BBA  206E     		mov r0, #110 ; 110
005C0BBC  F85F 731C		ldr r7, [pc, #-796] ; 0x4
005C0BC0  55F0     		strb r0, [r6, +r7]

#719
#720
#721
#722
(-) USINT
005C0BC2  F000 BECA		b #3476 ; 0x005C195A


#723
#724
#725
#726
#727		{L:249}
(-) UNDEF
005C0BC6  2001     		mov r0, #1 ; 1

#728		{L:249}
(-) BOOL
005C0BC8  4600     		mov r0, r0
005C0BCA  F85F 4240		ldr r4, [pc, #-576] ; 0x490519
005C0BCE  F044 0401		orr r4, r4, #1
005C0BD2  47A0     		blx r4

#729		{L:249}
(*) UDINT
005C0BD4  F85F 72D0		ldr r7, [pc, #-720] ; 0x184
005C0BD8  59F7     		ldr r7, [r6, +r7]
005C0BDA  1BC0     		sub r0, r0, r7

#730		{L:249}
(*) UDINT
005C0BDC  F85F 72FC		ldr r7, [pc, #-764] ; 0x12C
005C0BE0  59F7     		ldr r7, [r6, +r7]
005C0BE2  42B8     		cmp r0, r7
005C0BE4  BF28 2000		hsmov r0, #0
005C0BE8  BF38 2001		lomov r0, #1

#731		{L:249}
(-) BOOL
005C0BEC  2800     		cmp r0, #0
005C0BEE  D002     		beq #4 ; 0x005C0BF6


#732
#733
#734
#735
#736
#737
(-) BOOL
005C0BF2  F000 BEB2		b #3428 ; 0x005C195A


#738
#739
#740
#741
#742		{L:250}
(-) UNDEF
005C0BF6  2001     		mov r0, #1 ; 1

#743		{L:250}
(-) BOOL
005C0BF8  4600     		mov r0, r0
005C0BFA  F85F 4270		ldr r4, [pc, #-624] ; 0x490519
005C0BFE  F044 0401		orr r4, r4, #1
005C0C02  47A0     		blx r4

#744		{L:250}
(*) UDINT
005C0C04  F85F 7300		ldr r7, [pc, #-768] ; 0x184
005C0C08  51F0     		str r0, [r6, +r7]

#745
#746
#747		{L:251}
(*) UDINT
005C0C0A  2000     		mov r0, #0 ; 0
005C0C0C  F85F 736C		ldr r7, [pc, #-876] ; 0x4
005C0C10  55F0     		strb r0, [r6, +r7]

#748
(-) USINT
005C0C12  F000 BEA2		b #3396 ; 0x005C195A


#749
#750
#751
#752		{L:259}
(*) UNDEF
005C0C16  4630     		mov r0, r6
005C0C18  F85F 7300		ldr r7, [pc, #-768] ; 0x190
005C0C1C  19C0     		add r0, r0, r7

#753		{L:259}
(-) STRING
005C0C1E  F8DF 7604		ldr r7, [pc, #+1540] ; 0x5BA3CC
005C0C22  4639     		mov r1, r7
005C0C24  F8DF 45F0		ldr r4, [pc, #+1520] ; 0x4909FD
005C0C28  F044 0401		orr r4, r4, #1
005C0C2C  47A0     		blx r4

#754		{L:259}
(*) UDINT
005C0C2E  F8DF 75C0		ldr r7, [pc, #+1472] ; 0x10
005C0C32  51F0     		str r0, [r6, +r7]

#755
#756
#757
#758		{L:260}
(*) UNDEF
005C0C34  F8DF 75B8		ldr r7, [pc, #+1464] ; 0x10
005C0C38  59F0     		ldr r0, [r6, +r7]

#759		{L:260}
(*) UDINT
005C0C3A  2700     		mov r7, #0 ; 0
005C0C3C  42B8     		cmp r0, r7
005C0C3E  BF18 2000		nemov r0, #0
005C0C42  BF08 2001		eqmov r0, #1

#760		{L:260}
(-) BOOL
005C0C46  2800     		cmp r0, #0
005C0C48  D008     		beq #16 ; 0x005C0C5C


#761
#762
#763
#764
#765		{L:260}
(*) BOOL
005C0C4C  F8DF 75D8		ldr r7, [pc, #+1496] ; 0x5BA3D0
005C0C50  6838     		ldr r0, [r7]
005C0C52  F85F 73AC		ldr r7, [pc, #-940] ; 0x8
005C0C56  51F0     		str r0, [r6, +r7]

#766
#767
#768
#769
(-) UDINT
005C0C58  F000 BE7F		b #3326 ; 0x005C195A


#770
#771
#772
#773
#774
#775		{L:264}
(*) UNDEF
005C0C5C  F85F 733C		ldr r7, [pc, #-828] ; 0x1B8
005C0C60  F856 C007		ldr r12, [r6, +r7]
005C0C64  F85F 73C4		ldr r7, [pc, #-964] ; 0x4
005C0C68  F85C 0007		ldr r0, [r12, +r7]

#776		{L:264}
(-) UDINT
#777		{L:264}
(*) DINT
005C0C6C  F8DF 7590		ldr r7, [pc, #+1424] ; 0x204
005C0C70  51F0     		str r0, [r6, +r7]

#778		{L:264}
(*) UNDEF
005C0C72  F8DF 757C		ldr r7, [pc, #+1404] ; 0x10
005C0C76  59F0     		ldr r0, [r6, +r7]

#779		{L:264}
(-) UDINT
005C0C78  2200     		mov r2, #0 ; 0
005C0C7A  F8DF 7584		ldr r7, [pc, #+1412] ; 0x204
005C0C7E  59F1     		ldr r1, [r6, +r7]
005C0C80  4600     		mov r0, r0
005C0C82  F8DF 458C		ldr r4, [pc, #+1420] ; 0x48F5D5
005C0C86  F044 0401		orr r4, r4, #1
005C0C8A  47A0     		blx r4

#780		{L:264}
(*) DINT
005C0C8C  F04F 37FF		mov r7, #4294967295 ; 4294967295
005C0C90  42B8     		cmp r0, r7
005C0C92  BF18 2000		nemov r0, #0
005C0C96  BF08 2001		eqmov r0, #1

#781		{L:264}
(-) BOOL
005C0C9A  2800     		cmp r0, #0
005C0C9C  D014     		beq #40 ; 0x005C0CC8


#782
#783
#784
#785
#786		{L:264}
(*) UNDEF
005C0CA0  F8DF 754C		ldr r7, [pc, #+1356] ; 0x10
005C0CA4  59F0     		ldr r0, [r6, +r7]

#787		{L:264}
(-) UDINT
005C0CA6  4600     		mov r0, r0
005C0CA8  F8DF 4570		ldr r4, [pc, #+1392] ; 0x490A61
005C0CAC  F044 0401		orr r4, r4, #1
005C0CB0  47A0     		blx r4

#788		{L:264}
(*) INT
005C0CB2  F85F 73D4		ldr r7, [pc, #-980] ; 0x128
005C0CB6  53F0     		strh r0, [r6, +r7]

#789
#790
#791		{L:264}
(*) INT
005C0CB8  F8DF 7570		ldr r7, [pc, #+1392] ; 0x5BA3D4
005C0CBC  6838     		ldr r0, [r7]
005C0CBE  F85F 7418		ldr r7, [pc, #-1048] ; 0x8
005C0CC2  51F0     		str r0, [r6, +r7]

#792
#793
#794
#795
(-) UDINT
005C0CC4  F000 BE49		b #3218 ; 0x005C195A


#796
#797
#798
#799
#800
#801		{L:265}
(*) UDINT
005C0CC8  4630     		mov r0, r6
005C0CCA  F8DF 7528		ldr r7, [pc, #+1320] ; 0x130
005C0CCE  19C0     		add r0, r0, r7

#802		{L:265}
(*) DWORD
005C0CD0  F85F 7370		ldr r7, [pc, #-880] ; 0x1F0
005C0CD4  51F0     		str r0, [r6, +r7]

#803		{L:265}
(*) UNDEF
005C0CD6  F85F 7374		ldr r7, [pc, #-884] ; 0x1F0
005C0CDA  59F0     		ldr r0, [r6, +r7]

#804		{L:265}
(-) @UNDEF
005C0CDC  F8DF 7510		ldr r7, [pc, #+1296] ; 0x10
005C0CE0  59F3     		ldr r3, [r6, +r7]
005C0CE2  2201     		mov r2, #1 ; 1
005C0CE4  2102     		mov r1, #2 ; 2
005C0CE6  4600     		mov r0, r0
005C0CE8  F8DF 4534		ldr r4, [pc, #+1332] ; 0x490B9D
005C0CEC  F044 0401		orr r4, r4, #1
005C0CF0  47A0     		blx r4

#805		{L:265}
(*) INT
005C0CF2  2802     		cmp r0, #2
005C0CF4  BF08 2000		eqmov r0, #0
005C0CF8  BF18 2001		nemov r0, #1

#806		{L:265}
(-) BOOL
005C0CFC  2800     		cmp r0, #0
005C0CFE  D014     		beq #40 ; 0x005C0D2A


#807
#808
#809
#810
#811		{L:265}
(*) UNDEF
005C0D02  F8DF 74EC		ldr r7, [pc, #+1260] ; 0x10
005C0D06  59F0     		ldr r0, [r6, +r7]

#812		{L:265}
(-) UDINT
005C0D08  4600     		mov r0, r0
005C0D0A  F8DF 4510		ldr r4, [pc, #+1296] ; 0x490A61
005C0D0E  F044 0401		orr r4, r4, #1
005C0D12  47A0     		blx r4

#813		{L:265}
(*) INT
005C0D14  F85F 7438		ldr r7, [pc, #-1080] ; 0x128
005C0D18  53F0     		strh r0, [r6, +r7]

#814
#815
#816		{L:265}
(*) INT
005C0D1A  F8DF 7514		ldr r7, [pc, #+1300] ; 0x5BA3D8
005C0D1E  6838     		ldr r0, [r7]
005C0D20  F85F 747C		ldr r7, [pc, #-1148] ; 0x8
005C0D24  51F0     		str r0, [r6, +r7]

#817
#818
#819
#820
(-) UDINT
005C0D26  F000 BE18		b #3120 ; 0x005C195A


#821
#822
#823
#824
#825
#826		{L:269}
(*) UNDEF
005C0D2A  F8DF 74C8		ldr r7, [pc, #+1224] ; 0x130
005C0D2E  5BF0     		ldrh r0, [r6, +r7]

#827		{L:269}
(*) UINT
005C0D30  F8DF 7500		ldr r7, [pc, #+1280] ; 0x5BA3DC
005C0D34  883F     		ldrh r7, [r7]
005C0D36  42B8     		cmp r0, r7
005C0D38  BF18 2000		nemov r0, #0
005C0D3C  BF08 2001		eqmov r0, #1

#828		{L:269}
(-) BOOL
005C0D40  2800     		cmp r0, #0
005C0D42  D070     		beq #224 ; 0x005C0E26


#829
#830
#831
#832
#833		{L:270}
(*) BOOL
005C0D46  2000     		mov r0, #0 ; 0
005C0D48  F85F 7428		ldr r7, [pc, #-1064] ; 0x1B8
005C0D4C  F856 C007		ldr r12, [r6, +r7]
005C0D50  F85F 74B0		ldr r7, [pc, #-1200] ; 0x4
005C0D54  F84C 0007		str r0, [r12, +r7]

#834
#835
#836
#837		{L:271}
(*) UNDEF
005C0D58  F85F 7438		ldr r7, [pc, #-1080] ; 0x1B8
005C0D5C  F856 C007		ldr r12, [r6, +r7]
005C0D60  F85F 74C0		ldr r7, [pc, #-1216] ; 0x4
005C0D64  F85C 0007		ldr r0, [r12, +r7]

#838		{L:271}
(-) UDINT
#839		{L:271}
(*) DINT
005C0D68  F8DF 7494		ldr r7, [pc, #+1172] ; 0x204
005C0D6C  51F0     		str r0, [r6, +r7]

#840		{L:271}
(*) UNDEF
005C0D6E  F8DF 7480		ldr r7, [pc, #+1152] ; 0x10
005C0D72  59F0     		ldr r0, [r6, +r7]

#841		{L:271}
(-) UDINT
005C0D74  2200     		mov r2, #0 ; 0
005C0D76  F8DF 7488		ldr r7, [pc, #+1160] ; 0x204
005C0D7A  59F1     		ldr r1, [r6, +r7]
005C0D7C  4600     		mov r0, r0
005C0D7E  F8DF 4490		ldr r4, [pc, #+1168] ; 0x48F5D5
005C0D82  F044 0401		orr r4, r4, #1
005C0D86  47A0     		blx r4

#842		{L:271}
(*) DINT
005C0D88  F04F 37FF		mov r7, #4294967295 ; 4294967295
005C0D8C  42B8     		cmp r0, r7
005C0D8E  BF18 2000		nemov r0, #0
005C0D92  BF08 2001		eqmov r0, #1

#843		{L:271}
(-) BOOL
005C0D96  2800     		cmp r0, #0
005C0D98  D014     		beq #40 ; 0x005C0DC4


#844
#845
#846
#847
#848		{L:271}
(*) UNDEF
005C0D9C  F8DF 7450		ldr r7, [pc, #+1104] ; 0x10
005C0DA0  59F0     		ldr r0, [r6, +r7]

#849		{L:271}
(-) UDINT
005C0DA2  4600     		mov r0, r0
005C0DA4  F8DF 4474		ldr r4, [pc, #+1140] ; 0x490A61
005C0DA8  F044 0401		orr r4, r4, #1
005C0DAC  47A0     		blx r4

#850		{L:271}
(*) INT
005C0DAE  F85F 74D0		ldr r7, [pc, #-1232] ; 0x128
005C0DB2  53F0     		strh r0, [r6, +r7]

#851
#852
#853		{L:271}
(*) INT
005C0DB4  F8DF 7480		ldr r7, [pc, #+1152] ; 0x5BA3E0
005C0DB8  6838     		ldr r0, [r7]
005C0DBA  F85F 7514		ldr r7, [pc, #-1300] ; 0x8
005C0DBE  51F0     		str r0, [r6, +r7]

#854
#855
#856
#857
(-) UDINT
005C0DC0  F000 BDCB		b #2966 ; 0x005C195A


#858
#859
#860
#861
#862
#863		{L:272}
(*) UDINT
005C0DC4  4630     		mov r0, r6
005C0DC6  F8DF 742C		ldr r7, [pc, #+1068] ; 0x130
005C0DCA  19C0     		add r0, r0, r7

#864		{L:272}
(*) DWORD
005C0DCC  F85F 746C		ldr r7, [pc, #-1132] ; 0x1F0
005C0DD0  51F0     		str r0, [r6, +r7]

#865		{L:272}
(*) UNDEF
005C0DD2  F85F 7470		ldr r7, [pc, #-1136] ; 0x1F0
005C0DD6  59F0     		ldr r0, [r6, +r7]

#866		{L:272}
(-) @UNDEF
005C0DD8  F8DF 7414		ldr r7, [pc, #+1044] ; 0x10
005C0DDC  59F3     		ldr r3, [r6, +r7]
005C0DDE  2201     		mov r2, #1 ; 1
005C0DE0  2102     		mov r1, #2 ; 2
005C0DE2  4600     		mov r0, r0
005C0DE4  F8DF 4438		ldr r4, [pc, #+1080] ; 0x490B9D
005C0DE8  F044 0401		orr r4, r4, #1
005C0DEC  47A0     		blx r4

#867		{L:272}
(*) INT
005C0DEE  2802     		cmp r0, #2
005C0DF0  BF08 2000		eqmov r0, #0
005C0DF4  BF18 2001		nemov r0, #1

#868		{L:272}
(-) BOOL
005C0DF8  2800     		cmp r0, #0
005C0DFA  D014     		beq #40 ; 0x005C0E26


#869
#870
#871
#872
#873		{L:272}
(*) UNDEF
005C0DFE  F8DF 73F0		ldr r7, [pc, #+1008] ; 0x10
005C0E02  59F0     		ldr r0, [r6, +r7]

#874		{L:272}
(-) UDINT
005C0E04  4600     		mov r0, r0
005C0E06  F8DF 4414		ldr r4, [pc, #+1044] ; 0x490A61
005C0E0A  F044 0401		orr r4, r4, #1
005C0E0E  47A0     		blx r4

#875		{L:272}
(*) INT
005C0E10  F85F 7534		ldr r7, [pc, #-1332] ; 0x128
005C0E14  53F0     		strh r0, [r6, +r7]

#876
#877
#878		{L:272}
(*) INT
005C0E16  F8DF 7424		ldr r7, [pc, #+1060] ; 0x5BA3E4
005C0E1A  6838     		ldr r0, [r7]
005C0E1C  F85F 7578		ldr r7, [pc, #-1400] ; 0x8
005C0E20  51F0     		str r0, [r6, +r7]

#879
#880
#881
#882
(-) UDINT
005C0E22  F000 BD9A		b #2868 ; 0x005C195A


#883
#884
#885
#886
#887
#888
#889
#890		{L:277}
(*) UNDEF
005C0E26  F8DF 73C8		ldr r7, [pc, #+968] ; 0x10
005C0E2A  59F0     		ldr r0, [r6, +r7]

#891		{L:277}
(-) UDINT
005C0E2C  4600     		mov r0, r0
005C0E2E  F8DF 43EC		ldr r4, [pc, #+1004] ; 0x490A61
005C0E32  F044 0401		orr r4, r4, #1
005C0E36  47A0     		blx r4

#892		{L:277}
(*) INT
005C0E38  F85F 755C		ldr r7, [pc, #-1372] ; 0x128
005C0E3C  53F0     		strh r0, [r6, +r7]

#893
#894
#895		{L:278}
(*) UNDEF
005C0E3E  F8DF 73B4		ldr r7, [pc, #+948] ; 0x130
005C0E42  5BF0     		ldrh r0, [r6, +r7]

#896		{L:278}
(*) UINT
005C0E44  0200     		lsl r0, r0, #8
005C0E46  EA40 4010		orr r0, r0, r0, lsr #16
005C0E4A  0400     		lsl r0, r0, #16
005C0E4C  0C00     		lsr r0, r0, #16

#897		{L:278}
(*) UINT
005C0E4E  F8DF 73A4		ldr r7, [pc, #+932] ; 0x130
005C0E52  53F0     		strh r0, [r6, +r7]

#898
#899
#900		{L:279}
(*) UNDEF
005C0E54  F85F 75B4		ldr r7, [pc, #-1460] ; 0x4
005C0E58  5DF0     		ldrb r0, [r6, +r7]

#901		{L:279}
(-) USINT
005C0E5A  1C40     		add r0, r0, #1

#902		{L:279}
(*) USINT
005C0E5C  F85F 75BC		ldr r7, [pc, #-1468] ; 0x4
005C0E60  55F0     		strb r0, [r6, +r7]

#903
#904
#905
#906		{L:283}
(*) UNDEF
005C0E62  F8DF 7390		ldr r7, [pc, #+912] ; 0x130
005C0E66  5BF0     		ldrh r0, [r6, +r7]

#907		{L:283}
(*) UINT
005C0E68  F85F 7538		ldr r7, [pc, #-1336] ; 0x1C8
005C0E6C  59F7     		ldr r7, [r6, +r7]
005C0E6E  42B8     		cmp r0, r7
005C0E70  BF98 2000		lsmov r0, #0
005C0E74  BF88 2001		himov r0, #1

#908		{L:283}
(*) BOOL
005C0E78  B082     		sub sp, sp, #8
005C0E7A  F8CD 0000		str r0, [sp]
005C0E7E  F8DF 7374		ldr r7, [pc, #+884] ; 0x130
005C0E82  5BF0     		ldrh r0, [r6, +r7]

#909		{L:283}
(*) UINT
005C0E84  2800     		cmp r0, #0
005C0E86  BF18 2000		nemov r0, #0
005C0E8A  BF08 2001		eqmov r0, #1

#910		{L:283}
(*) BOOL
005C0E8E  4607     		mov r7, r0
005C0E90  F8DD 0000		ldr r0, [sp]
005C0E94  B002     		add sp, sp, #8
005C0E96  4338     		orr r0, r0, r7

#911		{L:283}
(-) BOOL
005C0E98  2800     		cmp r0, #0
005C0E9A  D018     		beq #48 ; 0x005C0ECE


#912
#913
#914
#915
#916		{L:284}
(*) BOOL
005C0E9E  2000     		mov r0, #0 ; 0
005C0EA0  F85F 7580		ldr r7, [pc, #-1408] ; 0x1B8
005C0EA4  F856 C007		ldr r12, [r6, +r7]
005C0EA8  F8CC 0000		str r0, [r12]

#917
#918
#919		{L:285}
(*) USINT
005C0EAC  2000     		mov r0, #0 ; 0
005C0EAE  F85F 758C		ldr r7, [pc, #-1420] ; 0x1B8
005C0EB2  F856 C007		ldr r12, [r6, +r7]
005C0EB6  F85F 7614		ldr r7, [pc, #-1556] ; 0x4
005C0EBA  F84C 0007		str r0, [r12, +r7]

#920
#921
#922		{L:286}
(*) USINT
005C0EBE  F8DF 7380		ldr r7, [pc, #+896] ; 0x5BA3E8
005C0EC2  6838     		ldr r0, [r7]
005C0EC4  F85F 7620		ldr r7, [pc, #-1568] ; 0x8
005C0EC8  51F0     		str r0, [r6, +r7]

#923
#924
#925
#926
(-) UDINT
005C0ECA  F000 BD46		b #2700 ; 0x005C195A


#927
#928
#929
(-) UDINT
005C0ECE  F000 BD44		b #2696 ; 0x005C195A


#930
#931
#932
#933
#934		{L:294}
(-) UDINT
005C0ED2  4630     		mov r0, r6

#935		{L:294}
(*) DWORD
005C0ED4  F85F 7574		ldr r7, [pc, #-1396] ; 0x1F0
005C0ED8  51F0     		str r0, [r6, +r7]

#936		{L:294}
(*) UNDEF
005C0EDA  F8DF 7318		ldr r7, [pc, #+792] ; 0x130
005C0EDE  5BF0     		ldrh r0, [r6, +r7]

#937		{L:294}
(-) UINT
005C0EE0  F85F 7580		ldr r7, [pc, #-1408] ; 0x1F0
005C0EE4  59F1     		ldr r1, [r6, +r7]
005C0EE6  4600     		mov r0, r0
005C0EE8  F85F 4558		ldr r4, [pc, #-1368] ; 0x4905B1
005C0EEC  F044 0401		orr r4, r4, #1
005C0EF0  47A0     		blx r4

#938		{L:294}
(*) BOOL
005C0EF2  2800     		cmp r0, #0
005C0EF4  BF08 2001		eqmov r0, #1
005C0EF8  BF18 2000		nemov r0, #0

#939		{L:294}
(-) BOOL
005C0EFC  2800     		cmp r0, #0
005C0EFE  D002     		beq #4 ; 0x005C0F06


#940
#941
#942
#943
#944
#945
(-) BOOL
005C0F02  F000 BD2A		b #2644 ; 0x005C195A


#946
#947
#948
#949
#950		{L:295}
(*) UNDEF
005C0F06  4630     		mov r0, r6
005C0F08  F85F 75F0		ldr r7, [pc, #-1520] ; 0x190
005C0F0C  19C0     		add r0, r0, r7

#951		{L:295}
(-) STRING
005C0F0E  F8DF 7314		ldr r7, [pc, #+788] ; 0x5BA3CC
005C0F12  4639     		mov r1, r7
005C0F14  F8DF 4300		ldr r4, [pc, #+768] ; 0x4909FD
005C0F18  F044 0401		orr r4, r4, #1
005C0F1C  47A0     		blx r4

#952		{L:295}
(*) UDINT
005C0F1E  F8DF 72D0		ldr r7, [pc, #+720] ; 0x10
005C0F22  51F0     		str r0, [r6, +r7]

#953
#954
#955
#956		{L:296}
(*) UNDEF
005C0F24  F8DF 72C8		ldr r7, [pc, #+712] ; 0x10
005C0F28  59F0     		ldr r0, [r6, +r7]

#957		{L:296}
(*) UDINT
005C0F2A  2700     		mov r7, #0 ; 0
005C0F2C  42B8     		cmp r0, r7
005C0F2E  BF18 2000		nemov r0, #0
005C0F32  BF08 2001		eqmov r0, #1

#958		{L:296}
(-) BOOL
005C0F36  2800     		cmp r0, #0
005C0F38  D008     		beq #16 ; 0x005C0F4C


#959
#960
#961
#962
#963		{L:296}
(*) BOOL
005C0F3C  F8DF 7304		ldr r7, [pc, #+772] ; 0x5BA3EC
005C0F40  6838     		ldr r0, [r7]
005C0F42  F85F 769C		ldr r7, [pc, #-1692] ; 0x8
005C0F46  51F0     		str r0, [r6, +r7]

#964
#965
#966
#967
(-) UDINT
005C0F48  F000 BD07		b #2574 ; 0x005C195A


#968
#969
#970
#971
#972
#973		{L:300}
(*) UNDEF
005C0F4C  F85F 762C		ldr r7, [pc, #-1580] ; 0x1B8
005C0F50  F856 C007		ldr r12, [r6, +r7]
005C0F54  F85F 76B4		ldr r7, [pc, #-1716] ; 0x4
005C0F58  F85C 0007		ldr r0, [r12, +r7]

#974		{L:300}
(-) UDINT
#975		{L:300}
(*) DINT
005C0F5C  F8DF 72A0		ldr r7, [pc, #+672] ; 0x204
005C0F60  51F0     		str r0, [r6, +r7]

#976		{L:300}
(*) UNDEF
005C0F62  F8DF 728C		ldr r7, [pc, #+652] ; 0x10
005C0F66  59F0     		ldr r0, [r6, +r7]

#977		{L:300}
(-) UDINT
005C0F68  2200     		mov r2, #0 ; 0
005C0F6A  F8DF 7294		ldr r7, [pc, #+660] ; 0x204
005C0F6E  59F1     		ldr r1, [r6, +r7]
005C0F70  4600     		mov r0, r0
005C0F72  F8DF 429C		ldr r4, [pc, #+668] ; 0x48F5D5
005C0F76  F044 0401		orr r4, r4, #1
005C0F7A  47A0     		blx r4

#978		{L:300}
(*) DINT
005C0F7C  F04F 37FF		mov r7, #4294967295 ; 4294967295
005C0F80  42B8     		cmp r0, r7
005C0F82  BF18 2000		nemov r0, #0
005C0F86  BF08 2001		eqmov r0, #1

#979		{L:300}
(-) BOOL
005C0F8A  2800     		cmp r0, #0
005C0F8C  D014     		beq #40 ; 0x005C0FB8


#980
#981
#982
#983
#984		{L:300}
(*) UNDEF
005C0F90  F8DF 725C		ldr r7, [pc, #+604] ; 0x10
005C0F94  59F0     		ldr r0, [r6, +r7]

#985		{L:300}
(-) UDINT
005C0F96  4600     		mov r0, r0
005C0F98  F8DF 4280		ldr r4, [pc, #+640] ; 0x490A61
005C0F9C  F044 0401		orr r4, r4, #1
005C0FA0  47A0     		blx r4

#986		{L:300}
(*) INT
005C0FA2  F85F 76C4		ldr r7, [pc, #-1732] ; 0x128
005C0FA6  53F0     		strh r0, [r6, +r7]

#987
#988
#989		{L:300}
(*) INT
005C0FA8  F8DF 729C		ldr r7, [pc, #+668] ; 0x5BA3F0
005C0FAC  6838     		ldr r0, [r7]
005C0FAE  F85F 7708		ldr r7, [pc, #-1800] ; 0x8
005C0FB2  51F0     		str r0, [r6, +r7]

#990
#991
#992
#993
(-) UDINT
005C0FB4  F000 BCD1		b #2466 ; 0x005C195A


#994
#995
#996
#997
#998
#999		{L:301}
(*) UNDEF
005C0FB8  F8DF 7238		ldr r7, [pc, #+568] ; 0x130
005C0FBC  5BF0     		ldrh r0, [r6, +r7]

#1000		{L:301}
(-) UINT
#1001		{L:301}
(*) INT
005C0FBE  F8DF 7244		ldr r7, [pc, #+580] ; 0x208
005C0FC2  53F0     		strh r0, [r6, +r7]

#1002		{L:301}
(-) UNDEF
005C0FC4  6830     		ldr r0, [r6]

#1003		{L:301}
(-) @USINT
005C0FC6  F8DF 7228		ldr r7, [pc, #+552] ; 0x10
005C0FCA  59F3     		ldr r3, [r6, +r7]
005C0FCC  2201     		mov r2, #1 ; 1
005C0FCE  F8DF 7234		ldr r7, [pc, #+564] ; 0x208
005C0FD2  5FF1     		ldrsh r1, [r6, +r7]
005C0FD4  4600     		mov r0, r0
005C0FD6  F8DF 4248		ldr r4, [pc, #+584] ; 0x490B9D
005C0FDA  F044 0401		orr r4, r4, #1
005C0FDE  47A0     		blx r4

#1004		{L:301}
(*) INT
005C0FE0  F8DF 7224		ldr r7, [pc, #+548] ; 0x20A
005C0FE4  53F0     		strh r0, [r6, +r7]

#1005		{L:301}
(*) UNDEF
005C0FE6  F8DF 720C		ldr r7, [pc, #+524] ; 0x130
005C0FEA  5BF0     		ldrh r0, [r6, +r7]

#1006		{L:301}
(-) UINT
#1007		{L:301}
(*) INT
005C0FEC  F8DF 721C		ldr r7, [pc, #+540] ; 0x20C
005C0FF0  53F0     		strh r0, [r6, +r7]

#1008		{L:301}
(*) UNDEF
005C0FF2  F8DF 7214		ldr r7, [pc, #+532] ; 0x20A
005C0FF6  5FF0     		ldrsh r0, [r6, +r7]

#1009		{L:301}
(*) INT
005C0FF8  F8DF 7210		ldr r7, [pc, #+528] ; 0x20C
005C0FFC  5FF7     		ldrsh r7, [r6, +r7]
005C0FFE  42B8     		cmp r0, r7
005C1000  BF08 2000		eqmov r0, #0
005C1004  BF18 2001		nemov r0, #1

#1010		{L:301}
(-) BOOL
005C1008  2800     		cmp r0, #0
005C100A  D014     		beq #40 ; 0x005C1036


#1011
#1012
#1013
#1014
#1015		{L:301}
(*) UNDEF
005C100E  F8DF 71E0		ldr r7, [pc, #+480] ; 0x10
005C1012  59F0     		ldr r0, [r6, +r7]

#1016		{L:301}
(-) UDINT
005C1014  4600     		mov r0, r0
005C1016  F8DF 4204		ldr r4, [pc, #+516] ; 0x490A61
005C101A  F044 0401		orr r4, r4, #1
005C101E  47A0     		blx r4

#1017		{L:301}
(*) INT
005C1020  F85F 7744		ldr r7, [pc, #-1860] ; 0x128
005C1024  53F0     		strh r0, [r6, +r7]

#1018
#1019
#1020		{L:301}
(*) INT
005C1026  F8DF 7224		ldr r7, [pc, #+548] ; 0x5BA3F4
005C102A  6838     		ldr r0, [r7]
005C102C  F85F 7788		ldr r7, [pc, #-1928] ; 0x8
005C1030  51F0     		str r0, [r6, +r7]

#1021
#1022
#1023
#1024
(-) UDINT
005C1032  F000 BC92		b #2340 ; 0x005C195A


#1025
#1026
#1027
#1028
#1029		{L:302}
(*) UNDEF
005C1036  F8DF 71B8		ldr r7, [pc, #+440] ; 0x10
005C103A  59F0     		ldr r0, [r6, +r7]

#1030		{L:302}
(-) UDINT
005C103C  4600     		mov r0, r0
005C103E  F8DF 41DC		ldr r4, [pc, #+476] ; 0x490A61
005C1042  F044 0401		orr r4, r4, #1
005C1046  47A0     		blx r4

#1031		{L:302}
(*) INT
005C1048  F85F 776C		ldr r7, [pc, #-1900] ; 0x128
005C104C  53F0     		strh r0, [r6, +r7]

#1032
#1033
#1034		{L:303}
(*) UNDEF
005C104E  F85F 77AC		ldr r7, [pc, #-1964] ; 0x4
005C1052  5DF0     		ldrb r0, [r6, +r7]

#1035		{L:303}
(-) USINT
005C1054  1C40     		add r0, r0, #1

#1036		{L:303}
(*) USINT
005C1056  F85F 77B4		ldr r7, [pc, #-1972] ; 0x4
005C105A  55F0     		strb r0, [r6, +r7]

#1037
(-) USINT
005C105C  F000 BC7D		b #2298 ; 0x005C195A


#1038
#1039
#1040
#1041		{L:322}
(*) UNDEF
005C1060  F8DF 7190		ldr r7, [pc, #+400] ; 0x130
005C1064  5BF0     		ldrh r0, [r6, +r7]

#1042		{L:322}
(-) UINT
005C1066  3808     		sub r0, r0, #8

#1043		{L:322}
(*) UINT
005C1068  B082     		sub sp, sp, #8
005C106A  F8CD 0000		str r0, [sp]
005C106E  2008     		mov r0, #8 ; 8

#1044		{L:322}
(*) USINT
005C1070  2702     		mov r7, #2 ; 2
005C1072  4378     		mul r0, r0, r7

#1045		{L:322}
(*) USINT
005C1074  B082     		sub sp, sp, #8
005C1076  F8CD 0000		str r0, [sp]
005C107A  2001     		mov r0, #1 ; 1

#1046		{L:322}
(-) USINT
005C107C  1D80     		add r0, r0, #6

#1047		{L:322}
(*) USINT
005C107E  B082     		sub sp, sp, #8
005C1080  F8CD 0000		str r0, [sp]
005C1084  2001     		mov r0, #1 ; 1

#1048		{L:322}
(-) USINT
005C1086  1D80     		add r0, r0, #6

#1049		{L:322}
(*) USINT
005C1088  B082     		sub sp, sp, #8
005C108A  F8CD 0000		str r0, [sp]
005C108E  2001     		mov r0, #1 ; 1

#1050		{L:322}
(-) USINT
005C1090  1D80     		add r0, r0, #6

#1051		{L:322}
(*) USINT
005C1092  B082     		sub sp, sp, #8
005C1094  F8CD 0000		str r0, [sp]
005C1098  2001     		mov r0, #1 ; 1

#1052		{L:322}
(-) USINT
005C109A  300E     		add r0, r0, #14

#1053		{L:322}
(-) USINT
005C109C  3009     		add r0, r0, #9

#1054		{L:322}
(*) USINT
005C109E  4607     		mov r7, r0
005C10A0  F8DD 0000		ldr r0, [sp]
005C10A4  B002     		add sp, sp, #8
005C10A6  19C0     		add r0, r0, r7

#1055		{L:322}
(*) USINT
005C10A8  4607     		mov r7, r0
005C10AA  F8DD 0000		ldr r0, [sp]
005C10AE  B002     		add sp, sp, #8
005C10B0  19C0     		add r0, r0, r7

#1056		{L:322}
(*) USINT
005C10B2  4607     		mov r7, r0
005C10B4  F8DD 0000		ldr r0, [sp]
005C10B8  B002     		add sp, sp, #8
005C10BA  19C0     		add r0, r0, r7

#1057		{L:322}
(*) USINT
005C10BC  4607     		mov r7, r0
005C10BE  F8DD 0000		ldr r0, [sp]
005C10C2  B002     		add sp, sp, #8
005C10C4  19C0     		add r0, r0, r7

#1058		{L:322}
(*) USINT
005C10C6  4607     		mov r7, r0
005C10C8  F8DD 0000		ldr r0, [sp]
005C10CC  B002     		add sp, sp, #8
005C10CE  19C0     		add r0, r0, r7

#1059		{L:322}
(-) UINT
005C10D0  1C40     		add r0, r0, #1

#1060		{L:322}
(*) UINT
005C10D2  F8DF 7128		ldr r7, [pc, #+296] ; 0x138
005C10D6  51F0     		str r0, [r6, +r7]

#1061
#1062
#1063
#1064		{L:323}
(*) UNDEF
005C10D8  F8DF 7120		ldr r7, [pc, #+288] ; 0x138
005C10DC  59F0     		ldr r0, [r6, +r7]

#1065		{L:323}
(*) UDINT
005C10DE  F85F 77AC		ldr r7, [pc, #-1964] ; 0x1C8
005C10E2  59F7     		ldr r7, [r6, +r7]
005C10E4  42B8     		cmp r0, r7
005C10E6  BF98 2000		lsmov r0, #0
005C10EA  BF88 2001		himov r0, #1

#1066		{L:323}
(-) BOOL
005C10EE  2800     		cmp r0, #0
005C10F0  D01C     		beq #56 ; 0x005C112C


#1067
#1068
#1069
#1070
#1071		{L:324}
(*) UNDEF
005C10F4  F85F 77D4		ldr r7, [pc, #-2004] ; 0x1B8
005C10F8  F856 C007		ldr r12, [r6, +r7]
005C10FC  F85F 785C		ldr r7, [pc, #-2140] ; 0x4
005C1100  F85C 0007		ldr r0, [r12, +r7]

#1072		{L:324}
(*) UDINT
005C1104  F8DF 70EC		ldr r7, [pc, #+236] ; 0x130
005C1108  5BF7     		ldrh r7, [r6, +r7]
005C110A  19C0     		add r0, r0, r7

#1073		{L:324}
(*) UDINT
005C110C  F85F 77EC		ldr r7, [pc, #-2028] ; 0x1B8
005C1110  F856 C007		ldr r12, [r6, +r7]
005C1114  F85F 7874		ldr r7, [pc, #-2164] ; 0x4
005C1118  F84C 0007		str r0, [r12, +r7]

#1074
#1075
#1076		{L:325}
(*) UDINT
005C111C  F8DF 7130		ldr r7, [pc, #+304] ; 0x5BA3F8
005C1120  6838     		ldr r0, [r7]
005C1122  F85F 787C		ldr r7, [pc, #-2172] ; 0x8
005C1126  51F0     		str r0, [r6, +r7]

#1077
#1078
#1079
#1080
(-) UDINT
005C1128  F000 BC17		b #2094 ; 0x005C195A


#1081
#1082
#1083
#1084
#1085
#1086		{L:331}
(*) UDINT
005C112C  4630     		mov r0, r6
005C112E  F85F 7848		ldr r7, [pc, #-2120] ; 0x144
005C1132  19C0     		add r0, r0, r7

#1087		{L:331}
(*) DWORD
005C1134  F85F 77D4		ldr r7, [pc, #-2004] ; 0x1F0
005C1138  51F0     		str r0, [r6, +r7]

#1088		{L:331}
(*) UNDEF
005C113A  F8DF 70C0		ldr r7, [pc, #+192] ; 0x138
005C113E  59F0     		ldr r0, [r6, +r7]

#1089		{L:331}
(-) UDINT
005C1140  F85F 77E0		ldr r7, [pc, #-2016] ; 0x1F0
005C1144  59F1     		ldr r1, [r6, +r7]
005C1146  4600     		mov r0, r0
005C1148  F85F 47B8		ldr r4, [pc, #-1976] ; 0x4905B1
005C114C  F044 0401		orr r4, r4, #1
005C1150  47A0     		blx r4

#1090		{L:331}
(*) BOOL
005C1152  2800     		cmp r0, #0
005C1154  BF08 2001		eqmov r0, #1
005C1158  BF18 2000		nemov r0, #0

#1091		{L:331}
(-) BOOL
005C115C  2800     		cmp r0, #0
005C115E  D002     		beq #4 ; 0x005C1166


#1092
#1093
#1094
#1095
#1096
#1097
(-) BOOL
005C1162  E3FA     		b #2036 ; 0x005C195A


#1098
#1099
#1100
#1101
#1102		{L:332}
(*) BOOL
005C1166  2000     		mov r0, #0 ; 0
005C1168  F85F 7884		ldr r7, [pc, #-2180] ; 0x144
005C116C  F856 C007		ldr r12, [r6, +r7]
005C1170  F88C 0000		strb r0, [r12]

#1103
#1104
#1105		{L:336}
(*) USINT
005C1174  4630     		mov r0, r6
005C1176  F8DF 7080		ldr r7, [pc, #+128] ; 0x132
005C117A  19C0     		add r0, r0, r7

#1106		{L:336}
(*) DWORD
005C117C  F85F 781C		ldr r7, [pc, #-2076] ; 0x1F0
005C1180  51F0     		str r0, [r6, +r7]

#1107		{L:336}
(*) UNDEF
005C1182  F85F 789C		ldr r7, [pc, #-2204] ; 0x144
005C1186  59F0     		ldr r0, [r6, +r7]

#1108		{L:336}
(-) @USINT
005C1188  B082     		sub sp, sp, #8
005C118A  F85F 7828		ldr r7, [pc, #-2088] ; 0x1F0
005C118E  59F7     		ldr r7, [r6, +r7]
005C1190  F8CD 7000		str r7, [sp]
005C1194  2320     		mov r3, #32 ; 32
005C1196  F8DF 70BC		ldr r7, [pc, #+188] ; 0x5BA3FC
005C119A  463A     		mov r2, r7
005C119C  F8DF 705C		ldr r7, [pc, #+92] ; 0x138
005C11A0  59F1     		ldr r1, [r6, +r7]
005C11A2  4600     		mov r0, r0
005C11A4  F8DF 406C		ldr r4, [pc, #+108] ; 0x48FB19
005C11A8  F044 0401		orr r4, r4, #1
005C11AC  47A0     		blx r4
005C11AE  B002     		add sp, sp, #8

#1109		{L:336}
(*) INT
005C11B0  F85F 78D4		ldr r7, [pc, #-2260] ; 0x128
005C11B4  53F0     		strh r0, [r6, +r7]

#1110
#1111
#1112		{L:337}
(*) INT
005C11B6  F8DF 00A4		ldr r0, [pc, #+164] ; 0x20412FB4

#1113		{L:337}
(*) DWORD
005C11BA  F85F 7858		ldr r7, [pc, #-2136] ; 0x1F0
005C11BE  51F0     		str r0, [r6, +r7]

#1114		{L:337}
(*) UNDEF
005C11C0  F85F 78DC		ldr r7, [pc, #-2268] ; 0x144
005C11C4  59F0     		ldr r0, [r6, +r7]

#1115		{L:337}
(-) @USINT
005C11C6  B082     		sub sp, sp, #8
005C11C8  F85F 7868		ldr r7, [pc, #-2152] ; 0x1F0
005C11CC  59F7     		ldr r7, [r6, +r7]
005C11CE  F8CD 7000		str r7, [sp]
005C11D2  232A     		mov r3, #42 ; 42
005C11D4  F8DF 7080		ldr r7, [pc, #+128] ; 0x5BA404
005C11D8  463A     		mov r2, r7
005C11DA  F8DF 7020		ldr r7, [pc, #+32] ; 0x138
005C11DE  59F1     		ldr r1, [r6, +r7]
005C11E0  4600     		mov r0, r0
005C11E2  F8DF 4030		ldr r4, [pc, #+48] ; 0x48FB19
005C11E6  F044 0401		orr r4, r4, #1
005C11EA  47A0     		blx r4
005C11EC  B002     		add sp, sp, #8

005C11EE  E037     		b #110

005C11F0  00000010		; 0x00000010
005C11F4  00000130		; 0x00000130
005C11F8  00000132		; 0x00000132
005C11FC  00000138		; 0x00000138
005C1200  00000204		; 0x00000204
005C1204  00000208		; 0x00000208
005C1208  0000020A		; 0x0000020A
005C120C  0000020C		; 0x0000020C
005C1210  0048F5D5		; 0x0048F5D5
005C1214  0048FB19		; 0x0048FB19
005C1218  004909FD		; 0x004909FD
005C121C  00490A61		; 0x00490A61
005C1220  00490B9D		; 0x00490B9D
005C1224  005BA3CC		; 0x005BA3CC
005C1228  005BA3D0		; 0x005BA3D0
005C122C  005BA3D4		; 0x005BA3D4
005C1230  005BA3D8		; 0x005BA3D8
005C1234  005BA3DC		; 0x005BA3DC
005C1238  005BA3E0		; 0x005BA3E0
005C123C  005BA3E4		; 0x005BA3E4
005C1240  005BA3E8		; 0x005BA3E8
005C1244  005BA3EC		; 0x005BA3EC
005C1248  005BA3F0		; 0x005BA3F0
005C124C  005BA3F4		; 0x005BA3F4
005C1250  005BA3F8		; 0x005BA3F8
005C1254  005BA3FC		; 0x005BA3FC
005C1258  005BA404		; 0x005BA404
005C125C  20412FB4		; 0x20412FB4

#1116		{L:337}
(*) INT
005C1260  F85F 7984		ldr r7, [pc, #-2436] ; 0x128
005C1264  53F0     		strh r0, [r6, +r7]

#1117
#1118
#1119		{L:338}
(*) INT
005C1266  4630     		mov r0, r6
005C1268  F8DF 7714		ldr r7, [pc, #+1812] ; 0x18C
005C126C  19C0     		add r0, r0, r7

#1120		{L:338}
(*) DWORD
005C126E  F85F 790C		ldr r7, [pc, #-2316] ; 0x1F0
005C1272  51F0     		str r0, [r6, +r7]

#1121		{L:338}
(*) UNDEF
005C1274  F85F 7990		ldr r7, [pc, #-2448] ; 0x144
005C1278  59F0     		ldr r0, [r6, +r7]

#1122		{L:338}
(-) @USINT
005C127A  B082     		sub sp, sp, #8
005C127C  F85F 791C		ldr r7, [pc, #-2332] ; 0x1F0
005C1280  59F7     		ldr r7, [r6, +r7]
005C1282  F8CD 7000		str r7, [sp]
005C1286  2316     		mov r3, #22 ; 22
005C1288  F8DF 7720		ldr r7, [pc, #+1824] ; 0x5BA410
005C128C  463A     		mov r2, r7
005C128E  F85F 7094		ldr r7, [pc, #-148] ; 0x138
005C1292  59F1     		ldr r1, [r6, +r7]
005C1294  4600     		mov r0, r0
005C1296  F85F 4084		ldr r4, [pc, #-132] ; 0x48FB19
005C129A  F044 0401		orr r4, r4, #1
005C129E  47A0     		blx r4
005C12A0  B002     		add sp, sp, #8

#1123		{L:338}
(*) INT
005C12A2  F85F 79C4		ldr r7, [pc, #-2500] ; 0x128
005C12A6  53F0     		strh r0, [r6, +r7]

#1124
#1125
#1126		{L:344}
(*) INT
005C12A8  F85F 79C4		ldr r7, [pc, #-2500] ; 0x144
005C12AC  59F0     		ldr r0, [r6, +r7]
005C12AE  F8DF 76C0		ldr r7, [pc, #+1728] ; 0x13C
005C12B2  51F0     		str r0, [r6, +r7]

#1127
#1128
#1129		{L:345}
(*) @USINT
005C12B4  6830     		ldr r0, [r6]
005C12B6  F8DF 76BC		ldr r7, [pc, #+1724] ; 0x140
005C12BA  51F0     		str r0, [r6, +r7]

#1130
#1131
#1132		{L:346}
(-) UNDEF
005C12BC  2000     		mov r0, #0 ; 0

#1133		{L:346}
(*) USINT
005C12BE  F85F 79DC		ldr r7, [pc, #-2524] ; 0x12C
005C12C2  51F0     		str r0, [r6, +r7]

#1134
#1135
#1136		{L:346}
(*) UNDEF
005C12C4  F85F 79E4		ldr r7, [pc, #-2532] ; 0x12C
005C12C8  59F0     		ldr r0, [r6, +r7]

#1137		{L:346}
(*) UDINT
005C12CA  F85F 70D0		ldr r7, [pc, #-208] ; 0x138
005C12CE  59F7     		ldr r7, [r6, +r7]
005C12D0  42B8     		cmp r0, r7
005C12D2  BF98 2000		lsmov r0, #0
005C12D6  BF88 2001		himov r0, #1

#1138		{L:346}
(-) BOOL
005C12DA  2800     		cmp r0, #0
005C12DC  D11F     		bne #62 ; 0x005C131E


#1139
#1140
#1141
#1142
#1143
#1144		{L:346}
(*) UNDEF
005C12E0  F8DF 768C		ldr r7, [pc, #+1676] ; 0x13C
005C12E4  F856 C007		ldr r12, [r6, +r7]
005C12E8  F89C 0000		ldrb r0, [r12]

#1145		{L:346}
(*) USINT
005C12EC  2800     		cmp r0, #0
005C12EE  BF18 2000		nemov r0, #0
005C12F2  BF08 2001		eqmov r0, #1

#1146		{L:346}
(-) BOOL
005C12F6  2800     		cmp r0, #0
005C12F8  D002     		beq #4 ; 0x005C1300


#1147
#1148
#1149
#1150
#1151
(-) BOOL
005C12FC  E00F     		b #30 ; 0x005C131E


#1152
#1153
#1154
#1155
#1156
#1157		{L:346}
(*) UNDEF
005C1300  F8DF 766C		ldr r7, [pc, #+1644] ; 0x13C
005C1304  59F0     		ldr r0, [r6, +r7]

#1158		{L:346}
(-) @USINT
005C1306  1C40     		add r0, r0, #1

#1159		{L:346}
(*) @USINT
005C1308  F8DF 7664		ldr r7, [pc, #+1636] ; 0x13C
005C130C  51F0     		str r0, [r6, +r7]

#1160
#1161
#1162		{L:1}
(*) UNDEF
005C130E  F85F 7A2C		ldr r7, [pc, #-2604] ; 0x12C
005C1312  59F0     		ldr r0, [r6, +r7]

#1163		{L:1}
(-) UDINT
005C1314  1C40     		add r0, r0, #1

#1164		{L:1}
(*) UDINT
005C1316  F85F 7A34		ldr r7, [pc, #-2612] ; 0x12C
005C131A  51F0     		str r0, [r6, +r7]

#1165
(-) UDINT
005C131C  E7D2     		b #-92 ; 0x005C12C4

#1166
#1167
#1168
#1169
#1170
#1171
#1172		{L:347}
(-) UNDEF
005C131E  2000     		mov r0, #0 ; 0

#1173		{L:347}
(*) USINT
005C1320  F85F 7A40		ldr r7, [pc, #-2624] ; 0x12C
005C1324  51F0     		str r0, [r6, +r7]

#1174
#1175
#1176		{L:347}
(*) UNDEF
005C1326  F85F 7A44		ldr r7, [pc, #-2628] ; 0x12C
005C132A  59F0     		ldr r0, [r6, +r7]

#1177		{L:347}
(*) UDINT
005C132C  B082     		sub sp, sp, #8
005C132E  F8CD 0000		str r0, [sp]
005C1332  2008     		mov r0, #8 ; 8

#1178		{L:347}
(-) USINT
005C1334  1E40     		sub r0, r0, #1

#1179		{L:347}
(*) USINT
005C1336  4607     		mov r7, r0
005C1338  F8DD 0000		ldr r0, [sp]
005C133C  B002     		add sp, sp, #8
005C133E  42B8     		cmp r0, r7
005C1340  BF98 2000		lsmov r0, #0
005C1344  BF88 2001		himov r0, #1

#1180		{L:347}
(-) BOOL
005C1348  2800     		cmp r0, #0
005C134A  D156     		bne #172 ; 0x005C13FA


#1181
#1182
#1183
#1184
#1185		{L:348}
(*) UNDEF
005C134E  F8DF 7624		ldr r7, [pc, #+1572] ; 0x140
005C1352  F856 C007		ldr r12, [r6, +r7]
005C1356  F89C 0000		ldrb r0, [r12]

#1186		{L:348}
(*) USINT
005C135A  B082     		sub sp, sp, #8
005C135C  F8CD 1000		str r1, [sp]
005C1360  2110     		mov r1, #16 ; 16
005C1362  FBB0 F0F1		udiv r0, r0, r1
005C1366  F8DD 1000		ldr r1, [sp]
005C136A  B002     		add sp, sp, #8

#1187		{L:348}
(*) USINT
005C136C  F8DF 7620		ldr r7, [pc, #+1568] ; 0x20E
005C1370  55F0     		strb r0, [r6, +r7]

#1188		{L:348}
(*) USINT
005C1372  F8DF 761C		ldr r7, [pc, #+1564] ; 0x20E
005C1376  5DF5     		ldrb r5, [r6, +r7]
005C1378  F8DF 7628		ldr r7, [pc, #+1576] ; 0x5BA080
005C137C  EB07 0705		add r7, r7, r5, lsl #0
005C1380  7838     		ldrb r0, [r7]
005C1382  F8DF 75EC		ldr r7, [pc, #+1516] ; 0x13C
005C1386  F856 C007		ldr r12, [r6, +r7]
005C138A  F88C 0000		strb r0, [r12]

#1189
#1190
#1191		{L:348}
(*) UNDEF
005C138E  F8DF 75E0		ldr r7, [pc, #+1504] ; 0x13C
005C1392  59F0     		ldr r0, [r6, +r7]

#1192		{L:348}
(-) @USINT
005C1394  1C40     		add r0, r0, #1

#1193		{L:348}
(*) @USINT
005C1396  F8DF 75D8		ldr r7, [pc, #+1496] ; 0x13C
005C139A  51F0     		str r0, [r6, +r7]

#1194
#1195
#1196		{L:349}
(*) UNDEF
005C139C  F8DF 75D4		ldr r7, [pc, #+1492] ; 0x140
005C13A0  F856 C007		ldr r12, [r6, +r7]
005C13A4  F89C 0000		ldrb r0, [r12]

#1197		{L:349}
(*) USINT
005C13A8  270F     		mov r7, #15 ; 15
005C13AA  4038     		and r0, r0, r7

#1198		{L:349}
(*) USINT
005C13AC  F8DF 75E0		ldr r7, [pc, #+1504] ; 0x20E
005C13B0  55F0     		strb r0, [r6, +r7]

#1199		{L:349}
(*) USINT
005C13B2  F8DF 75DC		ldr r7, [pc, #+1500] ; 0x20E
005C13B6  5DF5     		ldrb r5, [r6, +r7]
005C13B8  F8DF 75E8		ldr r7, [pc, #+1512] ; 0x5BA080
005C13BC  EB07 0705		add r7, r7, r5, lsl #0
005C13C0  7838     		ldrb r0, [r7]
005C13C2  F8DF 75AC		ldr r7, [pc, #+1452] ; 0x13C
005C13C6  F856 C007		ldr r12, [r6, +r7]
005C13CA  F88C 0000		strb r0, [r12]

#1200
#1201
#1202		{L:349}
(*) UNDEF
005C13CE  F8DF 75A0		ldr r7, [pc, #+1440] ; 0x13C
005C13D2  59F0     		ldr r0, [r6, +r7]

#1203		{L:349}
(-) @USINT
005C13D4  1C40     		add r0, r0, #1

#1204		{L:349}
(*) @USINT
005C13D6  F8DF 7598		ldr r7, [pc, #+1432] ; 0x13C
005C13DA  51F0     		str r0, [r6, +r7]

#1205
#1206
#1207		{L:350}
(*) UNDEF
005C13DC  F8DF 7594		ldr r7, [pc, #+1428] ; 0x140
005C13E0  59F0     		ldr r0, [r6, +r7]

#1208		{L:350}
(-) @USINT
005C13E2  1C40     		add r0, r0, #1

#1209		{L:350}
(*) @USINT
005C13E4  F8DF 758C		ldr r7, [pc, #+1420] ; 0x140
005C13E8  51F0     		str r0, [r6, +r7]

#1210
#1211
#1212		{L:1}
(*) UNDEF
005C13EA  F85F 7B08		ldr r7, [pc, #-2824] ; 0x12C
005C13EE  59F0     		ldr r0, [r6, +r7]

#1213		{L:1}
(-) UDINT
005C13F0  1C40     		add r0, r0, #1

#1214		{L:1}
(*) UDINT
005C13F2  F85F 7B10		ldr r7, [pc, #-2832] ; 0x12C
005C13F6  51F0     		str r0, [r6, +r7]

#1215
(-) UDINT
005C13F8  E795     		b #-214 ; 0x005C1326

#1216
#1217
#1218
#1219
#1220
#1221
#1222		{L:355}
(-) UNDEF
005C13FA  2000     		mov r0, #0 ; 0

#1223		{L:355}
(*) USINT
005C13FC  F85F 7B1C		ldr r7, [pc, #-2844] ; 0x12C
005C1400  51F0     		str r0, [r6, +r7]

#1224
#1225
#1226		{L:355}
(*) UNDEF
005C1402  F85F 7B20		ldr r7, [pc, #-2848] ; 0x12C
005C1406  59F0     		ldr r0, [r6, +r7]

#1227		{L:355}
(*) UDINT
005C1408  B082     		sub sp, sp, #8
005C140A  F8CD 0000		str r0, [sp]
005C140E  F85F 721C		ldr r7, [pc, #-540] ; 0x130
005C1412  5BF0     		ldrh r0, [r6, +r7]

#1228		{L:355}
(-) UINT
005C1414  3808     		sub r0, r0, #8

#1229		{L:355}
(-) UINT
005C1416  1E40     		sub r0, r0, #1

#1230		{L:355}
(*) UINT
005C1418  4607     		mov r7, r0
005C141A  F8DD 0000		ldr r0, [sp]
005C141E  B002     		add sp, sp, #8
005C1420  42B8     		cmp r0, r7
005C1422  BF98 2000		lsmov r0, #0
005C1426  BF88 2001		himov r0, #1

#1231		{L:355}
(-) BOOL
005C142A  2800     		cmp r0, #0
005C142C  D122     		bne #68 ; 0x005C1474


#1232
#1233
#1234
#1235
#1236		{L:355}
(*) BOOL
005C1430  F8DF 7540		ldr r7, [pc, #+1344] ; 0x140
005C1434  F856 C007		ldr r12, [r6, +r7]
005C1438  F89C 0000		ldrb r0, [r12]
005C143C  F8DF 7530		ldr r7, [pc, #+1328] ; 0x13C
005C1440  F856 C007		ldr r12, [r6, +r7]
005C1444  F88C 0000		strb r0, [r12]

#1237
#1238
#1239		{L:355}
(*) UNDEF
005C1448  F8DF 7524		ldr r7, [pc, #+1316] ; 0x13C
005C144C  59F0     		ldr r0, [r6, +r7]

#1240		{L:355}
(-) @USINT
005C144E  1C40     		add r0, r0, #1

#1241		{L:355}
(*) @USINT
005C1450  F8DF 751C		ldr r7, [pc, #+1308] ; 0x13C
005C1454  51F0     		str r0, [r6, +r7]

#1242
#1243
#1244		{L:355}
(*) UNDEF
005C1456  F8DF 751C		ldr r7, [pc, #+1308] ; 0x140
005C145A  59F0     		ldr r0, [r6, +r7]

#1245		{L:355}
(-) @USINT
005C145C  1C40     		add r0, r0, #1

#1246		{L:355}
(*) @USINT
005C145E  F8DF 7514		ldr r7, [pc, #+1300] ; 0x140
005C1462  51F0     		str r0, [r6, +r7]

#1247
#1248
#1249		{L:1}
(*) UNDEF
005C1464  F85F 7B84		ldr r7, [pc, #-2948] ; 0x12C
005C1468  59F0     		ldr r0, [r6, +r7]

#1250		{L:1}
(-) UDINT
005C146A  1C40     		add r0, r0, #1

#1251		{L:1}
(*) UDINT
005C146C  F85F 7B8C		ldr r7, [pc, #-2956] ; 0x12C
005C1470  51F0     		str r0, [r6, +r7]

#1252
(-) UDINT
005C1472  E7C6     		b #-116 ; 0x005C1402

#1253
#1254
#1255
#1256
#1257
#1258
#1259		{L:356}
(*) UDINT
005C1474  2000     		mov r0, #0 ; 0
005C1476  F8DF 74F8		ldr r7, [pc, #+1272] ; 0x13C
005C147A  F856 C007		ldr r12, [r6, +r7]
005C147E  F88C 0000		strb r0, [r12]

#1260
#1261
#1262		{L:360}
(-) USINT
005C1482  4630     		mov r0, r6

#1263		{L:360}
(-) DWORD
005C1484  4600     		mov r0, r0
005C1486  F85F 4AF0		ldr r4, [pc, #-2800] ; 0x4905F5
005C148A  F044 0401		orr r4, r4, #1
005C148E  47A0     		blx r4

#1264		{L:360}
(*) BOOL
005C1490  F85F 7BB4		ldr r7, [pc, #-2996] ; 0x128
005C1494  53F0     		strh r0, [r6, +r7]

#1265
#1266
#1267		{L:361}
(*) BOOL
005C1496  20F0     		mov r0, #240 ; 240
005C1498  F85F 7BF8		ldr r7, [pc, #-3064] ; 0x4
005C149C  55F0     		strb r0, [r6, +r7]

#1268
(-) USINT
005C149E  E25C     		b #1208 ; 0x005C195A


#1269
#1270
#1271
#1272		{L:374}
(-) UNDEF
005C14A2  200D     		mov r0, #13 ; 13

#1273		{L:374}
(-) USINT
005C14A4  3017     		add r0, r0, #23

#1274		{L:374}
(-) USINT
005C14A6  1C40     		add r0, r0, #1

#1275		{L:374}
(*) USINT
005C14A8  F85F 72B0		ldr r7, [pc, #-688] ; 0x138
005C14AC  51F0     		str r0, [r6, +r7]

#1276
#1277
#1278
#1279		{L:375}
(*) UNDEF
005C14AE  F85F 72B4		ldr r7, [pc, #-692] ; 0x138
005C14B2  59F0     		ldr r0, [r6, +r7]

#1280		{L:375}
(*) UDINT
005C14B4  F85F 7B84		ldr r7, [pc, #-2948] ; 0x1C8
005C14B8  59F7     		ldr r7, [r6, +r7]
005C14BA  42B8     		cmp r0, r7
005C14BC  BF98 2000		lsmov r0, #0
005C14C0  BF88 2001		himov r0, #1

#1281		{L:375}
(-) BOOL
005C14C4  2800     		cmp r0, #0
005C14C6  D008     		beq #16 ; 0x005C14DA


#1282
#1283
#1284
#1285
#1286		{L:375}
(*) BOOL
005C14CA  F8DF 74E4		ldr r7, [pc, #+1252] ; 0x5BA42C
005C14CE  6838     		ldr r0, [r7]
005C14D0  F85F 7C2C		ldr r7, [pc, #-3116] ; 0x8
005C14D4  51F0     		str r0, [r6, +r7]

#1287
#1288
#1289
#1290
(-) UDINT
005C14D6  E240     		b #1152 ; 0x005C195A


#1291
#1292
#1293
#1294
#1295
#1296		{L:379}
(*) UDINT
005C14DA  4630     		mov r0, r6
005C14DC  F85F 7BF8		ldr r7, [pc, #-3064] ; 0x144
005C14E0  19C0     		add r0, r0, r7

#1297		{L:379}
(*) DWORD
005C14E2  F85F 7B80		ldr r7, [pc, #-2944] ; 0x1F0
005C14E6  51F0     		str r0, [r6, +r7]

#1298		{L:379}
(*) UNDEF
005C14E8  F85F 72F0		ldr r7, [pc, #-752] ; 0x138
005C14EC  59F0     		ldr r0, [r6, +r7]

#1299		{L:379}
(-) UDINT
005C14EE  F85F 7B8C		ldr r7, [pc, #-2956] ; 0x1F0
005C14F2  59F1     		ldr r1, [r6, +r7]
005C14F4  4600     		mov r0, r0
005C14F6  F85F 4B64		ldr r4, [pc, #-2916] ; 0x4905B1
005C14FA  F044 0401		orr r4, r4, #1
005C14FE  47A0     		blx r4

#1300		{L:379}
(*) BOOL
005C1500  2800     		cmp r0, #0
005C1502  BF08 2001		eqmov r0, #1
005C1506  BF18 2000		nemov r0, #0

#1301		{L:379}
(-) BOOL
005C150A  2800     		cmp r0, #0
005C150C  D002     		beq #4 ; 0x005C1514


#1302
#1303
#1304
#1305
#1306
#1307
(-) BOOL
005C1510  E223     		b #1094 ; 0x005C195A


#1308
#1309
#1310
#1311
#1312		{L:380}
(*) BOOL
005C1514  2000     		mov r0, #0 ; 0
005C1516  F85F 7C30		ldr r7, [pc, #-3120] ; 0x144
005C151A  F856 C007		ldr r12, [r6, +r7]
005C151E  F88C 0000		strb r0, [r12]

#1313
#1314
#1315		{L:384}
(*) USINT
005C1522  4630     		mov r0, r6
005C1524  F85F 7330		ldr r7, [pc, #-816] ; 0x132
005C1528  19C0     		add r0, r0, r7

#1316		{L:384}
(*) DWORD
005C152A  F85F 7BC8		ldr r7, [pc, #-3016] ; 0x1F0
005C152E  51F0     		str r0, [r6, +r7]

#1317		{L:384}
(*) UNDEF
005C1530  F85F 7C4C		ldr r7, [pc, #-3148] ; 0x144
005C1534  59F0     		ldr r0, [r6, +r7]

#1318		{L:384}
(-) @USINT
005C1536  B082     		sub sp, sp, #8
005C1538  F85F 7BD8		ldr r7, [pc, #-3032] ; 0x1F0
005C153C  59F7     		ldr r7, [r6, +r7]
005C153E  F8CD 7000		str r7, [sp]
005C1542  2320     		mov r3, #32 ; 32
005C1544  F85F 72F4		ldr r7, [pc, #-756] ; 0x5BA3FC
005C1548  463A     		mov r2, r7
005C154A  F85F 7350		ldr r7, [pc, #-848] ; 0x138
005C154E  59F1     		ldr r1, [r6, +r7]
005C1550  4600     		mov r0, r0
005C1552  F85F 4340		ldr r4, [pc, #-832] ; 0x48FB19
005C1556  F044 0401		orr r4, r4, #1
005C155A  47A0     		blx r4
005C155C  B002     		add sp, sp, #8

#1319		{L:384}
(*) INT
005C155E  F85F 7C80		ldr r7, [pc, #-3200] ; 0x128
005C1562  53F0     		strh r0, [r6, +r7]

#1320
#1321
#1322		{L:385}
(*) INT
005C1564  F85F 030C		ldr r0, [pc, #-780] ; 0x20412FB4

#1323		{L:385}
(*) DWORD
005C1568  F85F 7C08		ldr r7, [pc, #-3080] ; 0x1F0
005C156C  51F0     		str r0, [r6, +r7]

#1324		{L:385}
(*) UNDEF
005C156E  F85F 7C88		ldr r7, [pc, #-3208] ; 0x144
005C1572  59F0     		ldr r0, [r6, +r7]

#1325		{L:385}
(-) @USINT
005C1574  B082     		sub sp, sp, #8
005C1576  F85F 7C14		ldr r7, [pc, #-3092] ; 0x1F0
005C157A  59F7     		ldr r7, [r6, +r7]
005C157C  F8CD 7000		str r7, [sp]
005C1580  232A     		mov r3, #42 ; 42
005C1582  F85F 732C		ldr r7, [pc, #-812] ; 0x5BA404
005C1586  463A     		mov r2, r7
005C1588  F85F 7390		ldr r7, [pc, #-912] ; 0x138
005C158C  59F1     		ldr r1, [r6, +r7]
005C158E  4600     		mov r0, r0
005C1590  F85F 4380		ldr r4, [pc, #-896] ; 0x48FB19
005C1594  F044 0401		orr r4, r4, #1
005C1598  47A0     		blx r4
005C159A  B002     		add sp, sp, #8

#1326		{L:385}
(*) INT
005C159C  F85F 7CC0		ldr r7, [pc, #-3264] ; 0x128
005C15A0  53F0     		strh r0, [r6, +r7]

#1327
#1328
#1329		{L:386}
(*) INT
005C15A2  4630     		mov r0, r6
005C15A4  F8DF 73D8		ldr r7, [pc, #+984] ; 0x18C
005C15A8  19C0     		add r0, r0, r7

#1330		{L:386}
(*) DWORD
005C15AA  F85F 7C48		ldr r7, [pc, #-3144] ; 0x1F0
005C15AE  51F0     		str r0, [r6, +r7]

#1331		{L:386}
(*) UNDEF
005C15B0  F85F 7CCC		ldr r7, [pc, #-3276] ; 0x144
005C15B4  59F0     		ldr r0, [r6, +r7]

#1332		{L:386}
(-) @USINT
005C15B6  B082     		sub sp, sp, #8
005C15B8  F85F 7C58		ldr r7, [pc, #-3160] ; 0x1F0
005C15BC  59F7     		ldr r7, [r6, +r7]
005C15BE  F8CD 7000		str r7, [sp]
005C15C2  2316     		mov r3, #22 ; 22
005C15C4  F8DF 73EC		ldr r7, [pc, #+1004] ; 0x5BA430
005C15C8  463A     		mov r2, r7
005C15CA  F85F 73D0		ldr r7, [pc, #-976] ; 0x138
005C15CE  59F1     		ldr r1, [r6, +r7]
005C15D0  4600     		mov r0, r0
005C15D2  F85F 43C0		ldr r4, [pc, #-960] ; 0x48FB19
005C15D6  F044 0401		orr r4, r4, #1
005C15DA  47A0     		blx r4
005C15DC  B002     		add sp, sp, #8

#1333		{L:386}
(*) INT
005C15DE  F85F 7D00		ldr r7, [pc, #-3328] ; 0x128
005C15E2  53F0     		strh r0, [r6, +r7]

#1334
#1335
#1336		{L:387}
(*) INT
005C15E4  20FA     		mov r0, #250 ; 250
005C15E6  F85F 7D44		ldr r7, [pc, #-3396] ; 0x4
005C15EA  55F0     		strb r0, [r6, +r7]

#1337
(-) USINT
005C15EC  E1B5     		b #874 ; 0x005C195A


#1338
#1339
#1340
#1341
#1342		{L:395}
(*) USINT
005C15F0  4630     		mov r0, r6
005C15F2  F85F 7CA0		ldr r7, [pc, #-3232] ; 0x1E0
005C15F6  19C0     		add r0, r0, r7

#1343		{L:395}
(*) DWORD
005C15F8  F85F 7C98		ldr r7, [pc, #-3224] ; 0x1F0
005C15FC  51F0     		str r0, [r6, +r7]

#1344		{L:395}
(*) UNDEF
005C15FE  F85F 7CCC		ldr r7, [pc, #-3276] ; 0x1C8
005C1602  59F0     		ldr r0, [r6, +r7]

#1345		{L:395}
(-) UDINT
005C1604  F85F 7CA4		ldr r7, [pc, #-3236] ; 0x1F0
005C1608  59F1     		ldr r1, [r6, +r7]
005C160A  4600     		mov r0, r0
005C160C  F85F 4C7C		ldr r4, [pc, #-3196] ; 0x4905B1
005C1610  F044 0401		orr r4, r4, #1
005C1614  47A0     		blx r4

#1346		{L:395}
(*) BOOL
005C1616  2800     		cmp r0, #0
005C1618  BF08 2001		eqmov r0, #1
005C161C  BF18 2000		nemov r0, #0

#1347		{L:395}
(-) BOOL
005C1620  2800     		cmp r0, #0
005C1622  D002     		beq #4 ; 0x005C162A


#1348
#1349
#1350
#1351
#1352
#1353
(-) BOOL
005C1626  E198     		b #816 ; 0x005C195A


#1354
#1355
#1356
#1357
#1358		{L:396}
(*) UNDEF
005C162A  F85F 7D88		ldr r7, [pc, #-3464] ; 0x4
005C162E  5DF0     		ldrb r0, [r6, +r7]

#1359		{L:396}
(-) USINT
005C1630  1C40     		add r0, r0, #1

#1360		{L:396}
(*) USINT
005C1632  F85F 7D90		ldr r7, [pc, #-3472] ; 0x4
005C1636  55F0     		strb r0, [r6, +r7]

#1361
(-) USINT
005C1638  E18F     		b #798 ; 0x005C195A


#1362
#1363
#1364
#1365		{L:402}
(*) USINT
005C163C  2001     		mov r0, #1 ; 1
005C163E  F85F 7D8C		ldr r7, [pc, #-3468] ; 0x74
005C1642  55F0     		strb r0, [r6, +r7]

#1366
#1367
#1368
#1369		{L:403}
(*) UNDEF
005C1644  F8DF 731C		ldr r7, [pc, #+796] ; 0xBC
005C1648  5DF0     		ldrb r0, [r6, +r7]

#1370		{L:403}
(*) BOOL
005C164A  2800     		cmp r0, #0
005C164C  BF08 2001		eqmov r0, #1
005C1650  BF18 2000		nemov r0, #0

#1371		{L:403}
(-) BOOL
005C1654  2800     		cmp r0, #0
005C1656  D002     		beq #4 ; 0x005C165E


#1372
#1373
#1374
#1375
#1376
#1377
(-) BOOL
005C165A  E17E     		b #764 ; 0x005C195A


#1378
#1379
#1380
#1381
#1382		{L:404}
(*) BOOL
005C165E  2000     		mov r0, #0 ; 0
005C1660  F85F 7DB0		ldr r7, [pc, #-3504] ; 0x74
005C1664  55F0     		strb r0, [r6, +r7]

#1383
#1384
#1385		{L:405}
(*) BOOL
005C1666  4630     		mov r0, r6
005C1668  F85F 7D84		ldr r7, [pc, #-3460] ; 0x144
005C166C  19C0     		add r0, r0, r7

#1386		{L:405}
(-) DWORD
005C166E  4600     		mov r0, r0
005C1670  F85F 4CDC		ldr r4, [pc, #-3292] ; 0x4905F5
005C1674  F044 0401		orr r4, r4, #1
005C1678  47A0     		blx r4

#1387		{L:405}
(*) BOOL
005C167A  F85F 7D9C		ldr r7, [pc, #-3484] ; 0x128
005C167E  53F0     		strh r0, [r6, +r7]

#1388
#1389
#1390
#1391		{L:409}
(*) UNDEF
005C1680  F8DF 72E4		ldr r7, [pc, #+740] ; 0xBD
005C1684  5DF0     		ldrb r0, [r6, +r7]

#1392		{L:409}
(*) BOOL
005C1686  2800     		cmp r0, #0
005C1688  BF08 2001		eqmov r0, #1
005C168C  BF18 2000		nemov r0, #0

#1393		{L:409}
(-) BOOL
005C1690  2800     		cmp r0, #0
005C1692  D008     		beq #16 ; 0x005C16A6


#1394
#1395
#1396
#1397
#1398		{L:409}
(*) BOOL
005C1696  F8DF 7320		ldr r7, [pc, #+800] ; 0x5BA444
005C169A  6838     		ldr r0, [r7]
005C169C  F85F 7DF8		ldr r7, [pc, #-3576] ; 0x8
005C16A0  51F0     		str r0, [r6, +r7]

#1399
#1400
#1401
#1402
(-) UDINT
005C16A2  E15A     		b #692 ; 0x005C195A


#1403
#1404
#1405
#1406
#1407		{L:410}
(*) UNDEF
005C16A6  F85F 7E04		ldr r7, [pc, #-3588] ; 0x4
005C16AA  5DF0     		ldrb r0, [r6, +r7]

#1408		{L:410}
(-) USINT
005C16AC  1C40     		add r0, r0, #1

#1409		{L:410}
(*) USINT
005C16AE  F85F 7E0C		ldr r7, [pc, #-3596] ; 0x4
005C16B2  55F0     		strb r0, [r6, +r7]

#1410
(-) USINT
005C16B4  E151     		b #674 ; 0x005C195A


#1411
#1412
#1413
#1414
#1415		{L:427}
(*) USINT
005C16B8  4630     		mov r0, r6
005C16BA  F8DF 72B0		ldr r7, [pc, #+688] ; 0x134
005C16BE  19C0     		add r0, r0, r7

#1416		{L:427}
(*) DWORD
005C16C0  F85F 7D60		ldr r7, [pc, #-3424] ; 0x1F0
005C16C4  51F0     		str r0, [r6, +r7]

#1417		{L:427}
(*) UNDEF
005C16C6  F85F 7D74		ldr r7, [pc, #-3444] ; 0x1E0
005C16CA  59F0     		ldr r0, [r6, +r7]

#1418		{L:427}
(-) @USINT
005C16CC  F85F 7D6C		ldr r7, [pc, #-3436] ; 0x1F0
005C16D0  59F3     		ldr r3, [r6, +r7]
005C16D2  2220     		mov r2, #32 ; 32
005C16D4  F85F 7484		ldr r7, [pc, #-1156] ; 0x5BA3FC
005C16D8  4639     		mov r1, r7
005C16DA  4600     		mov r0, r0
005C16DC  F8DF 42BC		ldr r4, [pc, #+700] ; 0x48FBB1
005C16E0  F044 0401		orr r4, r4, #1
005C16E4  47A0     		blx r4

#1419		{L:427}
(*) BOOL
005C16E6  2800     		cmp r0, #0
005C16E8  BF08 2001		eqmov r0, #1
005C16EC  BF18 2000		nemov r0, #0

#1420		{L:427}
(-) BOOL
005C16F0  2800     		cmp r0, #0
005C16F2  D008     		beq #16 ; 0x005C1706


#1421
#1422
#1423
#1424
#1425		{L:427}
(*) BOOL
005C16F6  F8DF 72C4		ldr r7, [pc, #+708] ; 0x5BA448
005C16FA  6838     		ldr r0, [r7]
005C16FC  F85F 7E58		ldr r7, [pc, #-3672] ; 0x8
005C1700  51F0     		str r0, [r6, +r7]

#1426
#1427
#1428
#1429
(-) UDINT
005C1702  E12A     		b #596 ; 0x005C195A


#1430
#1431
#1432
#1433
#1434		{L:433}
(*) UNDEF
005C1706  F8DF 7264		ldr r7, [pc, #+612] ; 0x134
005C170A  5BF0     		ldrh r0, [r6, +r7]

#1435		{L:433}
(*) UINT
005C170C  F85F 74B4		ldr r7, [pc, #-1204] ; 0x20412FB4
005C1710  683F     		ldr r7, [r7]
005C1712  1BC0     		sub r0, r0, r7

#1436		{L:433}
(-) UDINT
#1437		{L:433}
(*) UINT
005C1714  F8DF 7254		ldr r7, [pc, #+596] ; 0x134
005C1718  53F0     		strh r0, [r6, +r7]

#1438
#1439
#1440
#1441		{L:434}
(*) UNDEF
005C171A  F85F 7524		ldr r7, [pc, #-1316] ; 0x132
005C171E  5BF0     		ldrh r0, [r6, +r7]

#1442		{L:434}
(*) UINT
005C1720  F8DF 7248		ldr r7, [pc, #+584] ; 0x134
005C1724  5BF7     		ldrh r7, [r6, +r7]
005C1726  42B8     		cmp r0, r7
005C1728  BF08 2000		eqmov r0, #0
005C172C  BF18 2001		nemov r0, #1

#1443		{L:434}
(-) BOOL
005C1730  2800     		cmp r0, #0
005C1732  D007     		beq #14 ; 0x005C1744


#1444
#1445
#1446
#1447
#1448		{L:434}
(*) UNDEF
005C1736  F85F 7DDC		ldr r7, [pc, #-3548] ; 0x1E8
005C173A  59F0     		ldr r0, [r6, +r7]

#1449		{L:434}
(-) UDINT
005C173C  1C40     		add r0, r0, #1

#1450		{L:434}
(*) UDINT
005C173E  F85F 7DE4		ldr r7, [pc, #-3556] ; 0x1E8
005C1742  51F0     		str r0, [r6, +r7]

#1451
#1452
#1453
#1454
#1455
#1456		{L:435}
(*) UNDEF
005C1744  F8DF 7224		ldr r7, [pc, #+548] ; 0x134
005C1748  5BF0     		ldrh r0, [r6, +r7]

#1457		{L:435}
(-) UINT
005C174A  1C40     		add r0, r0, #1

#1458		{L:435}
(*) UINT
005C174C  F85F 7558		ldr r7, [pc, #-1368] ; 0x132
005C1750  53F0     		strh r0, [r6, +r7]

#1459
#1460
#1461
#1462		{L:439}
(*) UINT
005C1752  F8DF 026C		ldr r0, [pc, #+620] ; 0x5BA44C

#1463		{L:439}
(*) DWORD
005C1756  F85F 7DF4		ldr r7, [pc, #-3572] ; 0x1F0
005C175A  51F0     		str r0, [r6, +r7]

#1464		{L:439}
(*) UNDEF
005C175C  F85F 7E0C		ldr r7, [pc, #-3596] ; 0x1E0
005C1760  59F0     		ldr r0, [r6, +r7]

#1465		{L:439}
(-) @USINT
005C1762  2204     		mov r2, #4 ; 4
005C1764  F85F 7E04		ldr r7, [pc, #-3588] ; 0x1F0
005C1768  59F1     		ldr r1, [r6, +r7]
005C176A  4600     		mov r0, r0
005C176C  F8DF 4230		ldr r4, [pc, #+560] ; 0x4908DD
005C1770  F044 0401		orr r4, r4, #1
005C1774  47A0     		blx r4

#1466		{L:439}
(*) @USINT
005C1776  F8DF 721C		ldr r7, [pc, #+540] ; 0x210
005C177A  51F0     		str r0, [r6, +r7]

#1467		{L:439}
(*) @USINT
005C177C  4630     		mov r0, r6
005C177E  F8DF 720C		ldr r7, [pc, #+524] ; 0x1D4
005C1782  19C0     		add r0, r0, r7

#1468		{L:439}
(*) DWORD
005C1784  F8DF 7210		ldr r7, [pc, #+528] ; 0x214
005C1788  51F0     		str r0, [r6, +r7]

#1469		{L:439}
(*) UNDEF
005C178A  F8DF 7208		ldr r7, [pc, #+520] ; 0x210
005C178E  59F0     		ldr r0, [r6, +r7]

#1470		{L:439}
(-) @USINT
005C1790  F8DF 7204		ldr r7, [pc, #+516] ; 0x214
005C1794  59F3     		ldr r3, [r6, +r7]
005C1796  2216     		mov r2, #22 ; 22
005C1798  F8DF 720C		ldr r7, [pc, #+524] ; 0x5BA250
005C179C  4639     		mov r1, r7
005C179E  4600     		mov r0, r0
005C17A0  F8DF 41F8		ldr r4, [pc, #+504] ; 0x48FBB1
005C17A4  F044 0401		orr r4, r4, #1
005C17A8  47A0     		blx r4

#1471		{L:439}
(*) BOOL
005C17AA  2800     		cmp r0, #0
005C17AC  BF08 2001		eqmov r0, #1
005C17B0  BF18 2000		nemov r0, #0

#1472		{L:439}
(-) BOOL
005C17B4  2800     		cmp r0, #0
005C17B6  D008     		beq #16 ; 0x005C17CA


#1473
#1474
#1475
#1476
#1477		{L:439}
(*) BOOL
005C17BA  F8DF 7208		ldr r7, [pc, #+520] ; 0x5BA450
005C17BE  6838     		ldr r0, [r7]
005C17C0  F85F 7F1C		ldr r7, [pc, #-3868] ; 0x8
005C17C4  51F0     		str r0, [r6, +r7]

#1478
#1479
#1480
#1481
(-) UDINT
005C17C6  E0C8     		b #400 ; 0x005C195A


#1482
#1483
#1484
#1485
#1486		{L:443}
(*) UDINT
005C17CA  F8DF 01FC		ldr r0, [pc, #+508] ; 0x5BA454

#1487		{L:443}
(*) DWORD
005C17CE  F85F 7E6C		ldr r7, [pc, #-3692] ; 0x1F0
005C17D2  51F0     		str r0, [r6, +r7]

#1488		{L:443}
(*) UNDEF
005C17D4  F85F 7E84		ldr r7, [pc, #-3716] ; 0x1E0
005C17D8  59F0     		ldr r0, [r6, +r7]

#1489		{L:443}
(-) @USINT
005C17DA  2204     		mov r2, #4 ; 4
005C17DC  F85F 7E7C		ldr r7, [pc, #-3708] ; 0x1F0
005C17E0  59F1     		ldr r1, [r6, +r7]
005C17E2  4600     		mov r0, r0
005C17E4  F8DF 41B8		ldr r4, [pc, #+440] ; 0x4908DD
005C17E8  F044 0401		orr r4, r4, #1
005C17EC  47A0     		blx r4

#1490		{L:443}
(*) @USINT
005C17EE  F8DF 7184		ldr r7, [pc, #+388] ; 0x140
005C17F2  51F0     		str r0, [r6, +r7]

#1491
#1492
#1493
#1494		{L:444}
(*) UNDEF
005C17F4  F8DF 717C		ldr r7, [pc, #+380] ; 0x140
005C17F8  59F0     		ldr r0, [r6, +r7]

#1495		{L:444}
(*) @USINT
005C17FA  2700     		mov r7, #0 ; 0
005C17FC  42B8     		cmp r0, r7
005C17FE  BF18 2000		nemov r0, #0
005C1802  BF08 2001		eqmov r0, #1

#1496		{L:444}
(-) BOOL
005C1806  2800     		cmp r0, #0
005C1808  D008     		beq #16 ; 0x005C181C


#1497
#1498
#1499
#1500
#1501		{L:444}
(*) BOOL
005C180C  F8DF 71BC		ldr r7, [pc, #+444] ; 0x5BA45C
005C1810  6838     		ldr r0, [r7]
005C1812  F85F 7F6C		ldr r7, [pc, #-3948] ; 0x8
005C1816  51F0     		str r0, [r6, +r7]

#1502
#1503
#1504
#1505
(-) UDINT
005C1818  E09F     		b #318 ; 0x005C195A


#1506
#1507
#1508
#1509
#1510		{L:448}
(*) UDINT
005C181C  F85F 7ECC		ldr r7, [pc, #-3788] ; 0x1E0
005C1820  59F0     		ldr r0, [r6, +r7]
005C1822  F8DF 714C		ldr r7, [pc, #+332] ; 0x13C
005C1826  51F0     		str r0, [r6, +r7]

#1511
#1512
#1513		{L:449}
(*) UNDEF
005C1828  F85F 7EF8		ldr r7, [pc, #-3832] ; 0x1C8
005C182C  59F0     		ldr r0, [r6, +r7]

#1514		{L:449}
(*) UDINT
005C182E  B082     		sub sp, sp, #8
005C1830  F8CD 0000		str r0, [sp]
005C1834  F8DF 713C		ldr r7, [pc, #+316] ; 0x140
005C1838  59F0     		ldr r0, [r6, +r7]

#1515		{L:449}
(-) @USINT
#1516		{L:449}
(*) UDINT
005C183A  B082     		sub sp, sp, #8
005C183C  F8CD 0000		str r0, [sp]
005C1840  F85F 7EF0		ldr r7, [pc, #-3824] ; 0x1E0
005C1844  59F0     		ldr r0, [r6, +r7]

#1517		{L:449}
(-) @USINT
#1518		{L:449}
(*) UDINT
005C1846  4607     		mov r7, r0
005C1848  F8DD 0000		ldr r0, [sp]
005C184C  B002     		add sp, sp, #8
005C184E  1BC0     		sub r0, r0, r7

#1519		{L:449}
(*) UDINT
005C1850  4607     		mov r7, r0
005C1852  F8DD 0000		ldr r0, [sp]
005C1856  B002     		add sp, sp, #8
005C1858  1BC0     		sub r0, r0, r7

#1520		{L:449}
(*) UDINT
005C185A  F85F 7660		ldr r7, [pc, #-1632] ; 0x138
005C185E  51F0     		str r0, [r6, +r7]

#1521
#1522
#1523		{L:450}
(-) UNDEF
005C1860  2000     		mov r0, #0 ; 0

#1524		{L:450}
(*) USINT
005C1862  F85F 7F80		ldr r7, [pc, #-3968] ; 0x12C
005C1866  51F0     		str r0, [r6, +r7]

#1525
#1526
#1527		{L:450}
(*) UNDEF
005C1868  F85F 7F88		ldr r7, [pc, #-3976] ; 0x12C
005C186C  59F0     		ldr r0, [r6, +r7]

#1528		{L:450}
(*) UDINT
005C186E  F85F 7674		ldr r7, [pc, #-1652] ; 0x138
005C1872  59F7     		ldr r7, [r6, +r7]
005C1874  42B8     		cmp r0, r7
005C1876  BF98 2000		lsmov r0, #0
005C187A  BF88 2001		himov r0, #1

#1529		{L:450}
(-) BOOL
005C187E  2800     		cmp r0, #0
005C1880  D122     		bne #68 ; 0x005C18C8


#1530
#1531
#1532
#1533
#1534		{L:450}
(*) BOOL
005C1884  F8DF 70EC		ldr r7, [pc, #+236] ; 0x140
005C1888  F856 C007		ldr r12, [r6, +r7]
005C188C  F89C 0000		ldrb r0, [r12]
005C1890  F8DF 70DC		ldr r7, [pc, #+220] ; 0x13C
005C1894  F856 C007		ldr r12, [r6, +r7]
005C1898  F88C 0000		strb r0, [r12]

#1535
#1536
#1537		{L:450}
(*) UNDEF
005C189C  F8DF 70D0		ldr r7, [pc, #+208] ; 0x13C
005C18A0  59F0     		ldr r0, [r6, +r7]

#1538		{L:450}
(-) @USINT
005C18A2  1C40     		add r0, r0, #1

#1539		{L:450}
(*) @USINT
005C18A4  F8DF 70C8		ldr r7, [pc, #+200] ; 0x13C
005C18A8  51F0     		str r0, [r6, +r7]

#1540
#1541
#1542		{L:450}
(*) UNDEF
005C18AA  F8DF 70C8		ldr r7, [pc, #+200] ; 0x140
005C18AE  59F0     		ldr r0, [r6, +r7]

#1543		{L:450}
(-) @USINT
005C18B0  1C40     		add r0, r0, #1

#1544		{L:450}
(*) @USINT
005C18B2  F8DF 70C0		ldr r7, [pc, #+192] ; 0x140
005C18B6  51F0     		str r0, [r6, +r7]

#1545
#1546
#1547		{L:1}
(*) UNDEF
005C18B8  F85F 7FD8		ldr r7, [pc, #-4056] ; 0x12C
005C18BC  59F0     		ldr r0, [r6, +r7]

#1548		{L:1}
(-) UDINT
005C18BE  1C40     		add r0, r0, #1

#1549		{L:1}
(*) UDINT
005C18C0  F85F 7FE0		ldr r7, [pc, #-4064] ; 0x12C
005C18C4  51F0     		str r0, [r6, +r7]

#1550
(-) UDINT
005C18C6  E7CF     		b #-98 ; 0x005C1868

#1551
#1552
#1553
#1554
#1555
#1556
#1557		{L:451}
(*) UNDEF
005C18C8  F8DF 7094		ldr r7, [pc, #+148] ; 0x4
005C18CC  5DF0     		ldrb r0, [r6, +r7]

#1558		{L:451}
(-) USINT
005C18CE  1C40     		add r0, r0, #1

#1559		{L:451}
(*) USINT
005C18D0  F8DF 708C		ldr r7, [pc, #+140] ; 0x4
005C18D4  55F0     		strb r0, [r6, +r7]

#1560
(-) USINT
005C18D6  E040     		b #128 ; 0x005C195A


#1561
#1562
#1563
#1564		{L:459}
(*) UNDEF
005C18DA  F85F 7FB8		ldr r7, [pc, #-4024] ; 0x1B8
005C18DE  F856 C007		ldr r12, [r6, +r7]
005C18E2  F8DF 707C		ldr r7, [pc, #+124] ; 0x4
005C18E6  F85C 0007		ldr r0, [r12, +r7]

#1565		{L:459}
(*) UDINT
005C18EA  F85F 76F8		ldr r7, [pc, #-1784] ; 0x130
005C18EE  5BF7     		ldrh r7, [r6, +r7]
005C18F0  19C0     		add r0, r0, r7

#1566		{L:459}
(*) UDINT
005C18F2  F85F 7FD0		ldr r7, [pc, #-4048] ; 0x1B8
005C18F6  F856 C007		ldr r12, [r6, +r7]
005C18FA  F8DF 7064		ldr r7, [pc, #+100] ; 0x4
005C18FE  F84C 0007		str r0, [r12, +r7]

#1567
#1568
#1569		{L:460}
(*) UNDEF
005C1902  F8DF 705C		ldr r7, [pc, #+92] ; 0x4
005C1906  5DF0     		ldrb r0, [r6, +r7]

#1570		{L:460}
(-) USINT
005C1908  1C40     		add r0, r0, #1

#1571		{L:460}
(*) USINT
005C190A  F8DF 7054		ldr r7, [pc, #+84] ; 0x4
005C190E  55F0     		strb r0, [r6, +r7]

#1572
(-) USINT
005C1910  E023     		b #70 ; 0x005C195A


#1573
#1574
#1575
#1576		{L:466}
(-) UNDEF
005C1914  2001     		mov r0, #1 ; 1

#1577		{L:466}
(-) BOOL
005C1916  4600     		mov r0, r0
005C1918  F85F 4F90		ldr r4, [pc, #-3984] ; 0x490519
005C191C  F044 0401		orr r4, r4, #1
005C1920  47A0     		blx r4

#1578		{L:466}
(*) UDINT
005C1922  F8DF 7054		ldr r7, [pc, #+84] ; 0x180
005C1926  51F0     		str r0, [r6, +r7]

#1579
#1580
#1581		{L:467}
(-) UNDEF
005C1928  2001     		mov r0, #1 ; 1

#1582		{L:467}
(-) BOOL
005C192A  4600     		mov r0, r0
005C192C  F85F 4FA4		ldr r4, [pc, #-4004] ; 0x490519
005C1930  F044 0401		orr r4, r4, #1
005C1934  47A0     		blx r4

#1583		{L:467}
(*) UDINT
005C1936  F8DF 7044		ldr r7, [pc, #+68] ; 0x184
005C193A  51F0     		str r0, [r6, +r7]

#1584
#1585
#1586		{L:468}
(*) UNDEF
005C193C  F85F 7FE8		ldr r7, [pc, #-4072] ; 0x1E4
005C1940  59F0     		ldr r0, [r6, +r7]

#1587		{L:468}
(-) UDINT
005C1942  1C40     		add r0, r0, #1

#1588		{L:468}
(*) UDINT
005C1944  F85F 7FF0		ldr r7, [pc, #-4080] ; 0x1E4
005C1948  51F0     		str r0, [r6, +r7]

#1589
#1590
#1591		{L:469}
(*) UDINT
005C194A  2001     		mov r0, #1 ; 1
005C194C  F8DF 7034		ldr r7, [pc, #+52] ; 0x1D1
005C1950  55F0     		strb r0, [r6, +r7]

#1592
#1593
#1594		{L:470}
(*) BOOL
005C1952  2001     		mov r0, #1 ; 1
005C1954  F8DF 7030		ldr r7, [pc, #+48] ; 0x1D2
005C1958  55F0     		strb r0, [r6, +r7]

005C195A  E8BD 4040		ldmia sp!, { r6, lr }

005C195E  4770     		bx lr

005C1960  00000004		; 0x00000004
005C1964  000000BC		; 0x000000BC
005C1968  000000BD		; 0x000000BD
005C196C  00000134		; 0x00000134
005C1970  0000013C		; 0x0000013C
005C1974  00000140		; 0x00000140
005C1978  00000180		; 0x00000180
005C197C  00000184		; 0x00000184
005C1980  0000018C		; 0x0000018C
005C1984  000001D1		; 0x000001D1
005C1988  000001D2		; 0x000001D2
005C198C  000001D4		; 0x000001D4
005C1990  0000020E		; 0x0000020E
005C1994  00000210		; 0x00000210
005C1998  00000214		; 0x00000214
005C199C  0048FBB1		; 0x0048FBB1
005C19A0  004908DD		; 0x004908DD
005C19A4  005BA080		; 0x005BA080
005C19A8  005BA250		; 0x005BA250
005C19AC  005BA410		; 0x005BA410
005C19B0  005BA42C		; 0x005BA42C
005C19B4  005BA430		; 0x005BA430
005C19B8  005BA444		; 0x005BA444
005C19BC  005BA448		; 0x005BA448
005C19C0  005BA44C		; 0x005BA44C
005C19C4  005BA450		; 0x005BA450
005C19C8  005BA454		; 0x005BA454
005C19CC  005BA45C		; 0x005BA45C


Frame allocation:

	0000       : VAR ABuffer
	0004       : VAR CaseNr
	0008       : VAR ErrorNr
	000C       : VAR FLength
	0010       : VAR Fp
	0014       : FB HTTPClient
	0128       : VAR i
	012C       : VAR j
	0130       : VAR Length
	0132       : VAR MID
	0138       : VAR MLength
	013C       : VAR Ptr
	0144       : VAR RBuffer
	0148       : STRU RSv
	017C       : VAR TimeBf
	0188       : VAR Type
	0189 bit  0: VAR Enable
	018A bit  0: VAR SvcAck
	018B bit  0: VAR SpyOn
	018C       : VAR RPAck
	018E       : VAR HBitTime
	0190       : VAR FIFOFile
	01B4       : VAR FIFOSize
	01B8       : STRU RESTSvBck
	01BC       : VAR HostAddress
	01C0       : VAR HostName
	01C4       : VAR HostPort
	01C8       : VAR BLength
	01CC       : VAR Page
	01D0 bit  0: VAR Enabled
	01D1 bit  0: VAR RSvcOn
	01D2 bit  0: VAR SvcOk
	01D3 bit  0: VAR Fault
	01D4       : VAR RPCount
	01D8       : STRU RSvID
	01DC       : VAR FSpace
	01E0       : VAR PBuffer
	01E4       : VAR PktsOk
	01E8       : VAR Resyncs
	01EC       : VAR Errors

END_FUNCTION_BLOCK
**************************************************
	List function block: RESTSendFct
**************************************************

FUNCTION_BLOCK RESTSendFct

	{ DE:"(eLLabRESTSvcLib_A500) Sends a packet to REST service" }

        VAR_INPUT
Add : @BYTE;	{ DE:"Variable address" }
RSvID : @_RESTSERVICEDATA;	{ DE:"REST service ID" }
	END_VAR

        VAR_OUTPUT
Fault : BOOL;	{ DE:"Execution error" }
	END_VAR

        VAR_EXTERNAL
	{G:"System_variables"}
SysActTaskID AT %MB0.64 : USINT;	{ DE:"System active task ID" }
	END_VAR

        VAR
i : INT;	{ DE:"Auxiliary variable" }
USPtr : @USINT;	{ DE:"Auxiliary pointer (USINT)" }
Fp : UDINT;	{ DE:"File pointer" }
Length : UINT;	{ DE:"Lunghezza record" }
UDPtr : @UDINT;	{ DE:"Auxiliary pointer (UDINT)" }
RsBPtr : @RESTSERVICEBACKUP;	{ DE:"REST service backup pointer" }
UTCTime : UDINT;	{ DE:"UTC Date/Time" }
	END_VAR

END_FUNCTION_BLOCK

005C19D0  E92D 4040		stmdb sp!, { r6, lr }
005C19D4  462E     		mov r6, r5

#0		{SRC:RESTSendFct}
#1
#2
#3
#4		{L:33}
(*) BOOL
005C19D6  2000     		mov r0, #0 ; 0
005C19D8  F8DF 77B0		ldr r7, [pc, #+1968] ; 0x24
005C19DC  55F0     		strb r0, [r6, +r7]

#5
#6
#7
#8		{L:34}
(*) UNDEF
005C19DE  F8DF 781C		ldr r7, [pc, #+2076] ; 0x20412E8C
005C19E2  7838     		ldrb r0, [r7]

#9		{L:34}
(*) USINT
005C19E4  2803     		cmp r0, #3
005C19E6  BF18 2000		nemov r0, #0
005C19EA  BF08 2001		eqmov r0, #1

#10		{L:34}
(-) BOOL
005C19EE  2800     		cmp r0, #0
005C19F0  D010     		beq #32 ; 0x005C1A14


#11
#12
#13
#14
#15		{L:34}
(*) BOOL
005C19F4  2001     		mov r0, #1 ; 1
005C19F6  F8DF 7794		ldr r7, [pc, #+1940] ; 0x24
005C19FA  55F0     		strb r0, [r6, +r7]

#16
#17
#18		{L:34}
(*) UNDEF
005C19FC  F8DF 77CC		ldr r7, [pc, #+1996] ; 0x5BA378
005C1A00  6838     		ldr r0, [r7]

#19		{L:34}
(-) UDINT
005C1A02  4600     		mov r0, r0
005C1A04  F8DF 47A8		ldr r4, [pc, #+1960] ; 0x490561
005C1A08  F044 0401		orr r4, r4, #1
005C1A0C  47A0     		blx r4

#20		{L:34}
(-) BOOL
005C1A0E  8030     		strh r0, [r6]

#21
#22
#23
#24
(-) BOOL
005C1A10  E3AB     		b #1878 ; 0x005C216A


#25
#26
#27
#28
#29
#30		{L:35}
(*) UNDEF
005C1A14  F8DF 7770		ldr r7, [pc, #+1904] ; 0x20
005C1A18  59F0     		ldr r0, [r6, +r7]

#31		{L:35}
(-) @_RESTSERVICEDATA
#32		{L:35}
(*) UDINT
005C1A1A  2700     		mov r7, #0 ; 0
005C1A1C  42B8     		cmp r0, r7
005C1A1E  BF18 2000		nemov r0, #0
005C1A22  BF08 2001		eqmov r0, #1

#33		{L:35}
(-) BOOL
005C1A26  2800     		cmp r0, #0
005C1A28  D010     		beq #32 ; 0x005C1A4C


#34
#35
#36
#37
#38		{L:35}
(*) BOOL
005C1A2C  2001     		mov r0, #1 ; 1
005C1A2E  F8DF 775C		ldr r7, [pc, #+1884] ; 0x24
005C1A32  55F0     		strb r0, [r6, +r7]

#39
#40
#41		{L:35}
(*) UNDEF
005C1A34  F8DF 7798		ldr r7, [pc, #+1944] ; 0x5BA37C
005C1A38  6838     		ldr r0, [r7]

#42		{L:35}
(-) UDINT
005C1A3A  4600     		mov r0, r0
005C1A3C  F8DF 4770		ldr r4, [pc, #+1904] ; 0x490561
005C1A40  F044 0401		orr r4, r4, #1
005C1A44  47A0     		blx r4

#43		{L:35}
(-) BOOL
005C1A46  8030     		strh r0, [r6]

#44
#45
#46
#47
(-) BOOL
005C1A48  E38F     		b #1822 ; 0x005C216A


#48
#49
#50
#51
#52
#53		{L:36}
(*) UNDEF
005C1A4C  F8DF 7738		ldr r7, [pc, #+1848] ; 0x20
005C1A50  F856 C007		ldr r12, [r6, +r7]
005C1A54  F8DC 0000		ldr r0, [r12]

#54		{L:36}
(*) UDINT
005C1A58  F8DF 7778		ldr r7, [pc, #+1912] ; 0x5BA380
005C1A5C  683F     		ldr r7, [r7]
005C1A5E  42B8     		cmp r0, r7
005C1A60  BF08 2000		eqmov r0, #0
005C1A64  BF18 2001		nemov r0, #1

#55		{L:36}
(-) BOOL
005C1A68  2800     		cmp r0, #0
005C1A6A  D010     		beq #32 ; 0x005C1A8E


#56
#57
#58
#59
#60		{L:36}
(*) BOOL
005C1A6E  2001     		mov r0, #1 ; 1
005C1A70  F8DF 7718		ldr r7, [pc, #+1816] ; 0x24
005C1A74  55F0     		strb r0, [r6, +r7]

#61
#62
#63		{L:36}
(*) UNDEF
005C1A76  F8DF 7760		ldr r7, [pc, #+1888] ; 0x5BA384
005C1A7A  6838     		ldr r0, [r7]

#64		{L:36}
(-) UDINT
005C1A7C  4600     		mov r0, r0
005C1A7E  F8DF 4730		ldr r4, [pc, #+1840] ; 0x490561
005C1A82  F044 0401		orr r4, r4, #1
005C1A86  47A0     		blx r4

#65		{L:36}
(-) BOOL
005C1A88  8030     		strh r0, [r6]

#66
#67
#68
#69
(-) BOOL
005C1A8A  E36E     		b #1756 ; 0x005C216A


#70
#71
#72
#73
#74
#75		{L:42}
(*) UNDEF
005C1A8E  F8DF 76F4		ldr r7, [pc, #+1780] ; 0x1C
005C1A92  59F0     		ldr r0, [r6, +r7]

#76		{L:42}
(*) @BYTE
005C1A94  2700     		mov r7, #0 ; 0
005C1A96  42B8     		cmp r0, r7
005C1A98  BF18 2000		nemov r0, #0
005C1A9C  BF08 2001		eqmov r0, #1

#77		{L:42}
(-) BOOL
005C1AA0  2800     		cmp r0, #0
005C1AA2  D002     		beq #4 ; 0x005C1AAA


#78
#79
#80
#81
#82
#83
(-) BOOL
005C1AA6  E360     		b #1728 ; 0x005C216A


#84
#85
#86
#87
#88		{L:49}
(*) BOOL
005C1AAA  F8DF 76D8		ldr r7, [pc, #+1752] ; 0x1C
005C1AAE  59F0     		ldr r0, [r6, +r7]
005C1AB0  F8DF 76BC		ldr r7, [pc, #+1724] ; 0x4
005C1AB4  51F0     		str r0, [r6, +r7]

#89
#90
#91		{L:50}
(-) UNDEF
005C1AB6  2000     		mov r0, #0 ; 0

#92		{L:50}
(*) USINT
005C1AB8  F8DF 76BC		ldr r7, [pc, #+1724] ; 0xC
005C1ABC  53F0     		strh r0, [r6, +r7]

#93
#94
#95		{L:50}
(*) UNDEF
005C1ABE  F8DF 76B8		ldr r7, [pc, #+1720] ; 0xC
005C1AC2  5BF0     		ldrh r0, [r6, +r7]

#96		{L:50}
(*) UINT
005C1AC4  B082     		sub sp, sp, #8
005C1AC6  F8CD 0000		str r0, [sp]
005C1ACA  F8DF 76BC		ldr r7, [pc, #+1724] ; 0x20
005C1ACE  F856 C007		ldr r12, [r6, +r7]
005C1AD2  F8DF 76C4		ldr r7, [pc, #+1732] ; 0x30
005C1AD6  F85C 0007		ldr r0, [r12, +r7]

#97		{L:50}
(-) UDINT
005C1ADA  3808     		sub r0, r0, #8

#98		{L:50}
(*) UDINT
005C1ADC  4607     		mov r7, r0
005C1ADE  F8DD 0000		ldr r0, [sp]
005C1AE2  B002     		add sp, sp, #8
005C1AE4  42B8     		cmp r0, r7
005C1AE6  BF98 2000		lsmov r0, #0
005C1AEA  BF88 2001		himov r0, #1

#99		{L:50}
(-) BOOL
005C1AEE  2800     		cmp r0, #0
005C1AF0  D11F     		bne #62 ; 0x005C1B32


#100
#101
#102
#103
#104
#105		{L:50}
(*) UNDEF
005C1AF4  F8DF 7678		ldr r7, [pc, #+1656] ; 0x4
005C1AF8  F856 C007		ldr r12, [r6, +r7]
005C1AFC  F89C 0000		ldrb r0, [r12]

#106		{L:50}
(*) USINT
005C1B00  2800     		cmp r0, #0
005C1B02  BF18 2000		nemov r0, #0
005C1B06  BF08 2001		eqmov r0, #1

#107		{L:50}
(-) BOOL
005C1B0A  2800     		cmp r0, #0
005C1B0C  D002     		beq #4 ; 0x005C1B14


#108
#109
#110
#111
#112
(-) BOOL
005C1B10  E00F     		b #30 ; 0x005C1B32


#113
#114
#115
#116
#117
#118		{L:50}
(*) UNDEF
005C1B14  F8DF 7658		ldr r7, [pc, #+1624] ; 0x4
005C1B18  59F0     		ldr r0, [r6, +r7]

#119		{L:50}
(-) @USINT
005C1B1A  1C40     		add r0, r0, #1

#120		{L:50}
(*) @USINT
005C1B1C  F8DF 7650		ldr r7, [pc, #+1616] ; 0x4
005C1B20  51F0     		str r0, [r6, +r7]

#121
#122
#123		{L:1}
(*) UNDEF
005C1B22  F8DF 7654		ldr r7, [pc, #+1620] ; 0xC
005C1B26  5BF0     		ldrh r0, [r6, +r7]

#124		{L:1}
(-) UINT
005C1B28  1C40     		add r0, r0, #1

#125		{L:1}
(*) UINT
005C1B2A  F8DF 764C		ldr r7, [pc, #+1612] ; 0xC
005C1B2E  53F0     		strh r0, [r6, +r7]

#126
(-) UINT
005C1B30  E7C5     		b #-118 ; 0x005C1ABE

#127
#128
#129
#130
#131
#132
#133
#134		{L:51}
(*) UNDEF
005C1B32  F8DF 7654		ldr r7, [pc, #+1620] ; 0x20
005C1B36  F856 C007		ldr r12, [r6, +r7]
005C1B3A  F8DF 765C		ldr r7, [pc, #+1628] ; 0x30
005C1B3E  F85C 0007		ldr r0, [r12, +r7]

#135		{L:51}
(-) UDINT
005C1B42  3808     		sub r0, r0, #8

#136		{L:51}
(*) UDINT
005C1B44  F8DF 7630		ldr r7, [pc, #+1584] ; 0xC
005C1B48  5BF7     		ldrh r7, [r6, +r7]
005C1B4A  42B8     		cmp r0, r7
005C1B4C  BF18 2000		nemov r0, #0
005C1B50  BF08 2001		eqmov r0, #1

#137		{L:51}
(-) BOOL
005C1B54  2800     		cmp r0, #0
005C1B56  D00E     		beq #28 ; 0x005C1B76


#138
#139
#140
#141
#142		{L:51}
(*) BOOL
005C1B5A  2001     		mov r0, #1 ; 1
005C1B5C  F8DF 762C		ldr r7, [pc, #+1580] ; 0x24
005C1B60  55F0     		strb r0, [r6, +r7]

#143
#144
#145		{L:51}
(*) UNDEF
005C1B62  F8DF 7678		ldr r7, [pc, #+1656] ; 0x5BA388
005C1B66  6838     		ldr r0, [r7]

#146		{L:51}
(-) UDINT
005C1B68  4600     		mov r0, r0
005C1B6A  F8DF 4644		ldr r4, [pc, #+1604] ; 0x490561
005C1B6E  F044 0401		orr r4, r4, #1
005C1B72  47A0     		blx r4

#147		{L:51}
(-) BOOL
005C1B74  8030     		strh r0, [r6]

#148
#149
#150
#151
#152
#153		{L:52}
(*) UNDEF
005C1B76  F8DF 7600		ldr r7, [pc, #+1536] ; 0xC
005C1B7A  5BF0     		ldrh r0, [r6, +r7]

#154		{L:52}
(-) UINT
005C1B7C  3008     		add r0, r0, #8

#155		{L:52}
(*) UINT
005C1B7E  F8DF 75F8		ldr r7, [pc, #+1528] ; 0xC
005C1B82  53F0     		strh r0, [r6, +r7]

#156
#157
#158		{L:57}
(*) UINT
005C1B84  F8DF 7600		ldr r7, [pc, #+1536] ; 0x20
005C1B88  F856 C007		ldr r12, [r6, +r7]
005C1B8C  F8DF 75E0		ldr r7, [pc, #+1504] ; 0x4
005C1B90  F85C 0007		ldr r0, [r12, +r7]
005C1B94  F8DF 75E4		ldr r7, [pc, #+1508] ; 0x14
005C1B98  51F0     		str r0, [r6, +r7]

#159
#160
#161
#162		{L:58}
(*) UNDEF
005C1B9A  F8DF 75E0		ldr r7, [pc, #+1504] ; 0x14
005C1B9E  F856 C007		ldr r12, [r6, +r7]
005C1BA2  F8DC 0000		ldr r0, [r12]

#163		{L:58}
(-) UDINT
005C1BA6  B084     		sub sp, sp, #16
005C1BA8  F8DF 75DC		ldr r7, [pc, #+1500] ; 0x20
005C1BAC  F856 C007		ldr r12, [r6, +r7]
005C1BB0  F8DF 75E0		ldr r7, [pc, #+1504] ; 0x2C
005C1BB4  F85C 7007		ldr r7, [r12, +r7]
005C1BB8  F8CD 7008		str r7, [sp, #+8]
005C1BBC  F8DF 75BC		ldr r7, [pc, #+1468] ; 0x14
005C1BC0  F856 C007		ldr r12, [r6, +r7]
005C1BC4  F8DF 75A8		ldr r7, [pc, #+1448] ; 0x4
005C1BC8  F85C 7007		ldr r7, [r12, +r7]
005C1BCC  F8CD 7004		str r7, [sp, #+4]
005C1BD0  F8CD 0000		str r0, [sp]
005C1BD4  F8DF 4620		ldr r4, [pc, #+1568] ; 0x5C0030
005C1BD8  F044 0401		orr r4, r4, #1
005C1BDC  47A0     		blx r4
005C1BDE  B004     		add sp, sp, #16

#164		{L:58}
(*) UDINT
005C1BE0  F8DF 75AC		ldr r7, [pc, #+1452] ; 0x28
005C1BE4  51F0     		str r0, [r6, +r7]

#165		{L:58}
(*) UNDEF
005C1BE6  F8DF 7590		ldr r7, [pc, #+1424] ; 0xC
005C1BEA  5BF0     		ldrh r0, [r6, +r7]

#166		{L:58}
(*) UINT
005C1BEC  F8DF 75A0		ldr r7, [pc, #+1440] ; 0x28
005C1BF0  59F7     		ldr r7, [r6, +r7]
005C1BF2  42B8     		cmp r0, r7
005C1BF4  BF38 2000		lomov r0, #0
005C1BF8  BF28 2001		hsmov r0, #1

#167		{L:58}
(-) BOOL
005C1BFC  2800     		cmp r0, #0
005C1BFE  D010     		beq #32 ; 0x005C1C22


#168
#169
#170
#171
#172		{L:58}
(*) BOOL
005C1C02  2001     		mov r0, #1 ; 1
005C1C04  F8DF 7584		ldr r7, [pc, #+1412] ; 0x24
005C1C08  55F0     		strb r0, [r6, +r7]

#173
#174
#175		{L:58}
(*) UNDEF
005C1C0A  F8DF 75D4		ldr r7, [pc, #+1492] ; 0x5BA38C
005C1C0E  6838     		ldr r0, [r7]

#176		{L:58}
(-) UDINT
005C1C10  4600     		mov r0, r0
005C1C12  F8DF 459C		ldr r4, [pc, #+1436] ; 0x490561
005C1C16  F044 0401		orr r4, r4, #1
005C1C1A  47A0     		blx r4

#177		{L:58}
(-) BOOL
005C1C1C  8030     		strh r0, [r6]

#178
#179
#180
#181
(-) BOOL
005C1C1E  E2A4     		b #1352 ; 0x005C216A


#182
#183
#184
#185
#186		{L:62}
(*) UNDEF
005C1C22  F8DF 7564		ldr r7, [pc, #+1380] ; 0x20
005C1C26  F856 C007		ldr r12, [r6, +r7]
005C1C2A  4660     		mov r0, r12
005C1C2C  F8DF 7544		ldr r7, [pc, #+1348] ; 0x8
005C1C30  19C0     		add r0, r0, r7

#187		{L:62}
(-) STRING
005C1C32  F8DF 7594		ldr r7, [pc, #+1428] ; 0x5BA33A
005C1C36  4639     		mov r1, r7
005C1C38  F8DF 457C		ldr r4, [pc, #+1404] ; 0x4909FD
005C1C3C  F044 0401		orr r4, r4, #1
005C1C40  47A0     		blx r4

#188		{L:62}
(*) UDINT
005C1C42  F8DF 7530		ldr r7, [pc, #+1328] ; 0x8
005C1C46  51F0     		str r0, [r6, +r7]

#189
#190
#191
#192		{L:63}
(*) UNDEF
005C1C48  F8DF 7528		ldr r7, [pc, #+1320] ; 0x8
005C1C4C  59F0     		ldr r0, [r6, +r7]

#193		{L:63}
(*) UDINT
005C1C4E  2700     		mov r7, #0 ; 0
005C1C50  42B8     		cmp r0, r7
005C1C52  BF18 2000		nemov r0, #0
005C1C56  BF08 2001		eqmov r0, #1

#194		{L:63}
(-) BOOL
005C1C5A  2800     		cmp r0, #0
005C1C5C  D010     		beq #32 ; 0x005C1C80


#195
#196
#197
#198
#199		{L:63}
(*) BOOL
005C1C60  2001     		mov r0, #1 ; 1
005C1C62  F8DF 7528		ldr r7, [pc, #+1320] ; 0x24
005C1C66  55F0     		strb r0, [r6, +r7]

#200
#201
#202		{L:63}
(*) UNDEF
005C1C68  F8DF 7578		ldr r7, [pc, #+1400] ; 0x5BA390
005C1C6C  6838     		ldr r0, [r7]

#203		{L:63}
(-) UDINT
005C1C6E  4600     		mov r0, r0
005C1C70  F8DF 453C		ldr r4, [pc, #+1340] ; 0x490561
005C1C74  F044 0401		orr r4, r4, #1
005C1C78  47A0     		blx r4

#204		{L:63}
(-) BOOL
005C1C7A  8030     		strh r0, [r6]

#205
#206
#207
#208
(-) BOOL
005C1C7C  E275     		b #1258 ; 0x005C216A


#209
#210
#211
#212
#213
#214		{L:69}
(*) UNDEF
005C1C80  F8DF 7504		ldr r7, [pc, #+1284] ; 0x20
005C1C84  F856 C007		ldr r12, [r6, +r7]
005C1C88  F8DF 7508		ldr r7, [pc, #+1288] ; 0x2C
005C1C8C  F85C 0007		ldr r0, [r12, +r7]

#215		{L:69}
(*) UDINT
005C1C90  F8DF 74E8		ldr r7, [pc, #+1256] ; 0x14
005C1C94  F856 C007		ldr r12, [r6, +r7]
005C1C98  F8DC 7000		ldr r7, [r12]
005C1C9C  1BC0     		sub r0, r0, r7

#216		{L:69}
(*) UDINT
005C1C9E  B082     		sub sp, sp, #8
005C1CA0  F8CD 0000		str r0, [sp]
005C1CA4  F8DF 74D0		ldr r7, [pc, #+1232] ; 0xC
005C1CA8  5BF0     		ldrh r0, [r6, +r7]

#217		{L:69}
(-) UINT
005C1CAA  1C80     		add r0, r0, #2

#218		{L:69}
(*) UINT
005C1CAC  4607     		mov r7, r0
005C1CAE  F8DD 0000		ldr r0, [sp]
005C1CB2  B002     		add sp, sp, #8
005C1CB4  42B8     		cmp r0, r7
005C1CB6  BF88 2000		himov r0, #0
005C1CBA  BF98 2001		lsmov r0, #1

#219		{L:69}
(-) BOOL
005C1CBE  2800     		cmp r0, #0
005C1CC0  D063     		beq #198 ; 0x005C1D8A


#220
#221
#222
#223
#224
#225		{L:74}
(*) UNDEF
005C1CC4  F8DF 74B4		ldr r7, [pc, #+1204] ; 0x14
005C1CC8  F856 C007		ldr r12, [r6, +r7]
005C1CCC  F8DC 0000		ldr r0, [r12]

#226		{L:74}
(-) UDINT
#227		{L:74}
(*) DINT
005C1CD0  F8DF 74C0		ldr r7, [pc, #+1216] ; 0x2C
005C1CD4  51F0     		str r0, [r6, +r7]

#228		{L:74}
(*) UNDEF
005C1CD6  F8DF 749C		ldr r7, [pc, #+1180] ; 0x8
005C1CDA  59F0     		ldr r0, [r6, +r7]

#229		{L:74}
(-) UDINT
005C1CDC  2200     		mov r2, #0 ; 0
005C1CDE  F8DF 74B4		ldr r7, [pc, #+1204] ; 0x2C
005C1CE2  59F1     		ldr r1, [r6, +r7]
005C1CE4  4600     		mov r0, r0
005C1CE6  F8DF 44C4		ldr r4, [pc, #+1220] ; 0x48F5D5
005C1CEA  F044 0401		orr r4, r4, #1
005C1CEE  47A0     		blx r4

#230		{L:74}
(*) DINT
005C1CF0  F04F 37FF		mov r7, #4294967295 ; 4294967295
005C1CF4  42B8     		cmp r0, r7
005C1CF6  BF18 2000		nemov r0, #0
005C1CFA  BF08 2001		eqmov r0, #1

#231		{L:74}
(-) BOOL
005C1CFE  2800     		cmp r0, #0
005C1D00  D01A     		beq #52 ; 0x005C1D38


#232
#233
#234
#235
#236		{L:74}
(*) BOOL
005C1D04  2001     		mov r0, #1 ; 1
005C1D06  F8DF 7484		ldr r7, [pc, #+1156] ; 0x24
005C1D0A  55F0     		strb r0, [r6, +r7]

#237
#238
#239		{L:74}
(*) UNDEF
005C1D0C  F8DF 7464		ldr r7, [pc, #+1124] ; 0x8
005C1D10  59F0     		ldr r0, [r6, +r7]

#240		{L:74}
(-) UDINT
005C1D12  4600     		mov r0, r0
005C1D14  F8DF 44A4		ldr r4, [pc, #+1188] ; 0x490A61
005C1D18  F044 0401		orr r4, r4, #1
005C1D1C  47A0     		blx r4

#241		{L:74}
(-) INT
005C1D1E  8030     		strh r0, [r6]

#242
#243
#244		{L:74}
(*) UNDEF
005C1D20  F8DF 74C4		ldr r7, [pc, #+1220] ; 0x5BA394
005C1D24  6838     		ldr r0, [r7]

#245		{L:74}
(-) UDINT
005C1D26  4600     		mov r0, r0
005C1D28  F8DF 4484		ldr r4, [pc, #+1156] ; 0x490561
005C1D2C  F044 0401		orr r4, r4, #1
005C1D30  47A0     		blx r4

#246		{L:74}
(-) BOOL
005C1D32  8030     		strh r0, [r6]

#247
#248
#249
#250
(-) BOOL
005C1D34  E219     		b #1074 ; 0x005C216A


#251
#252
#253
#254
#255		{L:75}
(-) UNDEF
005C1D38  20FF     		mov r0, #255 ; 255

#256		{L:75}
(-) USINT
#257		{L:75}
(*) INT
005C1D3A  F8DF 745C		ldr r7, [pc, #+1116] ; 0x30
005C1D3E  53F0     		strh r0, [r6, +r7]

#258		{L:75}
(*) UNDEF
005C1D40  F8DF 7454		ldr r7, [pc, #+1108] ; 0x30
005C1D44  5FF0     		ldrsh r0, [r6, +r7]

#259		{L:75}
(-) INT
005C1D46  F8DF 742C		ldr r7, [pc, #+1068] ; 0x8
005C1D4A  59F1     		ldr r1, [r6, +r7]
005C1D4C  4600     		mov r0, r0
005C1D4E  F8DF 4470		ldr r4, [pc, #+1136] ; 0x490B3D
005C1D52  F044 0401		orr r4, r4, #1
005C1D56  47A0     		blx r4

#260		{L:75}
(-) INT
005C1D58  8030     		strh r0, [r6]

#261
#262
#263		{L:76}
(-) UNDEF
005C1D5A  20FF     		mov r0, #255 ; 255

#264		{L:76}
(-) USINT
#265		{L:76}
(*) INT
005C1D5C  F8DF 7438		ldr r7, [pc, #+1080] ; 0x30
005C1D60  53F0     		strh r0, [r6, +r7]

#266		{L:76}
(*) UNDEF
005C1D62  F8DF 7434		ldr r7, [pc, #+1076] ; 0x30
005C1D66  5FF0     		ldrsh r0, [r6, +r7]

#267		{L:76}
(-) INT
005C1D68  F8DF 7408		ldr r7, [pc, #+1032] ; 0x8
005C1D6C  59F1     		ldr r1, [r6, +r7]
005C1D6E  4600     		mov r0, r0
005C1D70  F8DF 444C		ldr r4, [pc, #+1100] ; 0x490B3D
005C1D74  F044 0401		orr r4, r4, #1
005C1D78  47A0     		blx r4

#268		{L:76}
(-) INT
005C1D7A  8030     		strh r0, [r6]

#269
#270
#271		{L:77}
(*) INT
005C1D7C  2000     		mov r0, #0 ; 0
005C1D7E  F8DF 73FC		ldr r7, [pc, #+1020] ; 0x14
005C1D82  F856 C007		ldr r12, [r6, +r7]
005C1D86  F8CC 0000		str r0, [r12]

#272
#273
#274
#275
#276
#277
#278		{L:83}
(*) UNDEF
005C1D8A  F8DF 73F0		ldr r7, [pc, #+1008] ; 0x14
005C1D8E  F856 C007		ldr r12, [r6, +r7]
005C1D92  F8DC 0000		ldr r0, [r12]

#279		{L:83}
(-) UDINT
005C1D96  B084     		sub sp, sp, #16
005C1D98  F8DF 73EC		ldr r7, [pc, #+1004] ; 0x20
005C1D9C  F856 C007		ldr r12, [r6, +r7]
005C1DA0  F8DF 73F0		ldr r7, [pc, #+1008] ; 0x2C
005C1DA4  F85C 7007		ldr r7, [r12, +r7]
005C1DA8  F8CD 7008		str r7, [sp, #+8]
005C1DAC  F8DF 73CC		ldr r7, [pc, #+972] ; 0x14
005C1DB0  F856 C007		ldr r12, [r6, +r7]
005C1DB4  F8DF 73B8		ldr r7, [pc, #+952] ; 0x4
005C1DB8  F85C 7007		ldr r7, [r12, +r7]
005C1DBC  F8CD 7004		str r7, [sp, #+4]
005C1DC0  F8CD 0000		str r0, [sp]
005C1DC4  F8DF 4430		ldr r4, [pc, #+1072] ; 0x5C0030
005C1DC8  F044 0401		orr r4, r4, #1
005C1DCC  47A0     		blx r4
005C1DCE  B004     		add sp, sp, #16

#280		{L:83}
(*) UDINT
005C1DD0  F8DF 73BC		ldr r7, [pc, #+956] ; 0x28
005C1DD4  51F0     		str r0, [r6, +r7]

#281		{L:83}
(*) UNDEF
005C1DD6  F8DF 73A0		ldr r7, [pc, #+928] ; 0xC
005C1DDA  5BF0     		ldrh r0, [r6, +r7]

#282		{L:83}
(*) UINT
005C1DDC  F8DF 73B0		ldr r7, [pc, #+944] ; 0x28
005C1DE0  59F7     		ldr r7, [r6, +r7]
005C1DE2  42B8     		cmp r0, r7
005C1DE4  BF38 2000		lomov r0, #0
005C1DE8  BF28 2001		hsmov r0, #1

#283		{L:83}
(-) BOOL
005C1DEC  2800     		cmp r0, #0
005C1DEE  D01A     		beq #52 ; 0x005C1E26


#284
#285
#286
#287
#288		{L:83}
(*) BOOL
005C1DF2  2001     		mov r0, #1 ; 1
005C1DF4  F8DF 7394		ldr r7, [pc, #+916] ; 0x24
005C1DF8  55F0     		strb r0, [r6, +r7]

#289
#290
#291		{L:83}
(*) UNDEF
005C1DFA  F8DF 7378		ldr r7, [pc, #+888] ; 0x8
005C1DFE  59F0     		ldr r0, [r6, +r7]

#292		{L:83}
(-) UDINT
005C1E00  4600     		mov r0, r0
005C1E02  F8DF 43B8		ldr r4, [pc, #+952] ; 0x490A61
005C1E06  F044 0401		orr r4, r4, #1
005C1E0A  47A0     		blx r4

#293		{L:83}
(-) INT
005C1E0C  8030     		strh r0, [r6]

#294
#295
#296		{L:83}
(*) UNDEF
005C1E0E  F8DF 73DC		ldr r7, [pc, #+988] ; 0x5BA398
005C1E12  6838     		ldr r0, [r7]

#297		{L:83}
(-) UDINT
005C1E14  4600     		mov r0, r0
005C1E16  F8DF 4398		ldr r4, [pc, #+920] ; 0x490561
005C1E1A  F044 0401		orr r4, r4, #1
005C1E1E  47A0     		blx r4

#298		{L:83}
(-) BOOL
005C1E20  8030     		strh r0, [r6]

#299
#300
#301
#302
(-) BOOL
005C1E22  E1A2     		b #836 ; 0x005C216A


#303
#304
#305
#306
#307
#308		{L:87}
(*) UNDEF
005C1E26  F8DF 7354		ldr r7, [pc, #+852] ; 0x14
005C1E2A  F856 C007		ldr r12, [r6, +r7]
005C1E2E  F8DC 0000		ldr r0, [r12]

#309		{L:87}
(-) UDINT
#310		{L:87}
(*) DINT
005C1E32  F8DF 7360		ldr r7, [pc, #+864] ; 0x2C
005C1E36  51F0     		str r0, [r6, +r7]

#311		{L:87}
(*) UNDEF
005C1E38  F8DF 7338		ldr r7, [pc, #+824] ; 0x8
005C1E3C  59F0     		ldr r0, [r6, +r7]

#312		{L:87}
(-) UDINT
005C1E3E  2200     		mov r2, #0 ; 0
005C1E40  F8DF 7350		ldr r7, [pc, #+848] ; 0x2C
005C1E44  59F1     		ldr r1, [r6, +r7]
005C1E46  4600     		mov r0, r0
005C1E48  F8DF 4360		ldr r4, [pc, #+864] ; 0x48F5D5
005C1E4C  F044 0401		orr r4, r4, #1
005C1E50  47A0     		blx r4

#313		{L:87}
(*) DINT
005C1E52  F04F 37FF		mov r7, #4294967295 ; 4294967295
005C1E56  42B8     		cmp r0, r7
005C1E58  BF18 2000		nemov r0, #0
005C1E5C  BF08 2001		eqmov r0, #1

#314		{L:87}
(-) BOOL
005C1E60  2800     		cmp r0, #0
005C1E62  D01A     		beq #52 ; 0x005C1E9A


#315
#316
#317
#318
#319		{L:87}
(*) UNDEF
005C1E66  F8DF 730C		ldr r7, [pc, #+780] ; 0x8
005C1E6A  59F0     		ldr r0, [r6, +r7]

#320		{L:87}
(-) UDINT
005C1E6C  4600     		mov r0, r0
005C1E6E  F8DF 434C		ldr r4, [pc, #+844] ; 0x490A61
005C1E72  F044 0401		orr r4, r4, #1
005C1E76  47A0     		blx r4

#321		{L:87}
(-) INT
005C1E78  8030     		strh r0, [r6]

#322
#323
#324		{L:87}
(*) INT
005C1E7A  2001     		mov r0, #1 ; 1
005C1E7C  F8DF 730C		ldr r7, [pc, #+780] ; 0x24
005C1E80  55F0     		strb r0, [r6, +r7]

#325
#326
#327		{L:87}
(*) UNDEF
005C1E82  F8DF 736C		ldr r7, [pc, #+876] ; 0x5BA39C
005C1E86  6838     		ldr r0, [r7]

#328		{L:87}
(-) UDINT
005C1E88  4600     		mov r0, r0
005C1E8A  F8DF 4324		ldr r4, [pc, #+804] ; 0x490561
005C1E8E  F044 0401		orr r4, r4, #1
005C1E92  47A0     		blx r4

#329		{L:87}
(-) BOOL
005C1E94  8030     		strh r0, [r6]

#330
#331
#332
#333
(-) BOOL
005C1E96  E168     		b #720 ; 0x005C216A


#334
#335
#336
#337
#338		{L:91}
(*) UNDEF
005C1E9A  F8DF 72DC		ldr r7, [pc, #+732] ; 0xC
005C1E9E  5BF0     		ldrh r0, [r6, +r7]

#339		{L:91}
(*) UINT
005C1EA0  B082     		sub sp, sp, #8
005C1EA2  F8CD 1000		str r1, [sp]
005C1EA6  F44F 7180		mov r1, #256 ; 256
005C1EAA  FBB0 F0F1		udiv r0, r0, r1
005C1EAE  F8DD 1000		ldr r1, [sp]
005C1EB2  B002     		add sp, sp, #8

#340		{L:91}
(*) UINT
005C1EB4  F8DF 72E4		ldr r7, [pc, #+740] ; 0x32
005C1EB8  53F0     		strh r0, [r6, +r7]

#341		{L:91}
(*) UNDEF
005C1EBA  F8DF 72E0		ldr r7, [pc, #+736] ; 0x32
005C1EBE  5BF0     		ldrh r0, [r6, +r7]

#342		{L:91}
(-) UINT
#343		{L:91}
(*) INT
005C1EC0  F8DF 72D4		ldr r7, [pc, #+724] ; 0x30
005C1EC4  53F0     		strh r0, [r6, +r7]

#344		{L:91}
(*) UNDEF
005C1EC6  F8DF 72D0		ldr r7, [pc, #+720] ; 0x30
005C1ECA  5FF0     		ldrsh r0, [r6, +r7]

#345		{L:91}
(-) INT
005C1ECC  F8DF 72A4		ldr r7, [pc, #+676] ; 0x8
005C1ED0  59F1     		ldr r1, [r6, +r7]
005C1ED2  4600     		mov r0, r0
005C1ED4  F8DF 42E8		ldr r4, [pc, #+744] ; 0x490B3D
005C1ED8  F044 0401		orr r4, r4, #1
005C1EDC  47A0     		blx r4

#346		{L:91}
(-) INT
005C1EDE  8030     		strh r0, [r6]

#347
#348
#349		{L:92}
(*) UNDEF
005C1EE0  F8DF 7294		ldr r7, [pc, #+660] ; 0xC
005C1EE4  5BF0     		ldrh r0, [r6, +r7]

#350		{L:92}
(*) UINT
005C1EE6  27FF     		mov r7, #255 ; 255
005C1EE8  4038     		and r0, r0, r7

#351		{L:92}
(*) UINT
005C1EEA  F8DF 72B0		ldr r7, [pc, #+688] ; 0x32
005C1EEE  53F0     		strh r0, [r6, +r7]

#352		{L:92}
(*) UNDEF
005C1EF0  F8DF 72A8		ldr r7, [pc, #+680] ; 0x32
005C1EF4  5BF0     		ldrh r0, [r6, +r7]

#353		{L:92}
(-) UINT
#354		{L:92}
(*) INT
005C1EF6  F8DF 72A0		ldr r7, [pc, #+672] ; 0x30
005C1EFA  53F0     		strh r0, [r6, +r7]

#355		{L:92}
(*) UNDEF
005C1EFC  F8DF 7298		ldr r7, [pc, #+664] ; 0x30
005C1F00  5FF0     		ldrsh r0, [r6, +r7]

#356		{L:92}
(-) INT
005C1F02  F8DF 7270		ldr r7, [pc, #+624] ; 0x8
005C1F06  59F1     		ldr r1, [r6, +r7]
005C1F08  4600     		mov r0, r0
005C1F0A  F8DF 42B4		ldr r4, [pc, #+692] ; 0x490B3D
005C1F0E  F044 0401		orr r4, r4, #1
005C1F12  47A0     		blx r4

#357		{L:92}
(-) INT
005C1F14  8030     		strh r0, [r6]

#358
#359
#360		{L:94}
(-) UNDEF
005C1F16  2000     		mov r0, #0 ; 0

#361		{L:94}
(-) USINT
#362		{L:94}
(*) INT
005C1F18  F8DF 727C		ldr r7, [pc, #+636] ; 0x30
005C1F1C  53F0     		strh r0, [r6, +r7]

#363		{L:94}
(*) UNDEF
005C1F1E  F8DF 7278		ldr r7, [pc, #+632] ; 0x30
005C1F22  5FF0     		ldrsh r0, [r6, +r7]

#364		{L:94}
(-) INT
005C1F24  F8DF 724C		ldr r7, [pc, #+588] ; 0x8
005C1F28  59F1     		ldr r1, [r6, +r7]
005C1F2A  4600     		mov r0, r0
005C1F2C  F8DF 4290		ldr r4, [pc, #+656] ; 0x490B3D
005C1F30  F044 0401		orr r4, r4, #1
005C1F34  47A0     		blx r4

#365		{L:94}
(-) INT
005C1F36  8030     		strh r0, [r6]

#366
#367
#368		{L:95}
(-) UNDEF
005C1F38  2000     		mov r0, #0 ; 0

#369		{L:95}
(-) USINT
#370		{L:95}
(*) INT
005C1F3A  F8DF 725C		ldr r7, [pc, #+604] ; 0x30
005C1F3E  53F0     		strh r0, [r6, +r7]

#371		{L:95}
(*) UNDEF
005C1F40  F8DF 7254		ldr r7, [pc, #+596] ; 0x30
005C1F44  5FF0     		ldrsh r0, [r6, +r7]

#372		{L:95}
(-) INT
005C1F46  F8DF 722C		ldr r7, [pc, #+556] ; 0x8
005C1F4A  59F1     		ldr r1, [r6, +r7]
005C1F4C  4600     		mov r0, r0
005C1F4E  F8DF 4270		ldr r4, [pc, #+624] ; 0x490B3D
005C1F52  F044 0401		orr r4, r4, #1
005C1F56  47A0     		blx r4

#373		{L:95}
(-) INT
005C1F58  8030     		strh r0, [r6]

#374
#375
#376		{L:97}
(-) UNDEF
005C1F5A  2001     		mov r0, #1 ; 1

#377		{L:97}
(-) BOOL
005C1F5C  4600     		mov r0, r0
005C1F5E  F8DF 4254		ldr r4, [pc, #+596] ; 0x490671
005C1F62  F044 0401		orr r4, r4, #1
005C1F66  47A0     		blx r4

#378		{L:97}
(*) UDINT
005C1F68  F8DF 7214		ldr r7, [pc, #+532] ; 0x18
005C1F6C  51F0     		str r0, [r6, +r7]

#379
#380
#381		{L:98}
(*) UNDEF
005C1F6E  F8DF 7210		ldr r7, [pc, #+528] ; 0x18
005C1F72  59F0     		ldr r0, [r6, +r7]

#382		{L:98}
(*) UDINT
005C1F74  B082     		sub sp, sp, #8
005C1F76  F8CD 1000		str r1, [sp]
005C1F7A  F04F 7180		mov r1, #16777216 ; 16777216
005C1F7E  FBB0 F0F1		udiv r0, r0, r1
005C1F82  F8DD 1000		ldr r1, [sp]
005C1F86  B002     		add sp, sp, #8

#383		{L:98}
(*) UDINT
005C1F88  F8DF 7204		ldr r7, [pc, #+516] ; 0x28
005C1F8C  51F0     		str r0, [r6, +r7]

#384		{L:98}
(*) UNDEF
005C1F8E  F8DF 7200		ldr r7, [pc, #+512] ; 0x28
005C1F92  59F0     		ldr r0, [r6, +r7]

#385		{L:98}
(-) UDINT
#386		{L:98}
(*) INT
005C1F94  F8DF 7200		ldr r7, [pc, #+512] ; 0x30
005C1F98  53F0     		strh r0, [r6, +r7]

#387		{L:98}
(*) UNDEF
005C1F9A  F8DF 71FC		ldr r7, [pc, #+508] ; 0x30
005C1F9E  5FF0     		ldrsh r0, [r6, +r7]

#388		{L:98}
(-) INT
005C1FA0  F8DF 71D0		ldr r7, [pc, #+464] ; 0x8
005C1FA4  59F1     		ldr r1, [r6, +r7]
005C1FA6  4600     		mov r0, r0
005C1FA8  F8DF 4214		ldr r4, [pc, #+532] ; 0x490B3D
005C1FAC  F044 0401		orr r4, r4, #1
005C1FB0  47A0     		blx r4

#389		{L:98}
(-) INT
005C1FB2  8030     		strh r0, [r6]

#390
#391
#392		{L:99}
(*) UNDEF
005C1FB4  F8DF 71C8		ldr r7, [pc, #+456] ; 0x18
005C1FB8  59F0     		ldr r0, [r6, +r7]

#393		{L:99}
(*) UDINT
005C1FBA  B082     		sub sp, sp, #8
005C1FBC  F8CD 1000		str r1, [sp]
005C1FC0  F44F 3180		mov r1, #65536 ; 65536
005C1FC4  FBB0 F0F1		udiv r0, r0, r1
005C1FC8  F8DD 1000		ldr r1, [sp]
005C1FCC  B002     		add sp, sp, #8

#394		{L:99}
(*) UDINT
005C1FCE  F8DF 71C0		ldr r7, [pc, #+448] ; 0x28
005C1FD2  51F0     		str r0, [r6, +r7]

#395		{L:99}
(*) UNDEF
005C1FD4  F8DF 71B8		ldr r7, [pc, #+440] ; 0x28
005C1FD8  59F0     		ldr r0, [r6, +r7]

#396		{L:99}
(-) UDINT
#397		{L:99}
(*) INT
005C1FDA  F8DF 71BC		ldr r7, [pc, #+444] ; 0x30
005C1FDE  53F0     		strh r0, [r6, +r7]

#398		{L:99}
(*) UNDEF
005C1FE0  F8DF 71B4		ldr r7, [pc, #+436] ; 0x30
005C1FE4  5FF0     		ldrsh r0, [r6, +r7]

#399		{L:99}
(-) INT
005C1FE6  F8DF 718C		ldr r7, [pc, #+396] ; 0x8
005C1FEA  59F1     		ldr r1, [r6, +r7]
005C1FEC  4600     		mov r0, r0
005C1FEE  F8DF 41D0		ldr r4, [pc, #+464] ; 0x490B3D
005C1FF2  F044 0401		orr r4, r4, #1
005C1FF6  47A0     		blx r4

#400		{L:99}
(-) INT
005C1FF8  8030     		strh r0, [r6]

#401
#402
#403		{L:100}
(*) UNDEF
005C1FFA  F8DF 7184		ldr r7, [pc, #+388] ; 0x18
005C1FFE  59F0     		ldr r0, [r6, +r7]

#404		{L:100}
(*) UDINT
005C2000  B082     		sub sp, sp, #8
005C2002  F8CD 1000		str r1, [sp]
005C2006  F44F 7180		mov r1, #256 ; 256
005C200A  FBB0 F0F1		udiv r0, r0, r1
005C200E  F8DD 1000		ldr r1, [sp]
005C2012  B002     		add sp, sp, #8

#405		{L:100}
(*) UDINT
005C2014  F8DF 7178		ldr r7, [pc, #+376] ; 0x28
005C2018  51F0     		str r0, [r6, +r7]

#406		{L:100}
(*) UNDEF
005C201A  F8DF 7174		ldr r7, [pc, #+372] ; 0x28
005C201E  59F0     		ldr r0, [r6, +r7]

#407		{L:100}
(-) UDINT
#408		{L:100}
(*) INT
005C2020  F8DF 7174		ldr r7, [pc, #+372] ; 0x30
005C2024  53F0     		strh r0, [r6, +r7]

#409		{L:100}
(*) UNDEF
005C2026  F8DF 7170		ldr r7, [pc, #+368] ; 0x30
005C202A  5FF0     		ldrsh r0, [r6, +r7]

#410		{L:100}
(-) INT
005C202C  F8DF 7144		ldr r7, [pc, #+324] ; 0x8
005C2030  59F1     		ldr r1, [r6, +r7]
005C2032  4600     		mov r0, r0
005C2034  F8DF 4188		ldr r4, [pc, #+392] ; 0x490B3D
005C2038  F044 0401		orr r4, r4, #1
005C203C  47A0     		blx r4

#411		{L:100}
(-) INT
005C203E  8030     		strh r0, [r6]

#412
#413
#414		{L:101}
(*) UNDEF
005C2040  F8DF 713C		ldr r7, [pc, #+316] ; 0x18
005C2044  59F0     		ldr r0, [r6, +r7]

#415		{L:101}
(*) UDINT
005C2046  27FF     		mov r7, #255 ; 255
005C2048  4038     		and r0, r0, r7

#416		{L:101}
(*) UDINT
005C204A  F8DF 7144		ldr r7, [pc, #+324] ; 0x28
005C204E  51F0     		str r0, [r6, +r7]

#417		{L:101}
(*) UNDEF
005C2050  F8DF 713C		ldr r7, [pc, #+316] ; 0x28
005C2054  59F0     		ldr r0, [r6, +r7]

#418		{L:101}
(-) UDINT
#419		{L:101}
(*) INT
005C2056  F8DF 7140		ldr r7, [pc, #+320] ; 0x30
005C205A  53F0     		strh r0, [r6, +r7]

#420		{L:101}
(*) UNDEF
005C205C  F8DF 7138		ldr r7, [pc, #+312] ; 0x30
005C2060  5FF0     		ldrsh r0, [r6, +r7]

#421		{L:101}
(-) INT
005C2062  F8DF 7110		ldr r7, [pc, #+272] ; 0x8
005C2066  59F1     		ldr r1, [r6, +r7]
005C2068  4600     		mov r0, r0
005C206A  F8DF 4154		ldr r4, [pc, #+340] ; 0x490B3D
005C206E  F044 0401		orr r4, r4, #1
005C2072  47A0     		blx r4

#422		{L:101}
(-) INT
005C2074  8030     		strh r0, [r6]

#423
#424
#425
#426		{L:105}
(*) UNDEF
005C2076  F8DF 7100		ldr r7, [pc, #+256] ; 0xC
005C207A  5BF0     		ldrh r0, [r6, +r7]

#427		{L:105}
(-) UINT
005C207C  3808     		sub r0, r0, #8

#428		{L:105}
(*) UINT
005C207E  F8DF 711C		ldr r7, [pc, #+284] ; 0x32
005C2082  53F0     		strh r0, [r6, +r7]

#429		{L:105}
(*) UNDEF
005C2084  F8DF 7114		ldr r7, [pc, #+276] ; 0x32
005C2088  5BF0     		ldrh r0, [r6, +r7]

#430		{L:105}
(-) UINT
#431		{L:105}
(*) INT
005C208A  F8DF 710C		ldr r7, [pc, #+268] ; 0x30
005C208E  53F0     		strh r0, [r6, +r7]

#432		{L:105}
(*) UNDEF
005C2090  F8DF 70F0		ldr r7, [pc, #+240] ; 0x1C
005C2094  59F0     		ldr r0, [r6, +r7]

#433		{L:105}
(-) @BYTE
005C2096  F8DF 70DC		ldr r7, [pc, #+220] ; 0x8
005C209A  59F3     		ldr r3, [r6, +r7]
005C209C  2201     		mov r2, #1 ; 1
005C209E  F8DF 70F8		ldr r7, [pc, #+248] ; 0x30
005C20A2  5FF1     		ldrsh r1, [r6, +r7]
005C20A4  4600     		mov r0, r0
005C20A6  F8DF 411C		ldr r4, [pc, #+284] ; 0x490C01
005C20AA  F044 0401		orr r4, r4, #1
005C20AE  47A0     		blx r4

#434		{L:105}
(*) INT
005C20B0  F8DF 70EC		ldr r7, [pc, #+236] ; 0x34
005C20B4  53F0     		strh r0, [r6, +r7]

#435		{L:105}
(*) UNDEF
005C20B6  F8DF 70C0		ldr r7, [pc, #+192] ; 0xC
005C20BA  5BF0     		ldrh r0, [r6, +r7]

#436		{L:105}
(-) UINT
005C20BC  3808     		sub r0, r0, #8

#437		{L:105}
(*) UINT
005C20BE  F8DF 70E4		ldr r7, [pc, #+228] ; 0x36
005C20C2  53F0     		strh r0, [r6, +r7]

#438		{L:105}
(*) UNDEF
005C20C4  F8DF 70DC		ldr r7, [pc, #+220] ; 0x36
005C20C8  5BF0     		ldrh r0, [r6, +r7]

#439		{L:105}
(-) UINT
#440		{L:105}
(*) INT
005C20CA  F8DF 70DC		ldr r7, [pc, #+220] ; 0x38
005C20CE  53F0     		strh r0, [r6, +r7]

#441		{L:105}
(*) UNDEF
005C20D0  F8DF 70CC		ldr r7, [pc, #+204] ; 0x34
005C20D4  5FF0     		ldrsh r0, [r6, +r7]

#442		{L:105}
(*) INT
005C20D6  F8DF 70D0		ldr r7, [pc, #+208] ; 0x38
005C20DA  5FF7     		ldrsh r7, [r6, +r7]
005C20DC  42B8     		cmp r0, r7
005C20DE  BF08 2000		eqmov r0, #0
005C20E2  BF18 2001		nemov r0, #1

#443		{L:105}
(-) BOOL
005C20E6  2800     		cmp r0, #0
005C20E8  D01A     		beq #52 ; 0x005C2120


#444
#445
#446
#447
#448		{L:105}
(*) BOOL
005C20EC  2001     		mov r0, #1 ; 1
005C20EE  F8DF 709C		ldr r7, [pc, #+156] ; 0x24
005C20F2  55F0     		strb r0, [r6, +r7]

#449
#450
#451		{L:105}
(*) UNDEF
005C20F4  F8DF 707C		ldr r7, [pc, #+124] ; 0x8
005C20F8  59F0     		ldr r0, [r6, +r7]

#452		{L:105}
(-) UDINT
005C20FA  4600     		mov r0, r0
005C20FC  F8DF 40BC		ldr r4, [pc, #+188] ; 0x490A61
005C2100  F044 0401		orr r4, r4, #1
005C2104  47A0     		blx r4

#453		{L:105}
(-) INT
005C2106  8030     		strh r0, [r6]

#454
#455
#456		{L:105}
(*) UNDEF
005C2108  F8DF 70E8		ldr r7, [pc, #+232] ; 0x5BA3A0
005C210C  6838     		ldr r0, [r7]

#457		{L:105}
(-) UDINT
005C210E  4600     		mov r0, r0
005C2110  F8DF 409C		ldr r4, [pc, #+156] ; 0x490561
005C2114  F044 0401		orr r4, r4, #1
005C2118  47A0     		blx r4

#458		{L:105}
(-) BOOL
005C211A  8030     		strh r0, [r6]

#459
#460
#461
#462
(-) BOOL
005C211C  E025     		b #74 ; 0x005C216A


#463
#464
#465
#466
#467		{L:106}
(*) BOOL
005C2120  F8DF 7064		ldr r7, [pc, #+100] ; 0x20
005C2124  F856 C007		ldr r12, [r6, +r7]
005C2128  F8DF 7044		ldr r7, [pc, #+68] ; 0x4
005C212C  F85C 0007		ldr r0, [r12, +r7]
005C2130  F8DF 7048		ldr r7, [pc, #+72] ; 0x14
005C2134  51F0     		str r0, [r6, +r7]

#468
#469
#470		{L:107}
(*) UNDEF
005C2136  F8DF 7044		ldr r7, [pc, #+68] ; 0x14
005C213A  F856 C007		ldr r12, [r6, +r7]
005C213E  F8DC 0000		ldr r0, [r12]

#471		{L:107}
(*) UDINT
005C2142  F8DF 7034		ldr r7, [pc, #+52] ; 0xC
005C2146  5BF7     		ldrh r7, [r6, +r7]
005C2148  19C0     		add r0, r0, r7

#472		{L:107}
(*) UDINT
005C214A  F8DF 7030		ldr r7, [pc, #+48] ; 0x14
005C214E  F856 C007		ldr r12, [r6, +r7]
005C2152  F8CC 0000		str r0, [r12]

#473
#474
#475		{L:108}
(*) UNDEF
005C2156  F8DF 701C		ldr r7, [pc, #+28] ; 0x8
005C215A  59F0     		ldr r0, [r6, +r7]

#476		{L:108}
(-) UDINT
005C215C  4600     		mov r0, r0
005C215E  F8DF 405C		ldr r4, [pc, #+92] ; 0x490A61
005C2162  F044 0401		orr r4, r4, #1
005C2166  47A0     		blx r4

#477		{L:108}
(-) INT
005C2168  8030     		strh r0, [r6]

005C216A  E8BD 4040		ldmia sp!, { r6, lr }

005C216E  4770     		bx lr

005C2170  00000004		; 0x00000004
005C2174  00000008		; 0x00000008
005C2178  0000000C		; 0x0000000C
005C217C  00000014		; 0x00000014
005C2180  00000018		; 0x00000018
005C2184  0000001C		; 0x0000001C
005C2188  00000020		; 0x00000020
005C218C  00000024		; 0x00000024
005C2190  00000028		; 0x00000028
005C2194  0000002C		; 0x0000002C
005C2198  00000030		; 0x00000030
005C219C  00000032		; 0x00000032
005C21A0  00000034		; 0x00000034
005C21A4  00000036		; 0x00000036
005C21A8  00000038		; 0x00000038
005C21AC  0048F5D5		; 0x0048F5D5
005C21B0  00490561		; 0x00490561
005C21B4  00490671		; 0x00490671
005C21B8  004909FD		; 0x004909FD
005C21BC  00490A61		; 0x00490A61
005C21C0  00490B3D		; 0x00490B3D
005C21C4  00490C01		; 0x00490C01
005C21C8  005BA33A		; 0x005BA33A
005C21CC  005BA378		; 0x005BA378
005C21D0  005BA37C		; 0x005BA37C
005C21D4  005BA380		; 0x005BA380
005C21D8  005BA384		; 0x005BA384
005C21DC  005BA388		; 0x005BA388
005C21E0  005BA38C		; 0x005BA38C
005C21E4  005BA390		; 0x005BA390
005C21E8  005BA394		; 0x005BA394
005C21EC  005BA398		; 0x005BA398
005C21F0  005BA39C		; 0x005BA39C
005C21F4  005BA3A0		; 0x005BA3A0
005C21F8  005C0030		; 0x005C0030
005C21FC  20412E8C		; 0x20412E8C


Frame allocation:

	0000       : VAR i
	0004       : VAR USPtr
	0008       : VAR Fp
	000C       : VAR Length
	0010       : VAR UDPtr
	0014       : STRU RsBPtr
	0018       : VAR UTCTime
	001C       : VAR Add
	0020       : STRU RSvID
	0024 bit  0: VAR Fault

END_FUNCTION_BLOCK
**************************************************
	List program: RESTSvcMng
**************************************************

PROGRAM RESTSvcMng

        VAR
REST : RESTWSvcClient;	{ DE:"REST service FB" }
i : INT;	{ DE:"Auxiliary counter" }
RESTSBf : STRING[ 256 ];	{ DE:"REST Send buffer" }
FileOk : USINT;	{ DE:"INI file on cloud is Ok" }
UTCDateTime : UDINT;	{ DE:"UTC Date/Time" }
DSCmd : BOOL;	{ DE:"Debug send command" }
RESTSend : RESTSendFct;	{ DE:"REST send function" }
RESTSvBck : RESTSERVICEBACKUP;	{ DE:"REST service backup data" }
	END_VAR

END_PROGRAM

005C2200  E92D 4DF0		stmdb sp!, { r4, r5, r6, r7, r8, r10, fp, lr }

#0		{SRC:RESTSvcMng}
#1
#2
#3
#4
#5		{L:12}
(*) UNDEF
005C2204  F8DF 737C		ldr r7, [pc, #+892] ; 0x20412E51
005C2208  7838     		ldrb r0, [r7]

#6		{L:12}
(-) BOOL
005C220A  2800     		cmp r0, #0
005C220C  D041     		beq #130 ; 0x005C2292


#7
#8
#9
#10
#11		{L:13}
(*) BOOL
005C2210  2001     		mov r0, #1 ; 1
005C2212  F8DF 7304		ldr r7, [pc, #+772] ; 0x20410FBF
005C2216  7038     		strb r0, [r7]

#12
#13
#14		{L:14}
(*) BOOL
005C2218  F8DF 0330		ldr r0, [pc, #+816] ; 0x2041104C

#15		{L:14}
(*) DWORD
005C221C  F8DF 730C		ldr r7, [pc, #+780] ; 0x20410FEC
005C2220  6038     		str r0, [r7]

#16
#17
#18		{L:15}
(*) DWORD
005C2222  F8DF 72AC		ldr r7, [pc, #+684] ; 0x5BA590
005C2226  4638     		mov r0, r7
005C2228  B082     		sub sp, sp, #8
005C222A  F8CD 0000		str r0, [sp]
005C222E  E92D 0006		stmdb sp!, { r1, r2 }
005C2232  2221     		mov r2, #33 ; 33
005C2234  F8DF 12EC		ldr r1, [pc, #+748] ; 0x20410FC4
005C2238  F8DF 4290		ldr r4, [pc, #+656] ; 0x4A46DD
005C223C  F044 0401		orr r4, r4, #1
005C2240  47A0     		blx r4
005C2242  E8BD 0006		ldmia sp!, { r1, r2 }
005C2246  F8DD 0000		ldr r0, [sp]
005C224A  B002     		add sp, sp, #8

#19
#20
#21		{L:16}
(*) STRING
005C224C  F8DF 7284		ldr r7, [pc, #+644] ; 0x5BA5A2
005C2250  8838     		ldrh r0, [r7]
005C2252  F8DF 72D4		ldr r7, [pc, #+724] ; 0x20410FE8
005C2256  6038     		str r0, [r7]

#22
#23
#24		{L:18}
(*) UINT
005C2258  F8DF 027C		ldr r0, [pc, #+636] ; 0x5BA5A4

#25		{L:18}
(*) DWORD
005C225C  F8DF 72D0		ldr r7, [pc, #+720] ; 0x20410FF0
005C2260  6038     		str r0, [r7]

#26
#27
#28		{L:19}
(*) DWORD
005C2262  F8DF 72CC		ldr r7, [pc, #+716] ; 0x20410FF0
005C2266  6838     		ldr r0, [r7]
005C2268  F8DF 72C8		ldr r7, [pc, #+712] ; 0x20410FF4
005C226C  6038     		str r0, [r7]

#29
#30
#31		{L:20}
(*) @USINT
005C226E  F8DF 026C		ldr r0, [pc, #+620] ; 0x5BA5C0

#32		{L:20}
(*) DWORD
005C2272  F8DF 72CC		ldr r7, [pc, #+716] ; 0x20411000
005C2276  6038     		str r0, [r7]

#33
#34
#35		{L:21}
(*) DWORD
005C2278  2050     		mov r0, #80 ; 80
005C227A  F8DF 72BC		ldr r7, [pc, #+700] ; 0x20410FF8
005C227E  8038     		strh r0, [r7]

#36
#37
#38		{L:23}
(*) UINT
005C2280  2005     		mov r0, #5 ; 5
005C2282  F8DF 729C		ldr r7, [pc, #+668] ; 0x20410FC2
005C2286  8038     		strh r0, [r7]

#39
#40
#41		{L:24}
(*) UINT
005C2288  F44F 7000		mov r0, #512 ; 512
005C228C  F8DF 72AC		ldr r7, [pc, #+684] ; 0x20410FFC
005C2290  6038     		str r0, [r7]

#42
#43
#44
#45
#46
#47		{L:32}
(*) UDINT
005C2292  2001     		mov r0, #1 ; 1
005C2294  F8DF 7278		ldr r7, [pc, #+632] ; 0x20410FBD
005C2298  7038     		strb r0, [r7]

#48		{L:32}
(*) BOOL
005C229A  E92D 0021		stmdb sp!, { r0, r5 }
005C229E  F8DF 726C		ldr r7, [pc, #+620] ; 0x20410E34
005C22A2  463D     		mov r5, r7
005C22A4  F8DF 425C		ldr r4, [pc, #+604] ; 0x5C00A0
005C22A8  F044 0401		orr r4, r4, #1
005C22AC  47A0     		blx r4
005C22AE  E8BD 0021		ldmia sp!, { r0, r5 }

#49
#50
#51		{L:33}
(*) BOOL
005C22B2  F8DF 7294		ldr r7, [pc, #+660] ; 0x2041100C
005C22B6  6838     		ldr r0, [r7]
005C22B8  F8DF 729C		ldr r7, [pc, #+668] ; 0x20411074
005C22BC  6038     		str r0, [r7]

#52		{L:33}
(*) @RESTSERVICEBACKUP
005C22BE  2000     		mov r0, #0 ; 0
005C22C0  F8DF 7290		ldr r7, [pc, #+656] ; 0x20411070
005C22C4  6038     		str r0, [r7]

#53		{L:33}
(*) @BYTE
005C22C6  E92D 0021		stmdb sp!, { r0, r5 }
005C22CA  F8DF 7284		ldr r7, [pc, #+644] ; 0x20411054
005C22CE  463D     		mov r5, r7
005C22D0  F8DF 4234		ldr r4, [pc, #+564] ; 0x5C19D0
005C22D4  F044 0401		orr r4, r4, #1
005C22D8  47A0     		blx r4
005C22DA  E8BD 0021		ldmia sp!, { r0, r5 }

#54
#55
#56		{L:34}
(*) @BYTE
005C22DE  2000     		mov r0, #0 ; 0
005C22E0  F8DF 7230		ldr r7, [pc, #+560] ; 0x20410FBE
005C22E4  7038     		strb r0, [r7]

#57
#58
#59
#60		{L:41}
(-) UNDEF
005C22E6  2001     		mov r0, #1 ; 1

#61		{L:41}
(-) BOOL
005C22E8  4600     		mov r0, r0
005C22EA  F8DF 41DC		ldr r4, [pc, #+476] ; 0x490671
005C22EE  F044 0401		orr r4, r4, #1
005C22F2  47A0     		blx r4

#62		{L:41}
(*) UDINT
005C22F4  F8DF 7264		ldr r7, [pc, #+612] ; 0x20411090
005C22F8  683F     		ldr r7, [r7]
005C22FA  42B8     		cmp r0, r7
005C22FC  BF08 2000		eqmov r0, #0
005C2300  BF18 2001		nemov r0, #1

#63		{L:41}
(-) BOOL
005C2304  2800     		cmp r0, #0
005C2306  F000 80C4		beq #392 ; 0x005C2492


#64
#65
#66
#67
#68		{L:42}
(-) UNDEF
005C230A  2001     		mov r0, #1 ; 1

#69		{L:42}
(-) BOOL
005C230C  4600     		mov r0, r0
005C230E  F8DF 41B8		ldr r4, [pc, #+440] ; 0x490671
005C2312  F044 0401		orr r4, r4, #1
005C2316  47A0     		blx r4

#70		{L:42}
(*) UDINT
005C2318  F8DF 7240		ldr r7, [pc, #+576] ; 0x20411090
005C231C  6038     		str r0, [r7]

#71
#72
#73
#74		{L:43}
(*) UNDEF
005C231E  F8DF 723C		ldr r7, [pc, #+572] ; 0x20411090
005C2322  6838     		ldr r0, [r7]

#75		{L:43}
(*) UDINT
005C2324  213C     		mov r1, #60 ; 60
005C2326  F8DF 41D8		ldr r4, [pc, #+472] ; 0x5BA66C
005C232A  F044 0401		orr r4, r4, #1
005C232E  47A0     		blx r4

#76		{L:43}
(*) UDINT
005C2330  2800     		cmp r0, #0
005C2332  BF18 2000		nemov r0, #0
005C2336  BF08 2001		eqmov r0, #1

#77		{L:43}
(*) BOOL
005C233A  F8DF 7224		ldr r7, [pc, #+548] ; 0x20411094
005C233E  783F     		ldrb r7, [r7]
005C2340  4338     		orr r0, r0, r7

#78		{L:43}
(-) BOOL
005C2342  2800     		cmp r0, #0
005C2344  F000 80A5		beq #330 ; 0x005C2492


#79
#80
#81
#82
#83		{L:44}
(*) BOOL
005C2348  2000     		mov r0, #0 ; 0
005C234A  F8DF 7214		ldr r7, [pc, #+532] ; 0x20411094
005C234E  7038     		strb r0, [r7]

#84
#85
#86		{L:48}
(*) BOOL
005C2350  F8DF 0210		ldr r0, [pc, #+528] ; 0x20411095

#87		{L:48}
(*) DWORD
005C2354  F8DF 7214		ldr r7, [pc, #+532] ; 0x20411198
005C2358  6038     		str r0, [r7]

#88		{L:48}
(*) DWORD
005C235A  F8DF 0214		ldr r0, [pc, #+532] ; 0x2041119C

#89		{L:48}
(*) DWORD
005C235E  F8DF 7214		ldr r7, [pc, #+532] ; 0x204111A0
005C2362  6038     		str r0, [r7]

#90		{L:48}
(*) UNDEF
005C2364  F8DF 7204		ldr r7, [pc, #+516] ; 0x20411198
005C2368  6838     		ldr r0, [r7]

#91		{"Frequency":"%.1f", ', REAL_TYPE, $$TMP1	{L:48}
(-) @UNDEF
005C236A  B082     		sub sp, sp, #8
005C236C  F8DF 7204		ldr r7, [pc, #+516] ; 0x204111A0
005C2370  683F     		ldr r7, [r7]
005C2372  F8CD 7000		str r7, [sp]
005C2376  232B     		mov r3, #43 ; 43
005C2378  F8DF 7164		ldr r7, [pc, #+356] ; 0x5BA5E4
005C237C  463A     		mov r2, r7
005C237E  F8DF 7170		ldr r7, [pc, #+368] ; 0x5BA644
005C2382  6839     		ldr r1, [r7]
005C2384  4600     		mov r0, r0
005C2386  F8DF 4138		ldr r4, [pc, #+312] ; 0x48F96D
005C238A  F044 0401		orr r4, r4, #1
005C238E  47A0     		blx r4
005C2390  B002     		add sp, sp, #8

#92		{L:48}
(*) INT
005C2392  F8DF 71D4		ldr r7, [pc, #+468] ; 0x20411196
005C2396  8038     		strh r0, [r7]

#93
#94
#95		{L:49}
(*) INT
005C2398  F8DF 01C8		ldr r0, [pc, #+456] ; 0x20411095

#96		{L:49}
(*) DWORD
005C239C  F8DF 71CC		ldr r7, [pc, #+460] ; 0x20411198
005C23A0  6038     		str r0, [r7]

#97		{L:49}
(*) DWORD
005C23A2  F8DF 01D4		ldr r0, [pc, #+468] ; 0x204111A4

#98		{L:49}
(*) DWORD
005C23A6  F8DF 71CC		ldr r7, [pc, #+460] ; 0x204111A0
005C23AA  6038     		str r0, [r7]

#99		{L:49}
(*) UNDEF
005C23AC  F8DF 71BC		ldr r7, [pc, #+444] ; 0x20411198
005C23B0  6838     		ldr r0, [r7]

#100		{L:49}
(-) @UNDEF
005C23B2  B082     		sub sp, sp, #8
005C23B4  F8DF 71BC		ldr r7, [pc, #+444] ; 0x204111A0
005C23B8  683F     		ldr r7, [r7]
005C23BA  F8CD 7000		str r7, [sp]
005C23BE  232B     		mov r3, #43 ; 43
005C23C0  F8DF 7120		ldr r7, [pc, #+288] ; 0x5BA5FC
005C23C4  463A     		mov r2, r7
005C23C6  F8DF 712C		ldr r7, [pc, #+300] ; 0x5BA648
005C23CA  6839     		ldr r1, [r7]
005C23CC  4600     		mov r0, r0
005C23CE  F8DF 40F4		ldr r4, [pc, #+244] ; 0x48FB19
005C23D2  F044 0401		orr r4, r4, #1
005C23D6  47A0     		blx r4
005C23D8  B002     		add sp, sp, #8

#101		{L:49}
(*) INT
005C23DA  F8DF 718C		ldr r7, [pc, #+396] ; 0x20411196
005C23DE  8038     		strh r0, [r7]

#102
#103
#104		{L:50}
(*) INT
005C23E0  F8DF 0180		ldr r0, [pc, #+384] ; 0x20411095

#105		{L:50}
(*) DWORD
005C23E4  F8DF 7184		ldr r7, [pc, #+388] ; 0x20411198
005C23E8  6038     		str r0, [r7]

#106		{L:50}
(*) DWORD
005C23EA  F8DF 0190		ldr r0, [pc, #+400] ; 0x204111A8

#107		{L:50}
(*) DWORD
005C23EE  F8DF 7184		ldr r7, [pc, #+388] ; 0x204111A0
005C23F2  6038     		str r0, [r7]

#108		{L:50}
(*) UNDEF
005C23F4  F8DF 7174		ldr r7, [pc, #+372] ; 0x20411198
005C23F8  6838     		ldr r0, [r7]

#109		{L:50}
(-) @UNDEF
005C23FA  B082     		sub sp, sp, #8
005C23FC  F8DF 7174		ldr r7, [pc, #+372] ; 0x204111A0
005C2400  683F     		ldr r7, [r7]
005C2402  F8CD 7000		str r7, [sp]
005C2406  232B     		mov r3, #43 ; 43
005C2408  F8DF 70DC		ldr r7, [pc, #+220] ; 0x5BA610
005C240C  463A     		mov r2, r7
005C240E  F8DF 70E8		ldr r7, [pc, #+232] ; 0x5BA64C
005C2412  6839     		ldr r1, [r7]
005C2414  4600     		mov r0, r0
005C2416  F8DF 40AC		ldr r4, [pc, #+172] ; 0x48FB19
005C241A  F044 0401		orr r4, r4, #1
005C241E  47A0     		blx r4
005C2420  B002     		add sp, sp, #8

#110		{L:50}
(*) INT
005C2422  F8DF 7144		ldr r7, [pc, #+324] ; 0x20411196
005C2426  8038     		strh r0, [r7]

#111
#112
#113		{L:51}
(*) INT
005C2428  F8DF 0138		ldr r0, [pc, #+312] ; 0x20411095

#114		{L:51}
(*) DWORD
005C242C  F8DF 713C		ldr r7, [pc, #+316] ; 0x20411198
005C2430  6038     		str r0, [r7]

#115		{L:51}
(*) DWORD
005C2432  F8DF 014C		ldr r0, [pc, #+332] ; 0x204111AC

#116		{L:51}
(*) DWORD
005C2436  F8DF 713C		ldr r7, [pc, #+316] ; 0x204111A0
005C243A  6038     		str r0, [r7]

#117		{L:51}
(*) UNDEF
005C243C  F8DF 712C		ldr r7, [pc, #+300] ; 0x20411198
005C2440  6838     		ldr r0, [r7]

#118		{L:51}
(-) @UNDEF
005C2442  B082     		sub sp, sp, #8
005C2444  F8DF 712C		ldr r7, [pc, #+300] ; 0x204111A0
005C2448  683F     		ldr r7, [r7]
005C244A  F8CD 7000		str r7, [sp]
005C244E  232B     		mov r3, #43 ; 43
005C2450  F8DF 7098		ldr r7, [pc, #+152] ; 0x5BA624
005C2454  463A     		mov r2, r7
005C2456  F8DF 70A4		ldr r7, [pc, #+164] ; 0x5BA650
005C245A  6839     		ldr r1, [r7]
005C245C  4600     		mov r0, r0
005C245E  F8DF 4064		ldr r4, [pc, #+100] ; 0x48FB19
005C2462  F044 0401		orr r4, r4, #1
005C2466  47A0     		blx r4
005C2468  B002     		add sp, sp, #8

#119		{L:51}
(*) INT
005C246A  F8DF 70FC		ldr r7, [pc, #+252] ; 0x20411196
005C246E  8038     		strh r0, [r7]

#120
#121
#122		{L:52}
(*) INT
005C2470  F8DF 00F0		ldr r0, [pc, #+240] ; 0x20411095

#123		{L:52}
(*) DWORD
005C2474  F8DF 70DC		ldr r7, [pc, #+220] ; 0x20411070
005C2478  6038     		str r0, [r7]

#124		{L:52}
(*) DWORD
005C247A  E92D 0021		stmdb sp!, { r0, r5 }
005C247E  F8DF 70D0		ldr r7, [pc, #+208] ; 0x20411054
005C2482  463D     		mov r5, r7
005C2484  F8DF 4080		ldr r4, [pc, #+128] ; 0x5C19D0
005C2488  F044 0401		orr r4, r4, #1
005C248C  47A0     		blx r4
005C248E  E8BD 0021		ldmia sp!, { r0, r5 }

#125
#126
#127
#128
#129
#130
#131
#132
#133
#134		{L:61}
(*) UNDEF
005C2492  F8DF 70B0		ldr r7, [pc, #+176] ; 0x20411006
005C2496  7838     		ldrb r0, [r7]

#135		{L:61}
(*) BOOL
005C2498  2800     		cmp r0, #0
005C249A  BF08 2001		eqmov r0, #1
005C249E  BF18 2000		nemov r0, #0

#136		{L:61}
(-) BOOL
005C24A2  2800     		cmp r0, #0
005C24A4  D002     		beq #4 ; 0x005C24AC


#137
#138
#139
#140
#141
#142
(-) BOOL
005C24A8  E008     		b #16 ; 0x005C24BC


#143
#144
#145
#146
#147		{L:62}
(*) BOOL
005C24AC  2001     		mov r0, #1 ; 1
005C24AE  F8DF 7064		ldr r7, [pc, #+100] ; 0x20410FBE
005C24B2  7038     		strb r0, [r7]

#148
#149
#150		{L:63}
(*) BOOL
005C24B4  2000     		mov r0, #0 ; 0
005C24B6  F8DF 7064		ldr r7, [pc, #+100] ; 0x20410FC0
005C24BA  7038     		strb r0, [r7]

005C24BC  E063     		b #198

005C24C0  0048F96D		; 0x0048F96D
005C24C4  0048FB19		; 0x0048FB19
005C24C8  00490671		; 0x00490671
005C24CC  004A46DD		; 0x004A46DD
005C24D0  005BA590		; 0x005BA590
005C24D4  005BA5A2		; 0x005BA5A2
005C24D8  005BA5A4		; 0x005BA5A4
005C24DC  005BA5C0		; 0x005BA5C0
005C24E0  005BA5E4		; 0x005BA5E4
005C24E4  005BA5FC		; 0x005BA5FC
005C24E8  005BA610		; 0x005BA610
005C24EC  005BA624		; 0x005BA624
005C24F0  005BA644		; 0x005BA644
005C24F4  005BA648		; 0x005BA648
005C24F8  005BA64C		; 0x005BA64C
005C24FC  005BA650		; 0x005BA650
005C2500  005BA66C		; 0x005BA66C
005C2504  005C00A0		; 0x005C00A0
005C2508  005C19D0		; 0x005C19D0
005C250C  20410E34		; 0x20410E34
005C2510  20410FBD		; 0x20410FBD
005C2514  20410FBE		; 0x20410FBE
005C2518  20410FBF		; 0x20410FBF
005C251C  20410FC0		; 0x20410FC0
005C2520  20410FC2		; 0x20410FC2
005C2524  20410FC4		; 0x20410FC4
005C2528  20410FE8		; 0x20410FE8
005C252C  20410FEC		; 0x20410FEC
005C2530  20410FF0		; 0x20410FF0
005C2534  20410FF4		; 0x20410FF4
005C2538  20410FF8		; 0x20410FF8
005C253C  20410FFC		; 0x20410FFC
005C2540  20411000		; 0x20411000
005C2544  20411006		; 0x20411006
005C2548  2041100C		; 0x2041100C
005C254C  2041104C		; 0x2041104C
005C2550  20411054		; 0x20411054
005C2554  20411070		; 0x20411070
005C2558  20411074		; 0x20411074
005C255C  20411090		; 0x20411090
005C2560  20411094		; 0x20411094
005C2564  20411095		; 0x20411095
005C2568  20411196		; 0x20411196
005C256C  20411198		; 0x20411198
005C2570  2041119C		; 0x2041119C
005C2574  204111A0		; 0x204111A0
005C2578  204111A4		; 0x204111A4
005C257C  204111A8		; 0x204111A8
005C2580  204111AC		; 0x204111AC
005C2584  20412E51		; 0x20412E51

END_PROGRAM
**************************************************
	List program: EastronMng
**************************************************

PROGRAM EastronMng

        VAR
Meter : EastronSDM120_v1;	{ DE:"SDM120 meter" }
Sport : SysSerialPort;	{ DE:"Serial port" }
MManager : ModbusMsCore;	{ DE:"Master modbus core" }
	END_VAR

END_PROGRAM

#0		{SRC:EastronMng}
#1
#2
#3
#4
#5
#6		{R:"1$O:24"}
(*) UDINT
005C2588  F8DF 01A4		ldr r0, [pc, #+420] ; 0x5BA638

#7		{R:"1$O:24"}
(*) DWORD
005C258C  F8DF 71CC		ldr r7, [pc, #+460] ; 0x204111BC
005C2590  6038     		str r0, [r7]

#8
#9
#10		{R:"1$FB:Sport"}
(*) DWORD
005C2592  2001     		mov r0, #1 ; 1
005C2594  F8DF 71C0		ldr r7, [pc, #+448] ; 0x204111B8
005C2598  7038     		strb r0, [r7]

#11		{R:"1$FB:Sport"}
(*) BOOL
005C259A  F44F 6016		mov r0, #2400 ; 2400
005C259E  F8DF 71C0		ldr r7, [pc, #+448] ; 0x204111C0
005C25A2  6038     		str r0, [r7]

#12		{R:"1$FB:Sport"}
(*) UDINT
005C25A4  F8DF 718C		ldr r7, [pc, #+396] ; 0x5BA63E
005C25A8  4638     		mov r0, r7
005C25AA  B082     		sub sp, sp, #8
005C25AC  F8CD 0000		str r0, [sp]
005C25B0  E92D 0006		stmdb sp!, { r1, r2 }
005C25B4  2202     		mov r2, #2 ; 2
005C25B6  F8DF 11AC		ldr r1, [pc, #+428] ; 0x204111C4
005C25BA  F8DF 4170		ldr r4, [pc, #+368] ; 0x4A46DD
005C25BE  F044 0401		orr r4, r4, #1
005C25C2  47A0     		blx r4
005C25C4  E8BD 0006		ldmia sp!, { r1, r2 }
005C25C8  F8DD 0000		ldr r0, [sp]
005C25CC  B002     		add sp, sp, #8

#13		{R:"1$FB:Sport"}
(*) STRING
005C25CE  2008     		mov r0, #8 ; 8
005C25D0  F8DF 7194		ldr r7, [pc, #+404] ; 0x204111C6
005C25D4  7038     		strb r0, [r7]

#14		{R:"1$FB:Sport"}
(*) USINT
005C25D6  2001     		mov r0, #1 ; 1
005C25D8  F8DF 7190		ldr r7, [pc, #+400] ; 0x204111C7
005C25DC  7038     		strb r0, [r7]

#15		{R:"1$FB:Sport"}
(*) USINT
005C25DE  2002     		mov r0, #2 ; 2
005C25E0  F8DF 718C		ldr r7, [pc, #+396] ; 0x204111C8
005C25E4  7038     		strb r0, [r7]

#16		{R:"1$FB:Sport"}
(*) USINT
005C25E6  2000     		mov r0, #0 ; 0
005C25E8  F8DF 7188		ldr r7, [pc, #+392] ; 0x204111C9
005C25EC  7038     		strb r0, [r7]

#17		{R:"1$FB:Sport"}
(*) BOOL
005C25EE  2000     		mov r0, #0 ; 0
005C25F0  F8DF 7184		ldr r7, [pc, #+388] ; 0x204111CA
005C25F4  7038     		strb r0, [r7]

#18		{R:"1$FB:Sport"}
(*) BOOL
005C25F6  2000     		mov r0, #0 ; 0
005C25F8  F8DF 7180		ldr r7, [pc, #+384] ; 0x204111CC
005C25FC  8038     		strh r0, [r7]

#19		{R:"1$FB:Sport"}
(*) UINT
005C25FE  2000     		mov r0, #0 ; 0
005C2600  F8DF 717C		ldr r7, [pc, #+380] ; 0x204111CE
005C2604  8038     		strh r0, [r7]

#20		{R:"1$FB:Sport"}
(*) UINT
005C2606  2000     		mov r0, #0 ; 0
005C2608  F8DF 7178		ldr r7, [pc, #+376] ; 0x204111D0
005C260C  8038     		strh r0, [r7]

#21		{R:"1$FB:Sport"}
(*) UINT
005C260E  2000     		mov r0, #0 ; 0
005C2610  F8DF 7174		ldr r7, [pc, #+372] ; 0x204111D2
005C2614  8038     		strh r0, [r7]

#22		{R:"1$FB:Sport"}
(*) UINT
005C2616  2000     		mov r0, #0 ; 0
005C2618  F8DF 7170		ldr r7, [pc, #+368] ; 0x204111D4
005C261C  8038     		strh r0, [r7]

#23		{R:"1$FB:Sport"}
(*) UINT
005C261E  E92D 0021		stmdb sp!, { r0, r5 }
005C2622  F8DF 7130		ldr r7, [pc, #+304] ; 0x204111B0
005C2626  4638     		mov r0, r7
005C2628  F8DF 40FC		ldr r4, [pc, #+252] ; 0x48DE71
005C262C  F044 0401		orr r4, r4, #1
005C2630  47A0     		blx r4
005C2632  E8BD 0021		ldmia sp!, { r0, r5 }

#24		{R:"1$FB:Sport"}
(*) UINT
005C2636  F8DF 7158		ldr r7, [pc, #+344] ; 0x204111D6
005C263A  7838     		ldrb r0, [r7]
005C263C  F8DF 715C		ldr r7, [pc, #+348] ; 0x2041136E
005C2640  7038     		strb r0, [r7]

#25		{R:"1$FB:Sport"}
(*) BOOL
005C2642  F8DF 7150		ldr r7, [pc, #+336] ; 0x204111D8
005C2646  6838     		ldr r0, [r7]
005C2648  F8DF 7158		ldr r7, [pc, #+344] ; 0x20411370
005C264C  6038     		str r0, [r7]

#26
#27
#28		{R:"1$FB:MManager"}
(*) UDINT
005C264E  F8DF 7140		ldr r7, [pc, #+320] ; 0x204111D6
005C2652  7838     		ldrb r0, [r7]
005C2654  F8DF 7144		ldr r7, [pc, #+324] ; 0x2041136E
005C2658  7038     		strb r0, [r7]

#29		{R:"1$FB:MManager"}
(*) BOOL
005C265A  2000     		mov r0, #0 ; 0
005C265C  F8DF 7140		ldr r7, [pc, #+320] ; 0x2041136F
005C2660  7038     		strb r0, [r7]

#30		{R:"1$FB:MManager"}
(*) BOOL
005C2662  F8DF 7130		ldr r7, [pc, #+304] ; 0x204111D8
005C2666  6838     		ldr r0, [r7]
005C2668  F8DF 7138		ldr r7, [pc, #+312] ; 0x20411370
005C266C  6038     		str r0, [r7]

#31		{R:"1$FB:MManager"}
(*) UDINT
005C266E  F8DF 70C8		ldr r7, [pc, #+200] ; 0x5BA640
005C2672  8838     		ldrh r0, [r7]
005C2674  F8DF 7130		ldr r7, [pc, #+304] ; 0x20411374
005C2678  6038     		str r0, [r7]

#32		{R:"1$FB:MManager"}
(*) UINT
005C267A  200A     		mov r0, #10 ; 10
005C267C  F8DF 712C		ldr r7, [pc, #+300] ; 0x20411378
005C2680  8038     		strh r0, [r7]

#33		{R:"1$FB:MManager"}
(*) UINT
005C2682  E92D 0021		stmdb sp!, { r0, r5 }
005C2686  F8DF 7110		ldr r7, [pc, #+272] ; 0x204111DC
005C268A  463D     		mov r5, r7
005C268C  F8DF 40AC		ldr r4, [pc, #+172] ; 0x5BCF1C
005C2690  F044 0401		orr r4, r4, #1
005C2694  47A0     		blx r4
005C2696  E8BD 0021		ldmia sp!, { r0, r5 }

#34		{R:"1$FB:MManager"}
(*) UINT
005C269A  F8DF 7114		ldr r7, [pc, #+276] ; 0x2041137A
005C269E  7838     		ldrb r0, [r7]
005C26A0  F8DF 7118		ldr r7, [pc, #+280] ; 0x20411391
005C26A4  7038     		strb r0, [r7]

#35		{R:"1$FB:MManager"}
(*) BOOL
005C26A6  F8DF 710C		ldr r7, [pc, #+268] ; 0x2041137C
005C26AA  6838     		ldr r0, [r7]
005C26AC  F8DF 7110		ldr r7, [pc, #+272] ; 0x20411394
005C26B0  6038     		str r0, [r7]

#36
#37
#38		{R:"1$FB:Meter"}
(*) @_MMODBUSCOREDATA
005C26B2  F8DF 70FC		ldr r7, [pc, #+252] ; 0x2041137A
005C26B6  7838     		ldrb r0, [r7]
005C26B8  F8DF 7100		ldr r7, [pc, #+256] ; 0x20411391
005C26BC  7038     		strb r0, [r7]

#39		{R:"1$FB:Meter"}
(*) BOOL
005C26BE  F8DF 70F4		ldr r7, [pc, #+244] ; 0x2041137C
005C26C2  6838     		ldr r0, [r7]
005C26C4  F8DF 70F8		ldr r7, [pc, #+248] ; 0x20411394
005C26C8  6038     		str r0, [r7]

#40		{R:"1$FB:Meter"}
(*) @_MMODBUSCOREDATA
005C26CA  2001     		mov r0, #1 ; 1
005C26CC  F8DF 70F4		ldr r7, [pc, #+244] ; 0x20411398
005C26D0  7038     		strb r0, [r7]

#41		{R:"1$FB:Meter"}
(*) USINT
005C26D2  20C8     		mov r0, #200 ; 200
005C26D4  F8DF 70F0		ldr r7, [pc, #+240] ; 0x2041139A
005C26D8  8038     		strh r0, [r7]

#42		{R:"1$FB:Meter"}
(*) UINT
005C26DA  E92D 0021		stmdb sp!, { r0, r5 }
005C26DE  F8DF 70D8		ldr r7, [pc, #+216] ; 0x20411380
005C26E2  463D     		mov r5, r7
005C26E4  F8DF 4058		ldr r4, [pc, #+88] ; 0x5BD330
005C26E8  F044 0401		orr r4, r4, #1
005C26EC  47A0     		blx r4
005C26EE  E8BD 0021		ldmia sp!, { r0, r5 }

#43		{R:"1$FB:Meter"}
(*) UINT
005C26F2  F8DF 70D8		ldr r7, [pc, #+216] ; 0x204113A4
005C26F6  6838     		ldr r0, [r7]
005C26F8  F8DF 704C		ldr r7, [pc, #+76] ; 0x204111A4
005C26FC  6038     		str r0, [r7]

#44		{R:"1$FB:Meter"}
(*) REAL
005C26FE  F8DF 70D0		ldr r7, [pc, #+208] ; 0x204113AC
005C2702  6838     		ldr r0, [r7]
005C2704  F8DF 703C		ldr r7, [pc, #+60] ; 0x2041119C
005C2708  6038     		str r0, [r7]

#45		{R:"1$FB:Meter"}
(*) REAL
005C270A  F8DF 70C8		ldr r7, [pc, #+200] ; 0x204113B0
005C270E  6838     		ldr r0, [r7]
005C2710  F8DF 7038		ldr r7, [pc, #+56] ; 0x204111A8
005C2714  6038     		str r0, [r7]

#46		{R:"1$FB:Meter"}
(*) REAL
005C2716  F8DF 70C0		ldr r7, [pc, #+192] ; 0x204113BC
005C271A  6838     		ldr r0, [r7]
005C271C  F8DF 7030		ldr r7, [pc, #+48] ; 0x204111AC
005C2720  6038     		str r0, [r7]

005C2722  E8BD 4DF0		ldmia sp!, { r4, r5, r6, r7, r8, r10, fp, lr }

005C2726  4770     		bx lr

005C2728  0048DE71		; 0x0048DE71
005C272C  004A46DD		; 0x004A46DD
005C2730  005BA638		; 0x005BA638
005C2734  005BA63E		; 0x005BA63E
005C2738  005BA640		; 0x005BA640
005C273C  005BCF1C		; 0x005BCF1C
005C2740  005BD330		; 0x005BD330
005C2744  2041119C		; 0x2041119C
005C2748  204111A4		; 0x204111A4
005C274C  204111A8		; 0x204111A8
005C2750  204111AC		; 0x204111AC
005C2754  204111B0		; 0x204111B0
005C2758  204111B8		; 0x204111B8
005C275C  204111BC		; 0x204111BC
005C2760  204111C0		; 0x204111C0
005C2764  204111C4		; 0x204111C4
005C2768  204111C6		; 0x204111C6
005C276C  204111C7		; 0x204111C7
005C2770  204111C8		; 0x204111C8
005C2774  204111C9		; 0x204111C9
005C2778  204111CA		; 0x204111CA
005C277C  204111CC		; 0x204111CC
005C2780  204111CE		; 0x204111CE
005C2784  204111D0		; 0x204111D0
005C2788  204111D2		; 0x204111D2
005C278C  204111D4		; 0x204111D4
005C2790  204111D6		; 0x204111D6
005C2794  204111D8		; 0x204111D8
005C2798  204111DC		; 0x204111DC
005C279C  2041136E		; 0x2041136E
005C27A0  2041136F		; 0x2041136F
005C27A4  20411370		; 0x20411370
005C27A8  20411374		; 0x20411374
005C27AC  20411378		; 0x20411378
005C27B0  2041137A		; 0x2041137A
005C27B4  2041137C		; 0x2041137C
005C27B8  20411380		; 0x20411380
005C27BC  20411391		; 0x20411391
005C27C0  20411394		; 0x20411394
005C27C4  20411398		; 0x20411398
005C27C8  2041139A		; 0x2041139A
005C27CC  204113A4		; 0x204113A4
005C27D0  204113AC		; 0x204113AC
005C27D4  204113B0		; 0x204113B0
005C27D8  204113BC		; 0x204113BC

END_PROGRAM


**************************************************
	Target variable image generation
**************************************************


*** INPUT:
005C27DC  4770     		bx lr


*** OUTPUT:
005C27DE  4770     		bx lr



**************************************************
	Task Back init code
**************************************************

005C27E0  E92D 4DF0		stmdb sp!, { r4, r5, r6, r7, r8, r10, fp, lr }

005C27E4  F8DF 7018		ldr r7, [pc, #+24] ; 0x2041139A
005C27E8  F240 00C8		movw r0, #0x00C8
005C27EC  8038     		strh r0, [r7]

005C27EE  F8DF 700C		ldr r7, [pc, #+12] ; 0x20411381
005C27F2  2001     		mov r0, #0x01
005C27F4  7038     		strb r0, [r7]

005C27F6  E8BD 4DF0		ldmia sp!, { r4, r5, r6, r7, r8, r10, fp, lr }

005C27FA  4770     		bx lr

005C27FC  20411381		; 0x20411381
005C2800  2041139A		; 0x2041139A


**************************************************
VIRTUAL TABLES:

--------------------------------------------------------
VIRTUAL TABLES INDEXES
--------------------------------------------------------


**************************************************
	Global init code
**************************************************

005C2810  E92D 4DF0		stmdb sp!, { r4, r5, r6, r7, r8, r10, fp, lr }

005C2814  E8BD 4DF0		ldmia sp!, { r4, r5, r6, r7, r8, r10, fp, lr }

005C2818  4770     		bx lr



********************************************
MEMORY MAP
********************************************

Code area type:			main code
Start code area:		  5BA000h
End code area:			  5C2820h
Code size:			    8820h

Start local data area:		20410E28h
End local data area:		204113CCh
Local data size:		     5A4h

Start retentive data area:	20410A3Ch
End retentive data area:	20410A3Ch
Retentive data size:		       0h

Start bit data area:		       0h
End bit data area:		       0h
Bit data size:			       0h



********************************************
CODE ID:                                F1C26C9A
DEBUG MEMO ID:                          00006A12
FULL MEMO ID:                           0000C2D2
********************************************
